L251 LINKER/LOCATER V4.66.93.0                                                          04/16/2023  00:40:21  PAGE 1


L251 LINKER/LOCATER V4.66.93.0, INVOKED BY:
D:\KEIL5\C251\BIN\L251.EXE .\Out_File\board.obj, .\Out_File\common.obj, .\Out_File\SEEKFREE_PRINTF.obj, .\Out_File\zf_ad
>> c.obj, .\Out_File\zf_delay.obj, .\Out_File\zf_eeprom.obj, .\Out_File\zf_exti.obj, .\Out_File\zf_gpio.obj, .\Out_File\
>> zf_iic.obj, .\Out_File\zf_nvic.obj, .\Out_File\zf_pwm.obj, .\Out_File\zf_spi.obj, .\Out_File\zf_tim.obj, .\Out_File\z
>> f_uart.obj, .\Out_File\zf_fifo.obj, .\Out_File\SEEKFREE_18TFT.obj, .\Out_File\SEEKFREE_ABSOLUTE_ENCODER.obj, .\Out_Fi
>> le\SEEKFREE_FONT.obj, .\Out_File\SEEKFREE_ICM20602.obj, .\Out_File\SEEKFREE_IIC.obj, .\Out_File\SEEKFREE_IPS114_SPI.o
>> bj, .\Out_File\SEEKFREE_MPU6050.obj, .\Out_File\SEEKFREE_OLED.obj, .\Out_File\SEEKFREE_TSL1401.obj, .\Out_File\SEEKFR
>> EE_VIRSCO.obj, .\Out_File\SEEKFREE_WIRELESS.obj, .\Out_File\SEEKFREE_AT24C02.obj, .\Out_File\SEEKFREE_BLUETOOTH_CH914
>> 1.obj, .\Out_File\SEEKFREE_WIRELESS_CH573.obj, .\Out_File\SEEKFREE_VL53L0X.obj, .\Out_File\isr.obj, .\Out_File\main.o
>> bj TO .\Out_File\SEEKFREE PRINT (.\Out_File\SEEKFREE.map) CASE DISABLEWARNING (16, 57) REMOVEUNUSED CLASSES (EDATA (0
>> X0-0XFFF), HDATA (0X0-0XFFF))


CPU MODE:     251 SOURCE MODE
INTR FRAME:   2 BYTES SAVED ON INTERRUPT
MEMORY MODEL: XSMALL WITH FLOATING POINT ARITHMETIC


INPUT MODULES INCLUDED:
  .\Out_File\board.obj (board)
         COMMENT TYPE 0: C251 V5.60.0
  .\Out_File\common.obj (common)
         COMMENT TYPE 0: C251 V5.60.0
  .\Out_File\SEEKFREE_PRINTF.obj (SEEKFREE_PRINTF)
         COMMENT TYPE 0: C251 V5.60.0
  .\Out_File\zf_adc.obj (zf_adc)
         COMMENT TYPE 0: C251 V5.60.0
  .\Out_File\zf_delay.obj (zf_delay)
         COMMENT TYPE 0: C251 V5.60.0
  .\Out_File\zf_eeprom.obj (zf_eeprom)
         COMMENT TYPE 0: C251 V5.60.0
  .\Out_File\zf_exti.obj (zf_exti)
         COMMENT TYPE 0: C251 V5.60.0
  .\Out_File\zf_gpio.obj (zf_gpio)
         COMMENT TYPE 0: C251 V5.60.0
  .\Out_File\zf_iic.obj (zf_iic)
         COMMENT TYPE 0: C251 V5.60.0
  .\Out_File\zf_nvic.obj (zf_nvic)
         COMMENT TYPE 0: C251 V5.60.0
  .\Out_File\zf_pwm.obj (zf_pwm)
         COMMENT TYPE 0: C251 V5.60.0
  .\Out_File\zf_spi.obj (zf_spi)
         COMMENT TYPE 0: C251 V5.60.0
  .\Out_File\zf_tim.obj (zf_tim)
         COMMENT TYPE 0: C251 V5.60.0
  .\Out_File\zf_uart.obj (zf_uart)
         COMMENT TYPE 0: C251 V5.60.0
  .\Out_File\zf_fifo.obj (zf_fifo)
         COMMENT TYPE 0: C251 V5.60.0
  .\Out_File\SEEKFREE_18TFT.obj (SEEKFREE_18TFT)
         COMMENT TYPE 0: C251 V5.60.0
  .\Out_File\SEEKFREE_ABSOLUTE_ENCODER.obj (SEEKFREE_ABSOLUTE_ENCODER)
         COMMENT TYPE 0: C251 V5.60.0
  .\Out_File\SEEKFREE_FONT.obj (SEEKFREE_FONT)
         COMMENT TYPE 0: C251 V5.60.0
  .\Out_File\SEEKFREE_ICM20602.obj (SEEKFREE_ICM20602)
         COMMENT TYPE 0: C251 V5.60.0
  .\Out_File\SEEKFREE_IIC.obj (SEEKFREE_IIC)
         COMMENT TYPE 0: C251 V5.60.0
  .\Out_File\SEEKFREE_IPS114_SPI.obj (SEEKFREE_IPS114_SPI)
         COMMENT TYPE 0: C251 V5.60.0
  .\Out_File\SEEKFREE_MPU6050.obj (SEEKFREE_MPU6050)
         COMMENT TYPE 0: C251 V5.60.0
  .\Out_File\SEEKFREE_OLED.obj (SEEKFREE_OLED)
         COMMENT TYPE 0: C251 V5.60.0
  .\Out_File\SEEKFREE_TSL1401.obj (SEEKFREE_TSL1401)
L251 LINKER/LOCATER V4.66.93.0                                                        04/16/2023  00:40:21  PAGE 2


         COMMENT TYPE 0: C251 V5.60.0
  .\Out_File\SEEKFREE_VIRSCO.obj (SEEKFREE_VIRSCO)
         COMMENT TYPE 0: C251 V5.60.0
  .\Out_File\SEEKFREE_WIRELESS.obj (SEEKFREE_WIRELESS)
         COMMENT TYPE 0: C251 V5.60.0
  .\Out_File\SEEKFREE_AT24C02.obj (SEEKFREE_AT24C02)
         COMMENT TYPE 0: C251 V5.60.0
  .\Out_File\SEEKFREE_BLUETOOTH_CH9141.obj (SEEKFREE_BLUETOOTH_CH9141)
         COMMENT TYPE 0: C251 V5.60.0
  .\Out_File\SEEKFREE_WIRELESS_CH573.obj (SEEKFREE_WIRELESS_CH573)
         COMMENT TYPE 0: C251 V5.60.0
  .\Out_File\SEEKFREE_VL53L0X.obj (SEEKFREE_VL53L0X)
         COMMENT TYPE 0: C251 V5.60.0
  .\Out_File\isr.obj (isr)
         COMMENT TYPE 0: C251 V5.60.0
  .\Out_File\main.obj (main)
         COMMENT TYPE 0: C251 V5.60.0
  D:\KEIL5\C251\LIB\C2SFPXS.LIB (?C?FPADD)
         COMMENT TYPE 0: A251 V4.69.6.0
  D:\KEIL5\C251\LIB\C2SFPXS.LIB (?C?FPMUL)
         COMMENT TYPE 0: A251 V4.69.6.0
  D:\KEIL5\C251\LIB\C2SFPXS.LIB (?C?FPDIV)
         COMMENT TYPE 0: A251 V4.69.6.0
  D:\KEIL5\C251\LIB\C2SFPXS.LIB (?C?FPCMP)
         COMMENT TYPE 0: A251 V4.69.6.0
  D:\KEIL5\C251\LIB\C2SFPXS.LIB (?C?FCAST)
         COMMENT TYPE 0: A251 V4.69.6.0
  D:\KEIL5\C251\LIB\C2SFPXS.LIB (?C?CASTF)
         COMMENT TYPE 0: A251 V4.69.6.0
  D:\KEIL5\C251\LIB\C2SFPXS.LIB (PRINTF)
         COMMENT TYPE 0: A251 V4.69.6.0
  D:\KEIL5\C251\LIB\C2SFPXS.LIB (?C?FPGETOPN)
         COMMENT TYPE 0: A251 V4.69.6.0
  D:\KEIL5\C251\LIB\C2SFPXS.LIB (?C?PRNFMT)
         COMMENT TYPE 0: A251 V4.69.6.0
  D:\KEIL5\C251\LIB\C2SFPXS.LIB (?C?FPCONVERT)
         COMMENT TYPE 0: A251 V4.69.6.0
  D:\KEIL5\C251\LIB\C2SFPXS.LIB (?C?FTNPWR)
         COMMENT TYPE 0: A251 V4.69.6.0
  D:\KEIL5\C251\LIB\C2SXS.LIB (?C_START)
         COMMENT TYPE 0: A251 V4.69.6.0
  D:\KEIL5\C251\LIB\C2SXS.LIB (?C?INITEDATA)
         COMMENT TYPE 0: A251 V4.69.6.0
  D:\KEIL5\C251\LIB\C2SXS.LIB (?C?SIDIV)
         COMMENT TYPE 0: A251 V4.69.6.0
  D:\KEIL5\C251\LIB\C2SXS.LIB (?C?LMUL)
         COMMENT TYPE 0: A251 V4.69.6.0
  D:\KEIL5\C251\LIB\C2SXS.LIB (?C?LIMUL)
         COMMENT TYPE 0: A251 V4.69.6.0
  D:\KEIL5\C251\LIB\C2SXS.LIB (?C?ULDIV)
         COMMENT TYPE 0: A251 V4.69.6.0
  D:\KEIL5\C251\LIB\C2SXS.LIB (?C?SLDIV)
         COMMENT TYPE 0: A251 V4.69.6.0
  D:\KEIL5\C251\LIB\C2SXS.LIB (memcpy)
         COMMENT TYPE 0: C251 V5.58.7
  D:\KEIL5\C251\LIB\C2SXS.LIB (memset)
         COMMENT TYPE 0: C251 V5.58.7
  D:\KEIL5\C251\LIB\C2SXS.LIB (?C?INITEDATA_END)
         COMMENT TYPE 0: A251 V4.69.6.0


ACTIVE MEMORY CLASSES OF MODULE:  .\Out_File\SEEKFREE (board)

BASE        START       END         USED      MEMORY CLASS
==========================================================
L251 LINKER/LOCATER V4.66.93.0                                                        04/16/2023  00:40:21  PAGE 3


000000H     000000H     000FFFH     000454H   EDATA
000000H     000000H     000FFFH               HDATA
FF0000H     FF0000H     FFFFFFH     002C26H   CODE
000000H     FF0000H     FFFFFFH     0000AAH   HCONST
FF0000H     FF0000H     FFFFFFH     000004H   CONST
000000H     000000H     00007FH     000008H   DATA


MEMORY MAP OF MODULE:  .\Out_File\SEEKFREE (board)


START     STOP      LENGTH    ALIGN  RELOC    MEMORY CLASS   SEGMENT NAME
=========================================================================
000000H   000007H   000008H   ---    AT..     DATA           "REG BANK 0"
000008H   000108H   000101H   BYTE   UNIT     EDATA          ?ED?SEEKFREE_TSL1401
000109H   0001D5H   0000CDH   BYTE   UNIT     EDATA          ?ED?ZF_UART
0001D6H   00022AH   000055H   BYTE   UNIT     EDATA          ?ED?SEEKFREE_WIRELESS
00022BH   00027FH   000055H   BYTE   UNIT     EDATA          ?ED?SEEKFREE_BLUETOOTH_CH9141
000280H   0002D4H   000055H   BYTE   UNIT     EDATA          ?ED?SEEKFREE_WIRELESS_CH573
0002D5H   000322H   00004EH   BYTE   UNIT     EDATA          _EDATA_GROUP_
000323H   00032EH   00000CH   BYTE   UNIT     EDATA          ?ED?SEEKFREE_ICM20602
00032FH   00033AH   00000CH   BYTE   UNIT     EDATA          ?ED?SEEKFREE_MPU6050
00033BH   000344H   00000AH   BYTE   UNIT     EDATA          ?ED?SEEKFREE_VIRSCO
000345H   00034BH   000007H   BYTE   UNIT     EDATA          ?ED?SEEKFREE_IIC
00034CH   00034FH   000004H   BYTE   UNIT     EDATA          ?ED?BOARD
000350H   000353H   000004H   BYTE   UNIT     EDATA          ?ED?ZF_DELAY
000354H   000356H   000003H   BYTE   UNIT     EDATA          ?ED?SEEKFREE_VL53L0X
000357H   000358H   000002H   BYTE   UNIT     EDATA          ?ED?COMMON
000359H   00035AH   000002H   BYTE   UNIT     EDATA          ?ED?MAIN
00035BH   00035BH   000001H   BYTE   UNIT     EDATA          ?ED?ISR
00035CH   00045BH   000100H   BYTE   UNIT     EDATA          ?STACK
00045CH   FEFFFFH   FEFBA4H   ---    ---      **GAP**
FF0000H   FF0002H   000003H   ---    OFFS..   CODE           ?CO?start251?4
FF0003H   FF0005H   000003H   ---    OFFS..   CODE           ?PR?IV?0
FF0006H   FF0008H   000003H   BYTE   INSEG    CODE           ?PR?ENABLEGLOBALIRQ?BOARD
FF0009H   FF0009H   000001H   BYTE   INSEG    CODE           ?PR?INT1_ISR?ISR
FF000AH   FF000AH   000001H   BYTE   INSEG    CODE           ?PR?TM0_ISR?ISR
FF000BH   FF000DH   000003H   ---    OFFS..   CODE           ?PR?IV?1
FF000EH   FF0010H   000003H   BYTE   INSEG    CODE           ?PR?DISABLEGLOBALIRQ?BOARD
FF0011H   FF0011H   000001H   BYTE   INSEG    CODE           ?PR?TM1_ISR?ISR
FF0012H   FF0012H   000001H   ---    ---      **GAP**
FF0013H   FF0015H   000003H   ---    OFFS..   CODE           ?PR?IV?2
FF0016H   FF0019H   000004H   BYTE   UNIT     CONST          ?CO?PRINTF
FF001AH   FF001AH   000001H   ---    ---      **GAP**
FF001BH   FF001DH   000003H   ---    OFFS..   CODE           ?PR?IV?3
FF001EH   FF0021H   000004H   BYTE   UNIT     HCONST         ?HC?MAIN
FF0022H   FF0022H   000001H   ---    ---      **GAP**
FF0023H   FF0025H   000003H   ---    OFFS..   CODE           ?PR?IV?4
FF0026H   FF0041H   00001CH   BYTE   INSEG    CODE           ?PR?VL53L0X_SCCB_WAITACK?SEEKFREE_VL53L0X
FF0042H   FF0042H   000001H   ---    ---      **GAP**
FF0043H   FF0045H   000003H   ---    OFFS..   CODE           ?PR?IV?8
FF0046H   FF0052H   00000DH   BYTE   INSEG    CODE           ?PR?VL53L0X_SIMIIC_DELAY?SEEKFREE_VL53L0X
FF0053H   FF0055H   000003H   ---    OFFS..   CODE           ?PR?IV?10
FF0056H   FF005AH   000005H   ---    ---      **GAP**
FF005BH   FF005DH   000003H   ---    OFFS..   CODE           ?PR?IV?11
FF005EH   FF0062H   000005H   ---    ---      **GAP**
FF0063H   FF0065H   000003H   ---    OFFS..   CODE           ?PR?IV?12
FF0066H   FF007FH   00001AH   BYTE   INSEG    CODE           ?PR?MEMSET?_?MEMSET
FF0080H   FF0082H   000003H   ---    ---      **GAP**
FF0083H   FF0085H   000003H   ---    OFFS..   CODE           ?PR?IV?16
FF0086H   FF008AH   000005H   ---    ---      **GAP**
FF008BH   FF008DH   000003H   ---    OFFS..   CODE           ?PR?IV?17
FF008EH   FF0092H   000005H   ---    ---      **GAP**
FF0093H   FF0095H   000003H   ---    OFFS..   CODE           ?PR?IV?18
FF0096H   FF009AH   000005H   ---    ---      **GAP**
L251 LINKER/LOCATER V4.66.93.0                                                        04/16/2023  00:40:21  PAGE 4


FF009BH   FF009DH   000003H   ---    OFFS..   CODE           ?PR?IV?19
FF009EH   FF00A2H   000005H   ---    ---      **GAP**
FF00A3H   FF00A5H   000003H   ---    OFFS..   CODE           ?PR?IV?20
FF00A6H   FF0EADH   000E08H   BYTE   UNIT     CODE           ?CO?SEEKFREE_FONT
FF0EAEH   FF1848H   00099BH   BYTE   UNIT     CODE           ?C?LIB_CODE
FF1849H   FF1E63H   00061BH   BYTE   INSEG    CODE           ?PR?VL53L0X_INIT?SEEKFREE_VL53L0X
FF1E64H   FF2022H   0001BFH   BYTE   INSEG    CODE           ?PR?UART_INIT?ZF_UART
FF2023H   FF219EH   00017CH   BYTE   INSEG    CODE           ?PR?VL53L0X_GET_SPAD_INFO?SEEKFREE_VL53L0X
FF219FH   FF2282H   0000E4H   BYTE   INSEG    CODE           ?PR?VL53L0X_SET_MEASUREMENT_TIMING_BUDGET?SEEKFREE_VL53L0X
FF2283H   FF2362H   0000E0H   BYTE   INSEG    CODE           ?PR?FIFO_WRITE_BUFFER?ZF_FIFO
FF2363H   FF243DH   0000DBH   BYTE   INSEG    CODE           ?PR?VL53L0X_GET_SEQUENCE_STEP_TIMEOUTS?SEEKFREE_VL53L0X
FF243EH   FF24BEH   000081H   BYTE   INSEG    CODE           ?PR?BOARD_INIT?BOARD
FF24BFH   FF2535H   000077H   BYTE   INSEG    CODE           ?PR?VL53L0X_PERFORM_SINGLE_REF_CALIBRATION?SEEKFREE_VL53L0
                                                             -X
FF2536H   FF25A8H   000073H   BYTE   INSEG    CODE           ?PR?VL53L0X_GET_MEASUREMENT_TIMING_BUDGET?SEEKFREE_VL53L0X
FF25A9H   FF2611H   000069H   BYTE   INSEG    CODE           ?PR?UART4_ISR?ISR
FF2612H   FF266EH   00005DH   BYTE   INSEG    CODE           ?PR?VL53L0X_GET_DISTANCE?SEEKFREE_VL53L0X
FF266FH   FF26C6H   000058H   BYTE   INSEG    CODE           ?PR?VL53L0X_GET_SEQUENCE_STEP_ENABLES?SEEKFREE_VL53L0X
FF26C7H   FF271AH   000054H   BYTE   INSEG    CODE           ?PR?UART_PUTCHAR?ZF_UART
FF271BH   FF276EH   000054H   BYTE   INSEG    CODE           ?PR?VL53L0X_SIMIIC_READ_REGS?SEEKFREE_VL53L0X
FF276FH   FF27C2H   000054H   BYTE   INSEG    CODE           ?PR?VL53L0X_SIMIIC_READ_REGS_1?SEEKFREE_VL53L0X
FF27C3H   FF280FH   00004DH   BYTE   INSEG    CODE           ?PR?VL53L0X_GET_VCSEL_PULSE_PERIOD?SEEKFREE_VL53L0X
FF2810H   FF2851H   000042H   BYTE   INSEG    CODE           ?PR?FIFO_HEAD_OFFSET?ZF_FIFO
FF2852H   FF2864H   000013H   BYTE   UNIT     CODE           ?C_C51STARTUP
FF2865H   FF288DH   000029H   BYTE   UNIT     CODE           ?C_C51STARTUP?2
FF288EH   FF2890H   000003H   BYTE   UNIT     CODE           ?C_C51STARTUP?3
FF2891H   FF28CEH   00003EH   BYTE   INSEG    CODE           ?PR?VL53L0X_TIMEOUT_MCLKS_TO_MICROSECONDS?SEEKFREE_VL53L0X
FF28CFH   FF290BH   00003DH   BYTE   INSEG    CODE           ?PR?UART1_ISR?ISR
FF290CH   FF2947H   00003CH   BYTE   INSEG    CODE           ?PR?VL53L0X_TIMEOUT_MICROSECONDS_TO_MCLKS?SEEKFREE_VL53L0X
FF2948H   FF2982H   00003BH   BYTE   INSEG    CODE           ?PR?VL53L0X_READ_CH?SEEKFREE_VL53L0X
FF2983H   FF29BBH   000039H   BYTE   INSEG    CODE           ?PR?DELAY_INIT?ZF_DELAY
FF29BCH   FF29F1H   000036H   BYTE   INSEG    CODE           ?PR?MAIN?MAIN
FF29F2H   FF2A26H   000035H   BYTE   INSEG    CODE           ?PR?VL53L0X_SIMIIC_WRITE_DATS?SEEKFREE_VL53L0X
FF2A27H   FF2A5AH   000034H   BYTE   INSEG    CODE           ?PR?VL53L0X_ENCODE_TIMEOUT?SEEKFREE_VL53L0X
FF2A5BH   FF2A88H   00002EH   BYTE   INSEG    CODE           ?PR?VL53L0X_SEND_CH?SEEKFREE_VL53L0X
FF2A89H   FF2AB1H   000029H   BYTE   INSEG    CODE           ?PR?VL53L0X_SIMIIC_READ_REG?SEEKFREE_VL53L0X
FF2AB2H   FF2AD8H   000027H   BYTE   INSEG    CODE           ?PR?VL53L0X_SET_SIGNAL_RATE_LIMIT?SEEKFREE_VL53L0X
FF2AD9H   FF2AFDH   000025H   BYTE   INSEG    CODE           ?PR?MEMCPY?_?MEMCPY
FF2AFEH   FF2B1FH   000022H   BYTE   INSEG    CODE           ?PR?VL53L0X_SIMIIC_WRITE_REG?SEEKFREE_VL53L0X
FF2B20H   FF2B3FH   000020H   BYTE   INSEG    CODE           ?PR?VL53L0X_SIMIIC_SENDACK?SEEKFREE_VL53L0X
FF2B40H   FF2B5DH   00001EH   BYTE   INSEG    CODE           ?PR?UART2_ISR?ISR
FF2B5EH   FF2B7BH   00001EH   BYTE   INSEG    CODE           ?PR?UART3_ISR?ISR
FF2B7CH   FF2B94H   000019H   BYTE   INSEG    CODE           ?PR?WIRELESS_UART_CALLBACK?SEEKFREE_WIRELESS
FF2B95H   FF2BADH   000019H   BYTE   INSEG    CODE           ?PR?BLUETOOTH_CH9141_UART_CALLBACK?SEEKFREE_BLUETOOTH_CH91
                                                             -41
FF2BAEH   FF2BC6H   000019H   BYTE   INSEG    CODE           ?PR?WIRELESS_CH573_CALLBACK?SEEKFREE_WIRELESS_CH573
FF2BC7H   FF2BDDH   000017H   BYTE   INSEG    CODE           ?PR?DELAY_MS?ZF_DELAY
FF2BDEH   FF2BEEH   000011H   BYTE   INSEG    CODE           ?PR?VL53L0X_SIMIIC_STOP?SEEKFREE_VL53L0X
FF2BEFH   FF2BFEH   000010H   BYTE   INSEG    CODE           ?PR?VL53L0X_DECODE_TIMEOUT?SEEKFREE_VL53L0X
FF2BFFH   FF2C0DH   00000FH   BYTE   INSEG    CODE           ?PR?VL53L0X_SIMIIC_START?SEEKFREE_VL53L0X
FF2C0EH   FF2C1BH   00000EH   BYTE   INSEG    CODE           ?PR?PUTCHAR?BOARD
FF2C1CH   FF2C23H   000008H   BYTE   INSEG    CODE           ?PR?INT2_ISR?ISR
FF2C24H   FF2C2BH   000008H   BYTE   INSEG    CODE           ?PR?INT3_ISR?ISR
FF2C2CH   FF2C33H   000008H   BYTE   INSEG    CODE           ?PR?INT4_ISR?ISR
FF2C34H   FF2C3BH   000008H   BYTE   INSEG    CODE           ?PR?TM2_ISR?ISR
FF2C3CH   FF2C43H   000008H   BYTE   INSEG    CODE           ?PR?TM3_ISR?ISR
FF2C44H   FF2C4BH   000008H   BYTE   INSEG    CODE           ?PR?TM4_ISR?ISR
FF2C4CH   FF2C52H   000007H   BYTE   INSEG    CODE           ?PR?INT0_ISR?ISR
FF2C53H   FF2CAAH   000058H   BYTE   UNIT     HCONST         ?HC?ZF_PWM
FF2CABH   FF2CCCH   000022H   BYTE   UNIT     HCONST         ?C_INITEDATA
FF2CCDH   FF2CE2H   000016H   BYTE   UNIT     HCONST         ?HC?SEEKFREE_VL53L0X
FF2CE3H   FF2CECH   00000AH   BYTE   UNIT     HCONST         ?HC?SEEKFREE_OLED
FF2CEDH   FF2CF2H   000006H   BYTE   UNIT     HCONST         ?HC?SEEKFREE_18TFT
FF2CF3H   FF2CF8H   000006H   BYTE   UNIT     HCONST         ?HC?SEEKFREE_IPS114_SPI

L251 LINKER/LOCATER V4.66.93.0                                                        04/16/2023  00:40:21  PAGE 5


* * * * * * * * *   R E M O V E D     S E G M E N T S   * * * * * * * *
   *DEL*:           000092H   BYTE   INSEG    CODE           ?PR?NUMBER_CONVERSION_ASCII?SEEKFREE_PRINTF
   *DEL*:           0004FAH   BYTE   INSEG    CODE           ?PR?ZF_SPRINTF?SEEKFREE_PRINTF
   *DEL*:           00003EH   BYTE   INSEG    CODE           ?PR?PRINTF_REVERSE_ORDER?SEEKFREE_PRINTF
   *DEL*:           000001H   BYTE   UNIT     EDATA          ?ED?NUMBER_CONVERSION_ASCII?SEEKFREE_PRINTF
   *DEL*:           00005FH   BYTE   UNIT     EDATA          ?ED?ZF_SPRINTF?SEEKFREE_PRINTF
   *DEL*:           00002EH   BYTE   INSEG    CODE           ?PR?ADC_ONCE?ZF_ADC
   *DEL*:           00005EH   BYTE   INSEG    CODE           ?PR?ADC_INIT?ZF_ADC
   *DEL*:           000019H   BYTE   INSEG    CODE           ?PR?DELAY_US?ZF_DELAY
   *DEL*:           000016H   BYTE   INSEG    CODE           ?PR?IAP_SET_TPS?ZF_EEPROM
   *DEL*:           000015H   BYTE   INSEG    CODE           ?PR?EEPROM_TRIG?ZF_EEPROM
   *DEL*:           00000EH   BYTE   INSEG    CODE           ?PR?IAP_ERASE_PAGE?ZF_EEPROM
   *DEL*:           000004H   BYTE   INSEG    CODE           ?PR?IAP_IDLE?ZF_EEPROM
   *DEL*:           000047H   BYTE   INSEG    CODE           ?PR?IAP_READ_BYTES?ZF_EEPROM
   *DEL*:           00006DH   BYTE   INSEG    CODE           ?PR?EXTERN_IAP_WRITE_BYTES?ZF_EEPROM
   *DEL*:           000006H   BYTE   INSEG    CODE           ?PR?IAP_INIT?ZF_EEPROM
   *DEL*:           000047H   BYTE   INSEG    CODE           ?PR?IAP_WRITE_BYTES?ZF_EEPROM
   *DEL*:           00000CH   BYTE   INSEG    CODE           ?PR?IAP_GET_CMD_STATE?ZF_EEPROM
   *DEL*:           000004H   BYTE   UNIT     EDATA          ?ED?IAP_READ_BYTES?ZF_EEPROM
   *DEL*:           000004H   BYTE   UNIT     EDATA          ?ED?IAP_WRITE_BYTES?ZF_EEPROM
   *DEL*:           000204H   BYTE   UNIT     EDATA          ?ED?EXTERN_IAP_WRITE_BYTES?ZF_EEPROM
   *DEL*:           00003EH   BYTE   INSEG    CODE           ?PR?EXIT_INIT?ZF_EXTI
   *DEL*:           00006EH   BYTE   INSEG    CODE           ?PR?GPIO_PULL_SET?ZF_GPIO
   *DEL*:           0003F7H   BYTE   INSEG    CODE           ?PR?GPIO_MODE?ZF_GPIO
   *DEL*:           000017H   BYTE   INSEG    CODE           ?PR?SEND_DATA?ZF_IIC
   *DEL*:           00002FH   BYTE   INSEG    CODE           ?PR?IIC_CHANGE_PIN?ZF_IIC
   *DEL*:           00001CH   BYTE   INSEG    CODE           ?PR?RECV_DATA?ZF_IIC
   *DEL*:           000010H   BYTE   INSEG    CODE           ?PR?START?ZF_IIC
   *DEL*:           000045H   BYTE   INSEG    CODE           ?PR?WAIT?ZF_IIC
   *DEL*:           000018H   BYTE   INSEG    CODE           ?PR?SEND_ACK?ZF_IIC
   *DEL*:           000010H   BYTE   INSEG    CODE           ?PR?RECV_ACK?ZF_IIC
   *DEL*:           000010H   BYTE   INSEG    CODE           ?PR?STOP?ZF_IIC
   *DEL*:           000019H   BYTE   INSEG    CODE           ?PR?SEND_NAK?ZF_IIC
   *DEL*:           00005EH   BYTE   INSEG    CODE           ?PR?IIC_INIT?ZF_IIC
   *DEL*:           000075H   BYTE   INSEG    CODE           ?PR?IIC_READ_REG?ZF_IIC
   *DEL*:           00009CH   BYTE   INSEG    CODE           ?PR?IIC_READ_REG_BYTES?ZF_IIC
   *DEL*:           000060H   BYTE   INSEG    CODE           ?PR?IIC_WRITE_REG?ZF_IIC
   *DEL*:           000015H   BYTE   INSEG    CODE           ?PR?IIC_DELAY_US?ZF_IIC
   *DEL*:           000004H   BYTE   UNIT     EDATA          ?ED?IIC_INIT?ZF_IIC
   *DEL*:           000004H   BYTE   UNIT     EDATA          ?ED?IIC_READ_REG?ZF_IIC
   *DEL*:           000003H   BYTE   UNIT     EDATA          ?ED?IIC_READ_REG_BYTES?ZF_IIC
   *DEL*:           00006CH   BYTE   INSEG    CODE           ?PR?NVIC_SETPRIORITY?ZF_NVIC
   *DEL*:           0000B8H   BYTE   INSEG    CODE           ?PR?PWM_DUTY?ZF_PWM
   *DEL*:           0002A1H   BYTE   INSEG    CODE           ?PR?PWM_SET_GPIO?ZF_PWM
   *DEL*:           000121H   BYTE   INSEG    CODE           ?PR?PWM_FREQ?ZF_PWM
   *DEL*:           0002E4H   BYTE   INSEG    CODE           ?PR?PWM_INIT?ZF_PWM
   *DEL*:           000008H   BYTE   UNIT     EDATA          ?ED?PWM_INIT?ZF_PWM
   *DEL*:           000004H   BYTE   UNIT     EDATA          ?ED?PWM_FREQ?ZF_PWM
   *DEL*:           00001DH   BYTE   INSEG    CODE           ?PR?SPI_CHANGE_MODE?ZF_SPI
   *DEL*:           0000AEH   BYTE   INSEG    CODE           ?PR?SPI_CHANGE_PIN?ZF_SPI
   *DEL*:           0000DFH   BYTE   INSEG    CODE           ?PR?SPI_INIT?ZF_SPI
   *DEL*:           00000EH   BYTE   INSEG    CODE           ?PR?SPI_MOSI?ZF_SPI
   *DEL*:           000004H   BYTE   UNIT     EDATA          ?ED?SPI_INIT?ZF_SPI
   *DEL*:           00004DH   BYTE   INSEG    CODE           ?PR?CTIMER_COUNT_READ?ZF_TIM
   *DEL*:           000094H   BYTE   INSEG    CODE           ?PR?PIT_TIMER_MS?ZF_TIM
   *DEL*:           00004AH   BYTE   INSEG    CODE           ?PR?CTIMER_COUNT_INIT?ZF_TIM
   *DEL*:           000051H   BYTE   INSEG    CODE           ?PR?CTIMER_COUNT_CLEAN?ZF_TIM
   *DEL*:           00002DH   BYTE   INSEG    CODE           ?PR?UART_PUTBUFF?ZF_UART
   *DEL*:           00001EH   BYTE   INSEG    CODE           ?PR?UART_PUTSTR?ZF_UART
   *DEL*:           000004H   BYTE   UNIT     EDATA          ?ED?UART_PUTBUFF?ZF_UART
   *DEL*:           000002H   BYTE   UNIT     EDATA          ?ED?UART_PUTSTR?ZF_UART
   *DEL*:           000113H   BYTE   INSEG    CODE           ?PR?FIFO_READ_BUFFER?ZF_FIFO
   *DEL*:           000025H   BYTE   INSEG    CODE           ?PR?FIFO_CLEAR?ZF_FIFO
   *DEL*:           000046H   BYTE   INSEG    CODE           ?PR?FIFO_END_OFFSET?ZF_FIFO
   *DEL*:           000015H   BYTE   INSEG    CODE           ?PR?FIFO_USED?ZF_FIFO
L251 LINKER/LOCATER V4.66.93.0                                                        04/16/2023  00:40:21  PAGE 6


   *DEL*:           000043H   BYTE   INSEG    CODE           ?PR?FIFO_INIT?ZF_FIFO
   *DEL*:           000004H   BYTE   UNIT     EDATA          ?ED?FIFO_INIT?ZF_FIFO
   *DEL*:           00000FH   BYTE   UNIT     EDATA          ?ED?FIFO_READ_BUFFER?ZF_FIFO
   *DEL*:           00008BH   BYTE   INSEG    CODE           ?PR?LCD_SHOWUINT16?SEEKFREE_18TFT
   *DEL*:           000082H   BYTE   INSEG    CODE           ?PR?LCD_SHOWINT32_SIMSPI?SEEKFREE_18TFT
   *DEL*:           0000DDH   BYTE   INSEG    CODE           ?PR?LCD_SHOWINT16_SIMSPI?SEEKFREE_18TFT
   *DEL*:           000082H   BYTE   INSEG    CODE           ?PR?LCD_SHOWINT32?SEEKFREE_18TFT
   *DEL*:           0000DDH   BYTE   INSEG    CODE           ?PR?LCD_SHOWINT16?SEEKFREE_18TFT
   *DEL*:           00002BH   BYTE   INSEG    CODE           ?PR?LCD_CLEAR_SIMSPI?SEEKFREE_18TFT
   *DEL*:           00002BH   BYTE   INSEG    CODE           ?PR?LCD_CLEAR?SEEKFREE_18TFT
   *DEL*:           00004EH   BYTE   INSEG    CODE           ?PR?LCD_SHOWSTR_SIMSPI?SEEKFREE_18TFT
   *DEL*:           00004EH   BYTE   INSEG    CODE           ?PR?LCD_SHOWSTR?SEEKFREE_18TFT
   *DEL*:           000029H   BYTE   INSEG    CODE           ?PR?LCD_WRITEINDEX_SIMSPI?SEEKFREE_18TFT
   *DEL*:           000029H   BYTE   INSEG    CODE           ?PR?LCD_WRITEDATA_SIMSPI?SEEKFREE_18TFT
   *DEL*:           00000AH   BYTE   INSEG    CODE           ?PR?LCD_WRITEINDEX?SEEKFREE_18TFT
   *DEL*:           00000AH   BYTE   INSEG    CODE           ?PR?LCD_WRITEDATA?SEEKFREE_18TFT
   *DEL*:           00002CH   BYTE   INSEG    CODE           ?PR?LCD_WRITEDATA_16BIT_SIMSPI?SEEKFREE_18TFT
   *DEL*:           00004CH   BYTE   INSEG    CODE           ?PR?LCD_SET_REGION_SIMSPI?SEEKFREE_18TFT
   *DEL*:           0001EFH   BYTE   INSEG    CODE           ?PR?LCD_INIT_SIMSPI?SEEKFREE_18TFT
   *DEL*:           00009AH   BYTE   INSEG    CODE           ?PR?SHOWIMAGE?SEEKFREE_18TFT
   *DEL*:           000050H   BYTE   INSEG    CODE           ?PR?LCD_SET_REGION?SEEKFREE_18TFT
   *DEL*:           0001EEH   BYTE   INSEG    CODE           ?PR?LCD_INIT?SEEKFREE_18TFT
   *DEL*:           00007BH   BYTE   INSEG    CODE           ?PR?LCD_SHOWUINT8_SIMSPI?SEEKFREE_18TFT
   *DEL*:           00007BH   BYTE   INSEG    CODE           ?PR?LCD_SHOWUINT8?SEEKFREE_18TFT
   *DEL*:           0000B9H   BYTE   INSEG    CODE           ?PR?LCD_SHOWINT8_SIMSPI?SEEKFREE_18TFT
   *DEL*:           0000B9H   BYTE   INSEG    CODE           ?PR?LCD_SHOWINT8?SEEKFREE_18TFT
   *DEL*:           00001FH   BYTE   INSEG    CODE           ?PR?LCD_WRITEDATA_16BIT?SEEKFREE_18TFT
   *DEL*:           0000F8H   BYTE   INSEG    CODE           ?PR?LCD_SHOWFLOAT_SIMSPI?SEEKFREE_18TFT
   *DEL*:           000013H   BYTE   INSEG    CODE           ?PR?LCD_DRAWPOINT_SIMSPI?SEEKFREE_18TFT
   *DEL*:           0000F8H   BYTE   INSEG    CODE           ?PR?LCD_SHOWFLOAT?SEEKFREE_18TFT
   *DEL*:           000013H   BYTE   INSEG    CODE           ?PR?LCD_DRAWPOINT?SEEKFREE_18TFT
   *DEL*:           00008EH   BYTE   INSEG    CODE           ?PR?LCD_SHOWCHAR_SIMSPI?SEEKFREE_18TFT
   *DEL*:           00008EH   BYTE   INSEG    CODE           ?PR?LCD_SHOWCHAR?SEEKFREE_18TFT
   *DEL*:           00008BH   BYTE   INSEG    CODE           ?PR?LCD_SHOWUINT16_SIMSPI?SEEKFREE_18TFT
   *DEL*:           000004H   BYTE   UNIT     EDATA          ?ED?LCD_SET_REGION_SIMSPI?SEEKFREE_18TFT
   *DEL*:           000004H   BYTE   UNIT     EDATA          ?ED?LCD_SHOWCHAR_SIMSPI?SEEKFREE_18TFT
   *DEL*:           000006H   BYTE   UNIT     EDATA          ?ED?LCD_SHOWSTR_SIMSPI?SEEKFREE_18TFT
   *DEL*:           000005H   BYTE   UNIT     EDATA          ?ED?LCD_SHOWINT8_SIMSPI?SEEKFREE_18TFT
   *DEL*:           000004H   BYTE   UNIT     EDATA          ?ED?LCD_SHOWUINT8_SIMSPI?SEEKFREE_18TFT
   *DEL*:           000008H   BYTE   UNIT     EDATA          ?ED?LCD_SHOWINT16_SIMSPI?SEEKFREE_18TFT
   *DEL*:           000006H   BYTE   UNIT     EDATA          ?ED?LCD_SHOWUINT16_SIMSPI?SEEKFREE_18TFT
   *DEL*:           000028H   BYTE   UNIT     EDATA          ?ED?LCD_SHOWINT32_SIMSPI?SEEKFREE_18TFT
   *DEL*:           00002BH   BYTE   UNIT     EDATA          ?ED?LCD_SHOWFLOAT_SIMSPI?SEEKFREE_18TFT
   *DEL*:           000002H   BYTE   UNIT     EDATA          ?ED?LCD_WRITEDATA_16BIT?SEEKFREE_18TFT
   *DEL*:           000004H   BYTE   UNIT     EDATA          ?ED?LCD_SET_REGION?SEEKFREE_18TFT
   *DEL*:           000004H   BYTE   UNIT     EDATA          ?ED?LCD_SHOWCHAR?SEEKFREE_18TFT
   *DEL*:           000006H   BYTE   UNIT     EDATA          ?ED?LCD_SHOWSTR?SEEKFREE_18TFT
   *DEL*:           000005H   BYTE   UNIT     EDATA          ?ED?LCD_SHOWINT8?SEEKFREE_18TFT
   *DEL*:           000004H   BYTE   UNIT     EDATA          ?ED?LCD_SHOWUINT8?SEEKFREE_18TFT
   *DEL*:           000008H   BYTE   UNIT     EDATA          ?ED?LCD_SHOWINT16?SEEKFREE_18TFT
   *DEL*:           000006H   BYTE   UNIT     EDATA          ?ED?LCD_SHOWUINT16?SEEKFREE_18TFT
   *DEL*:           000028H   BYTE   UNIT     EDATA          ?ED?LCD_SHOWINT32?SEEKFREE_18TFT
   *DEL*:           00002BH   BYTE   UNIT     EDATA          ?ED?LCD_SHOWFLOAT?SEEKFREE_18TFT
   *DEL*:           000008H   BYTE   UNIT     EDATA          ?ED?SHOWIMAGE?SEEKFREE_18TFT
   *DEL*:           000011H   BYTE   INSEG    CODE           ?PR?ENCODER_SELF4_CHECK?SEEKFREE_ABSOLUTE_ENCODER
   *DEL*:           000011H   BYTE   INSEG    CODE           ?PR?ENCODER_SELF5_CHECK?SEEKFREE_ABSOLUTE_ENCODER
   *DEL*:           00002FH   BYTE   INSEG    CODE           ?PR?ENCODER_SPI_R_REG_BYTE?SEEKFREE_ABSOLUTE_ENCODER
   *DEL*:           000005H   BYTE   INSEG    CODE           ?PR?ENCODER_DELAY_US?SEEKFREE_ABSOLUTE_ENCODER
   *DEL*:           000038H   BYTE   INSEG    CODE           ?PR?ENCODER_SPI_W_REG_BYTE?SEEKFREE_ABSOLUTE_ENCODER
   *DEL*:           00001CH   BYTE   INSEG    CODE           ?PR?SIMSPI_R_REG_BYTE?SEEKFREE_ABSOLUTE_ENCODER
   *DEL*:           00001AH   BYTE   INSEG    CODE           ?PR?SIMSPI_W_REG_BYTE?SEEKFREE_ABSOLUTE_ENCODER
   *DEL*:           000029H   BYTE   INSEG    CODE           ?PR?ENCODER_INIT_SPI?SEEKFREE_ABSOLUTE_ENCODER
   *DEL*:           000004H   BYTE   INSEG    CODE           ?PR?SPI_WR_BYTE?SEEKFREE_ABSOLUTE_ENCODER
   *DEL*:           000024H   BYTE   INSEG    CODE           ?PR?SET_ZERO_POSITION_SIMSPI?SEEKFREE_ABSOLUTE_ENCODER
   *DEL*:           000023H   BYTE   INSEG    CODE           ?PR?ENCODER_ANGLE_SIMSPI?SEEKFREE_ABSOLUTE_ENCODER
L251 LINKER/LOCATER V4.66.93.0                                                        04/16/2023  00:40:21  PAGE 7


   *DEL*:           00001CH   BYTE   INSEG    CODE           ?PR?SPI_R_REG_BYTE?SEEKFREE_ABSOLUTE_ENCODER
   *DEL*:           00001AH   BYTE   INSEG    CODE           ?PR?SPI_W_REG_BYTE?SEEKFREE_ABSOLUTE_ENCODER
   *DEL*:           00002FH   BYTE   INSEG    CODE           ?PR?ENCODER_SIMSPI_R_REG_BYTE?SEEKFREE_ABSOLUTE_ENCODER
   *DEL*:           000038H   BYTE   INSEG    CODE           ?PR?ENCODER_SIMSPI_W_REG_BYTE?SEEKFREE_ABSOLUTE_ENCODER
   *DEL*:           00000FH   BYTE   INSEG    CODE           ?PR?ENCODER_INIT_SIMSPI?SEEKFREE_ABSOLUTE_ENCODER
   *DEL*:           000024H   BYTE   INSEG    CODE           ?PR?SET_ZERO_POSITION_SPI?SEEKFREE_ABSOLUTE_ENCODER
   *DEL*:           00001FH   BYTE   INSEG    CODE           ?PR?SIMSPI_WR_BYTE?SEEKFREE_ABSOLUTE_ENCODER
   *DEL*:           000023H   BYTE   INSEG    CODE           ?PR?ENCODER_ANGLE_SPI?SEEKFREE_ABSOLUTE_ENCODER
   *DEL*:           000001H   BYTE   UNIT     EDATA          ?ED?ENCODER_SELF4_CHECK?SEEKFREE_ABSOLUTE_ENCODER
   *DEL*:           000001H   BYTE   UNIT     EDATA          ?ED?ENCODER_SELF5_CHECK?SEEKFREE_ABSOLUTE_ENCODER
   *DEL*:           00001FH   BYTE   INSEG    CODE           ?PR?ICM_SIMSPI_WR_BYTE?SEEKFREE_ICM20602
   *DEL*:           000075H   BYTE   INSEG    CODE           ?PR?ICM20602_INIT_SIMIIC?SEEKFREE_ICM20602
   *DEL*:           000040H   BYTE   INSEG    CODE           ?PR?ICM_SIMSPI_R_REG_BYTES?SEEKFREE_ICM20602
   *DEL*:           00001CH   BYTE   INSEG    CODE           ?PR?ICM_SIMSPI_R_REG_BYTE?SEEKFREE_ICM20602
   *DEL*:           000013H   BYTE   INSEG    CODE           ?PR?ICM_SIMSPI_W_REG_BYTE?SEEKFREE_ICM20602
   *DEL*:           000059H   BYTE   INSEG    CODE           ?PR?ICM20602_INIT_SIMSPI?SEEKFREE_ICM20602
   *DEL*:           00002BH   BYTE   INSEG    CODE           ?PR?ICM20602_SELF1_CHECK?SEEKFREE_ICM20602
   *DEL*:           000011H   BYTE   INSEG    CODE           ?PR?ICM20602_SELF4_CHECK?SEEKFREE_ICM20602
   *DEL*:           000044H   BYTE   INSEG    CODE           ?PR?GET_ICM20602_GYRO_SIMIIC?SEEKFREE_ICM20602
   *DEL*:           000044H   BYTE   INSEG    CODE           ?PR?GET_ICM20602_ACCDATA_SIMIIC?SEEKFREE_ICM20602
   *DEL*:           00003DH   BYTE   INSEG    CODE           ?PR?GET_ICM20602_GYRO_SIMSPI?SEEKFREE_ICM20602
   *DEL*:           00003DH   BYTE   INSEG    CODE           ?PR?GET_ICM20602_ACCDATA_SIMSPI?SEEKFREE_ICM20602
   *DEL*:           000006H   BYTE   UNIT     EDATA          ?ED?GET_ICM20602_ACCDATA_SIMIIC?SEEKFREE_ICM20602
   *DEL*:           000006H   BYTE   UNIT     EDATA          ?ED?GET_ICM20602_GYRO_SIMIIC?SEEKFREE_ICM20602
   *DEL*:           000003H   BYTE   UNIT     EDATA          ?ED?ICM_SIMSPI_R_REG_BYTES?SEEKFREE_ICM20602
   *DEL*:           000001H   BYTE   UNIT     EDATA          ?ED?ICM20602_SELF4_CHECK?SEEKFREE_ICM20602
   *DEL*:           000001H   BYTE   UNIT     EDATA          ?ED?ICM20602_INIT_SIMSPI?SEEKFREE_ICM20602
   *DEL*:           000006H   BYTE   UNIT     EDATA          ?ED?GET_ICM20602_ACCDATA_SIMSPI?SEEKFREE_ICM20602
   *DEL*:           000006H   BYTE   UNIT     EDATA          ?ED?GET_ICM20602_GYRO_SIMSPI?SEEKFREE_ICM20602
   *DEL*:           00000FH   BYTE   INSEG    CODE           ?PR?SIMIIC_START?SEEKFREE_IIC
   *DEL*:           000066H   BYTE   INSEG    CODE           ?PR?SIMIIC_READ_REGS?SEEKFREE_IIC
   *DEL*:           000001H   BYTE   INSEG    CODE           ?PR?SIMIIC_INIT?SEEKFREE_IIC
   *DEL*:           000034H   BYTE   INSEG    CODE           ?PR?SIMIIC_READ_REG?SEEKFREE_IIC
   *DEL*:           000011H   BYTE   INSEG    CODE           ?PR?SIMIIC_STOP?SEEKFREE_IIC
   *DEL*:           000022H   BYTE   INSEG    CODE           ?PR?SIMIIC_WRITE_REG?SEEKFREE_IIC
   *DEL*:           000020H   BYTE   INSEG    CODE           ?PR?SIMIIC_SENDACK?SEEKFREE_IIC
   *DEL*:           00003BH   BYTE   INSEG    CODE           ?PR?READ_CH?SEEKFREE_IIC
   *DEL*:           00002EH   BYTE   INSEG    CODE           ?PR?SEND_CH?SEEKFREE_IIC
   *DEL*:           00001CH   BYTE   INSEG    CODE           ?PR?SCCB_WAITACK?SEEKFREE_IIC
   *DEL*:           00000BH   BYTE   INSEG    CODE           ?PR?SIMIIC_DELAY?SEEKFREE_IIC
   *DEL*:           000005H   BYTE   UNIT     EDATA          ?ED?SIMIIC_READ_REGS?SEEKFREE_IIC
   *DEL*:           00007BH   BYTE   INSEG    CODE           ?PR?IPS114_SHOWUINT8_SIMSPI?SEEKFREE_IPS114_SPI
   *DEL*:           000077H   BYTE   INSEG    CODE           ?PR?IPS114_SHOWUINT8?SEEKFREE_IPS114_SPI
   *DEL*:           0000B9H   BYTE   INSEG    CODE           ?PR?IPS114_SHOWINT8_SIMSPI?SEEKFREE_IPS114_SPI
   *DEL*:           0000B5H   BYTE   INSEG    CODE           ?PR?IPS114_SHOWINT8?SEEKFREE_IPS114_SPI
   *DEL*:           00001FH   BYTE   INSEG    CODE           ?PR?IPS114_WRITEDATA_16BIT?SEEKFREE_IPS114_SPI
   *DEL*:           0000F8H   BYTE   INSEG    CODE           ?PR?IPS114_SHOWFLOAT_SIMSPI?SEEKFREE_IPS114_SPI
   *DEL*:           000013H   BYTE   INSEG    CODE           ?PR?IPS114_DRAWPOINT_SIMSPI?SEEKFREE_IPS114_SPI
   *DEL*:           0000F8H   BYTE   INSEG    CODE           ?PR?IPS114_SHOWFLOAT?SEEKFREE_IPS114_SPI
   *DEL*:           000013H   BYTE   INSEG    CODE           ?PR?IPS114_DRAWPOINT?SEEKFREE_IPS114_SPI
   *DEL*:           00008EH   BYTE   INSEG    CODE           ?PR?IPS114_SHOWCHAR_SIMSPI?SEEKFREE_IPS114_SPI
   *DEL*:           00008EH   BYTE   INSEG    CODE           ?PR?IPS114_SHOWCHAR?SEEKFREE_IPS114_SPI
   *DEL*:           00008BH   BYTE   INSEG    CODE           ?PR?IPS114_SHOWUINT16_SIMSPI?SEEKFREE_IPS114_SPI
   *DEL*:           00008BH   BYTE   INSEG    CODE           ?PR?IPS114_SHOWUINT16?SEEKFREE_IPS114_SPI
   *DEL*:           000082H   BYTE   INSEG    CODE           ?PR?IPS114_SHOWINT32_SIMSPI?SEEKFREE_IPS114_SPI
   *DEL*:           0000DDH   BYTE   INSEG    CODE           ?PR?IPS114_SHOWINT16_SIMSPI?SEEKFREE_IPS114_SPI
   *DEL*:           000082H   BYTE   INSEG    CODE           ?PR?IPS114_SHOWINT32?SEEKFREE_IPS114_SPI
   *DEL*:           0000D9H   BYTE   INSEG    CODE           ?PR?IPS114_SHOWINT16?SEEKFREE_IPS114_SPI
   *DEL*:           00003CH   BYTE   INSEG    CODE           ?PR?IPS114_CLEAR_SIMSPI?SEEKFREE_IPS114_SPI
   *DEL*:           00003CH   BYTE   INSEG    CODE           ?PR?IPS114_CLEAR?SEEKFREE_IPS114_SPI
   *DEL*:           00002CH   BYTE   INSEG    CODE           ?PR?IPS114_WRITEDATAI_16BIT_SIMSPI?SEEKFREE_IPS114_SPI
   *DEL*:           00004EH   BYTE   INSEG    CODE           ?PR?IPS114_SHOWSTR_SIMSPI?SEEKFREE_IPS114_SPI
   *DEL*:           00004EH   BYTE   INSEG    CODE           ?PR?IPS114_SHOWSTR?SEEKFREE_IPS114_SPI
   *DEL*:           000029H   BYTE   INSEG    CODE           ?PR?IPS114_WRITEINDEX_SIMSPI?SEEKFREE_IPS114_SPI
   *DEL*:           000029H   BYTE   INSEG    CODE           ?PR?IPS114_WRITEDATA_SIMSPI?SEEKFREE_IPS114_SPI
L251 LINKER/LOCATER V4.66.93.0                                                        04/16/2023  00:40:21  PAGE 8


   *DEL*:           00000AH   BYTE   INSEG    CODE           ?PR?IPS114_WRITEINDEX?SEEKFREE_IPS114_SPI
   *DEL*:           00000AH   BYTE   INSEG    CODE           ?PR?IPS114_WRITEDATA?SEEKFREE_IPS114_SPI
   *DEL*:           000044H   BYTE   INSEG    CODE           ?PR?IPS114_SET_REGION_SIMSPI?SEEKFREE_IPS114_SPI
   *DEL*:           00014FH   BYTE   INSEG    CODE           ?PR?IPS114_INIT_SIMSPI?SEEKFREE_IPS114_SPI
   *DEL*:           000048H   BYTE   INSEG    CODE           ?PR?IPS114_SET_REGION?SEEKFREE_IPS114_SPI
   *DEL*:           00016DH   BYTE   INSEG    CODE           ?PR?IPS114_INIT?SEEKFREE_IPS114_SPI
   *DEL*:           000004H   BYTE   UNIT     EDATA          ?ED?IPS114_SET_REGION_SIMSPI?SEEKFREE_IPS114_SPI
   *DEL*:           000002H   BYTE   UNIT     EDATA          ?ED?IPS114_CLEAR_SIMSPI?SEEKFREE_IPS114_SPI
   *DEL*:           000004H   BYTE   UNIT     EDATA          ?ED?IPS114_SHOWCHAR_SIMSPI?SEEKFREE_IPS114_SPI
   *DEL*:           000006H   BYTE   UNIT     EDATA          ?ED?IPS114_SHOWSTR_SIMSPI?SEEKFREE_IPS114_SPI
   *DEL*:           000005H   BYTE   UNIT     EDATA          ?ED?IPS114_SHOWINT8_SIMSPI?SEEKFREE_IPS114_SPI
   *DEL*:           000004H   BYTE   UNIT     EDATA          ?ED?IPS114_SHOWUINT8_SIMSPI?SEEKFREE_IPS114_SPI
   *DEL*:           000008H   BYTE   UNIT     EDATA          ?ED?IPS114_SHOWINT16_SIMSPI?SEEKFREE_IPS114_SPI
   *DEL*:           000006H   BYTE   UNIT     EDATA          ?ED?IPS114_SHOWUINT16_SIMSPI?SEEKFREE_IPS114_SPI
   *DEL*:           000028H   BYTE   UNIT     EDATA          ?ED?IPS114_SHOWINT32_SIMSPI?SEEKFREE_IPS114_SPI
   *DEL*:           00002BH   BYTE   UNIT     EDATA          ?ED?IPS114_SHOWFLOAT_SIMSPI?SEEKFREE_IPS114_SPI
   *DEL*:           000002H   BYTE   UNIT     EDATA          ?ED?IPS114_WRITEDATA_16BIT?SEEKFREE_IPS114_SPI
   *DEL*:           000004H   BYTE   UNIT     EDATA          ?ED?IPS114_SET_REGION?SEEKFREE_IPS114_SPI
   *DEL*:           000002H   BYTE   UNIT     EDATA          ?ED?IPS114_CLEAR?SEEKFREE_IPS114_SPI
   *DEL*:           000004H   BYTE   UNIT     EDATA          ?ED?IPS114_SHOWCHAR?SEEKFREE_IPS114_SPI
   *DEL*:           000006H   BYTE   UNIT     EDATA          ?ED?IPS114_SHOWSTR?SEEKFREE_IPS114_SPI
   *DEL*:           000005H   BYTE   UNIT     EDATA          ?ED?IPS114_SHOWINT8?SEEKFREE_IPS114_SPI
   *DEL*:           000004H   BYTE   UNIT     EDATA          ?ED?IPS114_SHOWUINT8?SEEKFREE_IPS114_SPI
   *DEL*:           000008H   BYTE   UNIT     EDATA          ?ED?IPS114_SHOWINT16?SEEKFREE_IPS114_SPI
   *DEL*:           000006H   BYTE   UNIT     EDATA          ?ED?IPS114_SHOWUINT16?SEEKFREE_IPS114_SPI
   *DEL*:           000028H   BYTE   UNIT     EDATA          ?ED?IPS114_SHOWINT32?SEEKFREE_IPS114_SPI
   *DEL*:           00002BH   BYTE   UNIT     EDATA          ?ED?IPS114_SHOWFLOAT?SEEKFREE_IPS114_SPI
   *DEL*:           000055H   BYTE   INSEG    CODE           ?PR?MPU6050_INIT?SEEKFREE_MPU6050
   *DEL*:           00002CH   BYTE   INSEG    CODE           ?PR?MPU6050_SELF1_CHECK?SEEKFREE_MPU6050
   *DEL*:           000044H   BYTE   INSEG    CODE           ?PR?MPU6050_GET_GYRO?SEEKFREE_MPU6050
   *DEL*:           000044H   BYTE   INSEG    CODE           ?PR?MPU6050_GET_ACCDATA?SEEKFREE_MPU6050
   *DEL*:           000006H   BYTE   UNIT     EDATA          ?ED?MPU6050_GET_ACCDATA?SEEKFREE_MPU6050
   *DEL*:           000006H   BYTE   UNIT     EDATA          ?ED?MPU6050_GET_GYRO?SEEKFREE_MPU6050
   *DEL*:           000033H   BYTE   INSEG    CODE           ?PR?OLED_PUTPIXEL?SEEKFREE_OLED
   *DEL*:           000032H   BYTE   INSEG    CODE           ?PR?OLED_HEXASCII_SPI?SEEKFREE_OLED
   *DEL*:           000023H   BYTE   INSEG    CODE           ?PR?OLED_SET_POS?SEEKFREE_OLED
   *DEL*:           000325H   BYTE   INSEG    CODE           ?PR?OLED_DIS_BMP_SPI?SEEKFREE_OLED
   *DEL*:           0000F8H   BYTE   INSEG    CODE           ?PR?OLED_PRINTF_FLOAT?SEEKFREE_OLED
   *DEL*:           0000E8H   BYTE   INSEG    CODE           ?PR?OLED_P8X16STR_SPI?SEEKFREE_OLED
   *DEL*:           00002AH   BYTE   INSEG    CODE           ?PR?OLED_CLRPIXEL_SPI?SEEKFREE_OLED
   *DEL*:           000029H   BYTE   INSEG    CODE           ?PR?OLED_WRCMD?SEEKFREE_OLED
   *DEL*:           000090H   BYTE   INSEG    CODE           ?PR?OLED_PRINT_CHINESE_SPI?SEEKFREE_OLED
   *DEL*:           000029H   BYTE   INSEG    CODE           ?PR?OLED_WRDAT?SEEKFREE_OLED
   *DEL*:           000033H   BYTE   INSEG    CODE           ?PR?OLED_FILL?SEEKFREE_OLED
   *DEL*:           000082H   BYTE   INSEG    CODE           ?PR?OLED_PRINTF_INT32?SEEKFREE_OLED
   *DEL*:           00001DH   BYTE   INSEG    CODE           ?PR?OLED_UINT16?SEEKFREE_OLED
   *DEL*:           000031H   BYTE   INSEG    CODE           ?PR?OLED_PUTPIXEL_SPI?SEEKFREE_OLED
   *DEL*:           000021H   BYTE   INSEG    CODE           ?PR?OLED_SET_POS_SPI?SEEKFREE_OLED
   *DEL*:           0000A9H   BYTE   INSEG    CODE           ?PR?OLED_P6X8STR?SEEKFREE_OLED
   *DEL*:           00004BH   BYTE   INSEG    CODE           ?PR?OLED_INT16?SEEKFREE_OLED
   *DEL*:           0000A3H   BYTE   INSEG    CODE           ?PR?OLED_INIT?SEEKFREE_OLED
   *DEL*:           0000F8H   BYTE   INSEG    CODE           ?PR?OLED_PRINTF_FLOAT_SPI?SEEKFREE_OLED
   *DEL*:           00000AH   BYTE   INSEG    CODE           ?PR?OLED_WRCMD_SPI?SEEKFREE_OLED
   *DEL*:           00000AH   BYTE   INSEG    CODE           ?PR?OLED_WRDAT_SPI?SEEKFREE_OLED
   *DEL*:           000032H   BYTE   INSEG    CODE           ?PR?OLED_HEXASCII?SEEKFREE_OLED
   *DEL*:           000033H   BYTE   INSEG    CODE           ?PR?OLED_FILL_SPI?SEEKFREE_OLED
   *DEL*:           000082H   BYTE   INSEG    CODE           ?PR?OLED_PRINTF_INT32_SPI?SEEKFREE_OLED
   *DEL*:           00001DH   BYTE   INSEG    CODE           ?PR?OLED_UINT16_SPI?SEEKFREE_OLED
   *DEL*:           0000A9H   BYTE   INSEG    CODE           ?PR?OLED_P6X8STR_SPI?SEEKFREE_OLED
   *DEL*:           00004BH   BYTE   INSEG    CODE           ?PR?OLED_INT16_SPI?SEEKFREE_OLED
   *DEL*:           00033BH   BYTE   INSEG    CODE           ?PR?OLED_DIS_BMP?SEEKFREE_OLED
   *DEL*:           0000BFH   BYTE   INSEG    CODE           ?PR?OLED_INIT_SPI?SEEKFREE_OLED
   *DEL*:           0000E8H   BYTE   INSEG    CODE           ?PR?OLED_P8X16STR?SEEKFREE_OLED
   *DEL*:           00002CH   BYTE   INSEG    CODE           ?PR?OLED_CLRPIXEL?SEEKFREE_OLED
   *DEL*:           000090H   BYTE   INSEG    CODE           ?PR?OLED_PRINT_CHINESE?SEEKFREE_OLED
L251 LINKER/LOCATER V4.66.93.0                                                        04/16/2023  00:40:21  PAGE 9


   *DEL*:           000005H   BYTE   UNIT     EDATA          ?ED?OLED_P6X8STR?SEEKFREE_OLED
   *DEL*:           000005H   BYTE   UNIT     EDATA          ?ED?OLED_P8X16STR?SEEKFREE_OLED
   *DEL*:           000007H   BYTE   UNIT     EDATA          ?ED?OLED_UINT16?SEEKFREE_OLED
   *DEL*:           000007H   BYTE   UNIT     EDATA          ?ED?OLED_INT16?SEEKFREE_OLED
   *DEL*:           000028H   BYTE   UNIT     EDATA          ?ED?OLED_PRINTF_INT32?SEEKFREE_OLED
   *DEL*:           00002BH   BYTE   UNIT     EDATA          ?ED?OLED_PRINTF_FLOAT?SEEKFREE_OLED
   *DEL*:           00000CH   BYTE   UNIT     EDATA          ?ED?OLED_DIS_BMP?SEEKFREE_OLED
   *DEL*:           00000AH   BYTE   UNIT     EDATA          ?ED?OLED_PRINT_CHINESE?SEEKFREE_OLED
   *DEL*:           000005H   BYTE   UNIT     EDATA          ?ED?OLED_P6X8STR_SPI?SEEKFREE_OLED
   *DEL*:           000005H   BYTE   UNIT     EDATA          ?ED?OLED_P8X16STR_SPI?SEEKFREE_OLED
   *DEL*:           000007H   BYTE   UNIT     EDATA          ?ED?OLED_UINT16_SPI?SEEKFREE_OLED
   *DEL*:           000007H   BYTE   UNIT     EDATA          ?ED?OLED_INT16_SPI?SEEKFREE_OLED
   *DEL*:           000028H   BYTE   UNIT     EDATA          ?ED?OLED_PRINTF_INT32_SPI?SEEKFREE_OLED
   *DEL*:           00002BH   BYTE   UNIT     EDATA          ?ED?OLED_PRINTF_FLOAT_SPI?SEEKFREE_OLED
   *DEL*:           00000CH   BYTE   UNIT     EDATA          ?ED?OLED_DIS_BMP_SPI?SEEKFREE_OLED
   *DEL*:           00000AH   BYTE   UNIT     EDATA          ?ED?OLED_PRINT_CHINESE_SPI?SEEKFREE_OLED
   *DEL*:           000070H   BYTE   INSEG    CODE           ?PR?CCD_SEND_DATA?SEEKFREE_TSL1401
   *DEL*:           000016H   BYTE   INSEG    CODE           ?PR?CCD_INIT?SEEKFREE_TSL1401
   *DEL*:           000035H   BYTE   INSEG    CODE           ?PR?CCD_COLLECT?SEEKFREE_TSL1401
   *DEL*:           000003H   BYTE   UNIT     EDATA          ?ED?CCD_SEND_DATA?SEEKFREE_TSL1401
   *DEL*:           00003AH   BYTE   INSEG    CODE           ?PR?CRC_CHECK?SEEKFREE_VIRSCO
   *DEL*:           000069H   BYTE   INSEG    CODE           ?PR?DATA_CONVERSION?SEEKFREE_VIRSCO
   *DEL*:           000004H   BYTE   UNIT     EDATA          ?ED?DATA_CONVERSION?SEEKFREE_VIRSCO
   *DEL*:           000022H   BYTE   INSEG    CODE           ?PR?WIRELESS_UART_READ_BUFF?SEEKFREE_WIRELESS
   *DEL*:           00005DH   BYTE   INSEG    CODE           ?PR?WIRELESS_UART_SEND_BUFF?SEEKFREE_WIRELESS
   *DEL*:           00003CH   BYTE   INSEG    CODE           ?PR?WIRELESS_UART_INIT?SEEKFREE_WIRELESS
   *DEL*:           000002H   BYTE   UNIT     EDATA          ?ED?WIRELESS_UART_SEND_BUFF?SEEKFREE_WIRELESS
   *DEL*:           000004H   BYTE   UNIT     EDATA          ?ED?WIRELESS_UART_READ_BUFF?SEEKFREE_WIRELESS
   *DEL*:           00005EH   BYTE   INSEG    CODE           ?PR?AT24C02_READ_BYTES?SEEKFREE_AT24C02
   *DEL*:           000017H   BYTE   INSEG    CODE           ?PR?AT24C02_READ_BYTE?SEEKFREE_AT24C02
   *DEL*:           00005BH   BYTE   INSEG    CODE           ?PR?AT24C02_WRITE_BYTES?SEEKFREE_AT24C02
   *DEL*:           000019H   BYTE   INSEG    CODE           ?PR?AT24C02_WRITE_BYTE?SEEKFREE_AT24C02
   *DEL*:           000002H   BYTE   UNIT     EDATA          ?ED?AT24C02_WRITE_BYTES?SEEKFREE_AT24C02
   *DEL*:           000002H   BYTE   UNIT     EDATA          ?ED?AT24C02_READ_BYTES?SEEKFREE_AT24C02
   *DEL*:           000022H   BYTE   INSEG    CODE           ?PR?BLUETOOTH_CH9141_READ_BUFF?SEEKFREE_BLUETOOTH_CH9141
   *DEL*:           0000ABH   BYTE   INSEG    CODE           ?PR?BLUETOOTH_CH9141_SEND_BUFF?SEEKFREE_BLUETOOTH_CH9141
   *DEL*:           00003CH   BYTE   INSEG    CODE           ?PR?BLUETOOTH_CH9141_INIT?SEEKFREE_BLUETOOTH_CH9141
   *DEL*:           000006H   BYTE   UNIT     EDATA          ?ED?BLUETOOTH_CH9141_SEND_BUFF?SEEKFREE_BLUETOOTH_CH9141
   *DEL*:           000004H   BYTE   UNIT     EDATA          ?ED?BLUETOOTH_CH9141_READ_BUFF?SEEKFREE_BLUETOOTH_CH9141
   *DEL*:           000022H   BYTE   INSEG    CODE           ?PR?WIRELESS_CH573_READ_BUFF?SEEKFREE_WIRELESS_CH573
   *DEL*:           00005DH   BYTE   INSEG    CODE           ?PR?WIRELESS_CH573_SEND_BUFF?SEEKFREE_WIRELESS_CH573
   *DEL*:           00003CH   BYTE   INSEG    CODE           ?PR?WIRELESS_CH573_INIT?SEEKFREE_WIRELESS_CH573
   *DEL*:           000002H   BYTE   UNIT     EDATA          ?ED?WIRELESS_CH573_SEND_BUFF?SEEKFREE_WIRELESS_CH573
   *DEL*:           000004H   BYTE   UNIT     EDATA          ?ED?WIRELESS_CH573_READ_BUFF?SEEKFREE_WIRELESS_CH573



OVERLAY MAP OF MODULE:   .\Out_File\SEEKFREE (board)


FUNCTION/MODULE                               EDATA_GROUP
--> CALLED FUNCTION/MODULE                    START  STOP
=========================================================
UART1_Isr/isr                                 ----- -----

*** NEW ROOT ********************************

UART2_Isr/isr                                 ----- -----

*** NEW ROOT ********************************

UART3_Isr/isr                                 ----- -----

*** NEW ROOT ********************************

L251 LINKER/LOCATER V4.66.93.0                                                        04/16/2023  00:40:21  PAGE 10


UART4_Isr/isr                                 ----- -----
  +--> wireless_uart_callback/SEEKFREE_WIRELESS
  +--> bluetooth_ch9141_uart_callback/SEEKFREE_BLUETOOTH_CH9141
  +--> wireless_ch573_callback/SEEKFREE_WIRELESS_CH573

wireless_uart_callback/SEEKFREE_WIRELESS      ----- -----
  +--> fifo_write_buffer/zf_fifo

fifo_write_buffer/zf_fifo                     02D5H 02E0H
  +--> memcpy?_/memcpy
  +--> fifo_head_offset/zf_fifo

memcpy?_/memcpy                               ----- -----

fifo_head_offset/zf_fifo                      ----- -----

bluetooth_ch9141_uart_callback/SEEKFREE_+     ----- -----
... BLUETOOTH_CH9141
  +--> fifo_write_buffer/zf_fifo

wireless_ch573_callback/SEEKFREE_WIRELES+     ----- -----
... S_CH573
  +--> fifo_write_buffer/zf_fifo

*** NEW ROOT ********************************

INT0_Isr/isr                                  ----- -----

*** NEW ROOT ********************************

INT1_Isr/isr                                  ----- -----

*** NEW ROOT ********************************

INT2_Isr/isr                                  ----- -----

*** NEW ROOT ********************************

INT3_Isr/isr                                  ----- -----

*** NEW ROOT ********************************

INT4_Isr/isr                                  ----- -----

*** NEW ROOT ********************************

TM0_Isr/isr                                   ----- -----

*** NEW ROOT ********************************

TM1_Isr/isr                                   ----- -----

*** NEW ROOT ********************************

TM2_Isr/isr                                   ----- -----

*** NEW ROOT ********************************

TM3_Isr/isr                                   ----- -----

*** NEW ROOT ********************************

TM4_Isr/isr                                   ----- -----

*** NEW ROOT ********************************
L251 LINKER/LOCATER V4.66.93.0                                                        04/16/2023  00:40:21  PAGE 11



?C_C51STARTUP                                 ----- -----

*** NEW ROOT ********************************

?C_C51STARTUP?3                               ----- -----
  +--> main/main

main/main                                     ----- -----
  +--> DisableGlobalIRQ/board
  +--> board_init/board
  +--> vl53l0x_init/SEEKFREE_VL53L0X
  +--> EnableGlobalIRQ/board
  +--> vl53l0x_get_distance/SEEKFREE_VL53L0X
  +--> PRINTF/PRINTF

DisableGlobalIRQ/board                        ----- -----

board_init/board                              ----- -----
  +--> delay_init/zf_delay
  +--> uart_init/zf_uart

delay_init/zf_delay                           ----- -----
  +--> ?C?SLDIV/?C?SLDIV

?C?SLDIV/?C?SLDIV                             ----- -----
  +--> ?C?ULIDIV/?C?ULDIV

?C?ULIDIV/?C?ULDIV                            ----- -----

uart_init/zf_uart                             02E1H 02E6H
  +--> ?C?ULIDIV/?C?ULDIV

vl53l0x_init/SEEKFREE_VL53L0X                 02E1H 02F2H
  +--> memset?_/memset
  +--> delay_ms/zf_delay
  +--> vl53l0x_simiic_read_reg/SEEKFREE_VL53L0X
  +--> vl53l0x_simiic_write_reg/SEEKFREE_VL53L0X
  +--> vl53l0x_simiic_read_regs/SEEKFREE_VL53L0X
  +--> vl53l0x_set_signal_rate_limit/SEEKFREE_VL53L0X
  +--> vl53l0x_get_spad_info/SEEKFREE_VL53L0X
  +--> PRINTF/PRINTF
  +--> vl53l0x_simiic_write_dats/SEEKFREE_VL53L0X
  +--> vl53l0x_get_measurement_timing_budget/SEEKFREE_VL53L0X
  +--> vl53l0x_set_measurement_timing_budget/SEEKFREE_VL53L0X
  +--> vl53l0x_perform_single_ref_calibration/SEEKFREE_VL53L0X

memset?_/memset                               ----- -----

delay_ms/zf_delay                             ----- -----

vl53l0x_simiic_read_reg/SEEKFREE_VL53L0X      ----- -----
  +--> vl53l0x_simiic_start/SEEKFREE_VL53L0X
  +--> vl53l0x_send_ch/SEEKFREE_VL53L0X
  +--> vl53l0x_read_ch/SEEKFREE_VL53L0X
  +--> vl53l0x_simiic_stop/SEEKFREE_VL53L0X

vl53l0x_simiic_start/SEEKFREE_VL53L0X         ----- -----
  +--> vl53l0x_simiic_delay/SEEKFREE_VL53L0X

vl53l0x_simiic_delay/SEEKFREE_VL53L0X         ----- -----

vl53l0x_send_ch/SEEKFREE_VL53L0X              ----- -----
  +--> vl53l0x_simiic_delay/SEEKFREE_VL53L0X
  +--> vl53l0x_sccb_waitack/SEEKFREE_VL53L0X
L251 LINKER/LOCATER V4.66.93.0                                                        04/16/2023  00:40:21  PAGE 12



vl53l0x_sccb_waitack/SEEKFREE_VL53L0X         ----- -----
  +--> vl53l0x_simiic_delay/SEEKFREE_VL53L0X

vl53l0x_read_ch/SEEKFREE_VL53L0X              ----- -----
  +--> vl53l0x_simiic_delay/SEEKFREE_VL53L0X
  +--> vl53l0x_simiic_sendack/SEEKFREE_VL53L0X

vl53l0x_simiic_sendack/SEEKFREE_VL53L0X       ----- -----
  +--> vl53l0x_simiic_delay/SEEKFREE_VL53L0X

vl53l0x_simiic_stop/SEEKFREE_VL53L0X          ----- -----
  +--> vl53l0x_simiic_delay/SEEKFREE_VL53L0X

vl53l0x_simiic_write_reg/SEEKFREE_VL53L0+     ----- -----
... X
  +--> vl53l0x_simiic_start/SEEKFREE_VL53L0X
  +--> vl53l0x_send_ch/SEEKFREE_VL53L0X
  +--> vl53l0x_simiic_stop/SEEKFREE_VL53L0X

vl53l0x_simiic_read_regs/SEEKFREE_VL53L0+     031DH 0322H
... X
  +--> vl53l0x_simiic_start/SEEKFREE_VL53L0X
  +--> vl53l0x_send_ch/SEEKFREE_VL53L0X
  +--> vl53l0x_read_ch/SEEKFREE_VL53L0X
  +--> vl53l0x_simiic_stop/SEEKFREE_VL53L0X

vl53l0x_set_signal_rate_limit/SEEKFREE_V+     02F3H 02F5H
... L53L0X
  +--> vl53l0x_simiic_write_dats/SEEKFREE_VL53L0X

vl53l0x_simiic_write_dats/SEEKFREE_VL53L+     0316H 031AH
... 0X
  +--> vl53l0x_simiic_start/SEEKFREE_VL53L0X
  +--> vl53l0x_send_ch/SEEKFREE_VL53L0X
  +--> vl53l0x_simiic_stop/SEEKFREE_VL53L0X

vl53l0x_get_spad_info/SEEKFREE_VL53L0X        02F3H 02FAH
  +--> vl53l0x_simiic_write_reg/SEEKFREE_VL53L0X
  +--> vl53l0x_simiic_read_regs/SEEKFREE_VL53L0X

PRINTF/PRINTF                                 02F3H 031AH
  +--> OUT/PRINTF

OUT/PRINTF                                    ----- -----
  +--> PUTCH/PRINTF

PUTCH/PRINTF                                  ----- -----
  +--> putchar/board
  +--> OUT/PRINTF

putchar/board                                 ----- -----
  +--> uart_putchar/zf_uart

uart_putchar/zf_uart                          ----- -----

vl53l0x_get_measurement_timing_budget/SE+     02F3H 030DH
... EKFREE_VL53L0X
  +--> vl53l0x_get_sequence_step_enables/SEEKFREE_VL53L0X
  +--> vl53l0x_get_sequence_step_timeouts/SEEKFREE_VL53L0X

vl53l0x_get_sequence_step_enables/SEEKFR+     0316H 0316H
... EE_VL53L0X
  +--> vl53l0x_simiic_read_regs/SEEKFREE_VL53L0X

L251 LINKER/LOCATER V4.66.93.0                                                        04/16/2023  00:40:21  PAGE 13


vl53l0x_get_sequence_step_timeouts/SEEKF+     0316H 031BH
... REE_VL53L0X
  +--> vl53l0x_get_vcsel_pulse_period/SEEKFREE_VL53L0X
  +--> vl53l0x_simiic_read_regs/SEEKFREE_VL53L0X
  +--> vl53l0x_timeout_mclks_to_microseconds/SEEKFREE_VL53L0X
  +--> vl53l0x_decode_timeout/SEEKFREE_VL53L0X

vl53l0x_get_vcsel_pulse_period/SEEKFREE_+     031CH 031CH
... VL53L0X
  +--> vl53l0x_simiic_read_regs/SEEKFREE_VL53L0X

vl53l0x_timeout_mclks_to_microseconds/SE+     ----- -----
... EKFREE_VL53L0X
  +--> ?C?ULIDIV/?C?ULDIV

vl53l0x_decode_timeout/SEEKFREE_VL53L0X       ----- -----

vl53l0x_set_measurement_timing_budget/SE+     02F3H 0315H
... EKFREE_VL53L0X
  +--> vl53l0x_get_sequence_step_enables/SEEKFREE_VL53L0X
  +--> vl53l0x_get_sequence_step_timeouts/SEEKFREE_VL53L0X
  +--> vl53l0x_timeout_microseconds_to_mclks/SEEKFREE_VL53L0X
  +--> vl53l0x_encode_timeout/SEEKFREE_VL53L0X
  +--> vl53l0x_simiic_write_dats/SEEKFREE_VL53L0X

vl53l0x_timeout_microseconds_to_mclks/SE+     ----- -----
... EKFREE_VL53L0X
  +--> ?C?ULIDIV/?C?ULDIV

vl53l0x_encode_timeout/SEEKFREE_VL53L0X       ----- -----

vl53l0x_perform_single_ref_calibration/S+     02F3H 02F5H
... EEKFREE_VL53L0X
  +--> vl53l0x_simiic_write_reg/SEEKFREE_VL53L0X
  +--> vl53l0x_simiic_read_regs/SEEKFREE_VL53L0X

EnableGlobalIRQ/board                         ----- -----

vl53l0x_get_distance/SEEKFREE_VL53L0X         02E1H 02E3H
  +--> vl53l0x_simiic_read_regs_1/SEEKFREE_VL53L0X
  +--> vl53l0x_simiic_write_reg/SEEKFREE_VL53L0X

vl53l0x_simiic_read_regs_1/SEEKFREE_VL53+     02E4H 02E9H
... L0X
  +--> vl53l0x_simiic_start/SEEKFREE_VL53L0X
  +--> vl53l0x_send_ch/SEEKFREE_VL53L0X
  +--> vl53l0x_read_ch/SEEKFREE_VL53L0X
  +--> vl53l0x_simiic_stop/SEEKFREE_VL53L0X

*** NEW ROOT ********************************

?C_C51STARTUP?2                               ----- -----



PUBLIC SYMBOLS OF MODULE:  .\Out_File\SEEKFREE (board)


      VALUE       CLASS    TYPE      PUBLIC SYMBOL NAME
      =================================================
      00FF1110H   CODE     NEAR LAB  ?C?CASTF
      000000FFH   NUMBER   ---       ?C?CODESEG
      00FF10DDH   CODE     NEAR LAB  ?C?FCASTC
      00FF10D8H   CODE     NEAR LAB  ?C?FCASTI
      00FF10D3H   CODE     NEAR LAB  ?C?FCASTL
L251 LINKER/LOCATER V4.66.93.0                                                        04/16/2023  00:40:21  PAGE 14


      00FF0EB4H   CODE     ---       ?C?FPADD
      00FF108FH   CODE     ---       ?C?FPCMP
      00FF108DH   CODE     ---       ?C?FPCMP3
      00FF1614H   CODE     ---       ?C?FPCONVERT
      00FF100CH   CODE     ---       ?C?FPDIV
      00FF1179H   CODE     ---       ?C?FPGETOPN2
      00FF0F6CH   CODE     ---       ?C?FPMUL
      00FF11B6H   CODE     ---       ?C?FPNANRESULT
      00FF11BEH   CODE     ---       ?C?FPOVERFLOW
      00FF1192H   CODE     ---       ?C?FPRESULT
      00FF11A8H   CODE     ---       ?C?FPRESULT2
      00FF16CCH   CODE     ---       ?C?FPROUND
      00FF0EB1H   CODE     ---       ?C?FPSUB
      00FF11BBH   CODE     ---       ?C?FPUNDERFLOW
      00FF173FH   CODE     ---       ?C?FTNPWR
      00FF2865H   CODE     ---       ?C?INITEDATA
      00FF2CCBH   HCONST   WORD      ?C?INITEDATA_END
      00FF17B9H   CODE     ---       ?C?LIMUL
      00FF17A8H   CODE     ---       ?C?LMUL
      00FF11F7H   CODE     ---       ?C?PRNFMT
      00FF1776H   CODE     ---       ?C?SIDIV
      00FF1815H   CODE     NEAR LAB  ?C?SLDIV
      00FF0000H   CODE     ---       ?C?STARTUP
      00FF17C4H   CODE     NEAR LAB  ?C?ULDIV
      00FF17C2H   CODE     NEAR LAB  ?C?ULIDIV
      00000001H   NUMBER   ---       ?C?XDATASEG
      00FF0000H   CODE     ---       ?C_STARTUP
*DEL*:1FFFFFF8H   EDATA    BYTE      ?data_conversion?BYTE
*DEL*:1FFFFFF8H   EDATA    BYTE      ?fifo_init?BYTE
*DEL*:1FFFFFFCH   EDATA    BYTE      ?fifo_read_buffer?BYTE
      000002D1H   EDATA    BYTE      ?fifo_write_buffer?BYTE
*DEL*:1FFFFFFAH   EDATA    BYTE      ?iic_init?BYTE
*DEL*:1FFFFFFCH   EDATA    BYTE      ?ips114_showfloat?BYTE
*DEL*:1FFFFFFCH   EDATA    BYTE      ?ips114_showfloat_simspi?BYTE
*DEL*:1FFFFFFCH   EDATA    BYTE      ?lcd_showfloat?BYTE
*DEL*:1FFFFFFCH   EDATA    BYTE      ?lcd_showfloat_simspi?BYTE
*DEL*:1FFFFFF7H   EDATA    BYTE      ?number_conversion_ascii?BYTE
*DEL*:1FFFFFFCH   EDATA    BYTE      ?oled_printf_float?BYTE
*DEL*:1FFFFFFCH   EDATA    BYTE      ?oled_printf_float_spi?BYTE
      0000031BH   EDATA    ---       ?printf?BYTE
*DEL*:1FFFFFFAH   EDATA    BYTE      ?pwm_freq?BYTE
*DEL*:1FFFFFFEH   EDATA    BYTE      ?pwm_init?BYTE
*DEL*:1FFFFFF7H   EDATA    BYTE      ?spi_init?BYTE
      000002DBH   EDATA    BYTE      ?uart_init?BYTE
*DEL*:00000028H   EDATA    BYTE      ?zf_sprintf?BYTE
*SFR* 000000BCH   DATA     BYTE      ADC_CONTR
*DEL*:00000000H   CODE     ---       adc_init
*DEL*:00000000H   CODE     ---       adc_once
*SFR* 000000BDH   DATA     BYTE      ADC_RES
*SFR* 000000BEH   DATA     BYTE      ADC_RESL
*SFR* 000000DEH   DATA     BYTE      ADCCFG
*DEL*:00000000H   CODE     ---       at24c02_read_byte
*DEL*:00000000H   CODE     ---       at24c02_read_bytes
*DEL*:00000000H   CODE     ---       at24c02_write_byte
*DEL*:00000000H   CODE     ---       at24c02_write_bytes
*SFR* 000000EFH   DATA     BYTE      AUXINTIF
*SFR* 0000008EH   DATA     BYTE      AUXR
*DEL*:00000000H   CODE     ---       bluetooth_ch9141_init
*DEL*:00000000H   CODE     ---       bluetooth_ch9141_read_buff
*DEL*:00000000H   CODE     ---       bluetooth_ch9141_send_buff
      00FF2B95H   CODE     ---       bluetooth_ch9141_uart_callback
      00FF243EH   CODE     ---       board_init
      000001D1H   EDATA    ---       busy
*DEL*:00000000H   CODE     ---       ccd_collect
      00000009H   EDATA    ---       ccd_data
L251 LINKER/LOCATER V4.66.93.0                                                        04/16/2023  00:40:21  PAGE 15


*DEL*:00000000H   CODE     ---       ccd_init
*DEL*:00000000H   CODE     ---       ccd_send_data
*DEL*:00000000H   CODE     ---       CRC_CHECK
*DEL*:00000000H   CODE     ---       ctimer_count_clean
*DEL*:00000000H   CODE     ---       ctimer_count_init
*DEL*:00000000H   CODE     ---       ctimer_count_read
*DEL*:00000000H   CODE     ---       data_conversion
      00FF2983H   CODE     ---       delay_init
      00FF2BC7H   CODE     ---       delay_ms
*DEL*:00000000H   CODE     ---       delay_us
      00FF000EH   CODE     ---       DisableGlobalIRQ
*SFR* 000000A8H.7 DATA     BIT       EA
*DEL*:00000000H   CODE     ---       eeprom_trig
      00FF0006H   CODE     ---       EnableGlobalIRQ
*DEL*:00000000H   CODE     ---       encoder_angle_simspi
*DEL*:00000000H   CODE     ---       encoder_angle_spi
*DEL*:00000000H   CODE     ---       encoder_delay_us
*DEL*:00000000H   CODE     ---       encoder_init_simspi
*DEL*:00000000H   CODE     ---       encoder_init_spi
*DEL*:00000000H   CODE     ---       encoder_self4_check
*DEL*:00000000H   CODE     ---       encoder_self5_check
*DEL*:00000000H   CODE     ---       encoder_simspi_r_reg_byte
*DEL*:00000000H   CODE     ---       encoder_simspi_w_reg_byte
*DEL*:00000000H   CODE     ---       encoder_spi_r_reg_byte
*DEL*:00000000H   CODE     ---       encoder_spi_w_reg_byte
*SFR* 000000A8H.4 DATA     BIT       ES
*SFR* 000000A8H.1 DATA     BIT       ET0
*SFR* 000000A8H.3 DATA     BIT       ET1
*SFR* 000000A8H.0 DATA     BIT       EX0
*SFR* 000000A8H.2 DATA     BIT       EX1
*DEL*:00000000H   CODE     ---       exit_init
*DEL*:00000000H   CODE     ---       extern_iap_write_bytes
*SFR* 000000D0H.5 DATA     BIT       F0
*DEL*:00000000H   CODE     ---       fifo_clear
*DEL*:00000000H   CODE     ---       fifo_end_offset
      00FF2810H   CODE     ---       fifo_head_offset
*DEL*:00000000H   CODE     ---       fifo_init
*DEL*:00000000H   CODE     ---       fifo_read_buffer
*DEL*:00000000H   CODE     ---       fifo_used
      00FF2283H   CODE     ---       fifo_write_buffer
*DEL*:00000000H   CODE     ---       get_icm20602_accdata_simiic
*DEL*:00000000H   CODE     ---       get_icm20602_accdata_simspi
*DEL*:00000000H   CODE     ---       get_icm20602_gyro_simiic
*DEL*:00000000H   CODE     ---       get_icm20602_gyro_simspi
*DEL*:00000000H   CODE     ---       gpio_mode
*DEL*:00000000H   CODE     ---       gpio_pull_set
      00000359H   EDATA    INT       i
*SFR* 000000F6H   DATA     BYTE      IAP_ADDRE
*SFR* 000000C3H   DATA     BYTE      IAP_ADDRH
*SFR* 000000C4H   DATA     BYTE      IAP_ADDRL
*SFR* 000000C5H   DATA     BYTE      IAP_CMD
*SFR* 000000C7H   DATA     BYTE      IAP_CONTR
*SFR* 000000C2H   DATA     BYTE      IAP_DATA
*DEL*:00000000H   CODE     ---       iap_erase_page
*DEL*:00000000H   CODE     ---       iap_get_cmd_state
*DEL*:00000000H   CODE     ---       iap_idle
*DEL*:00000000H   CODE     ---       iap_init
*DEL*:00000000H   CODE     ---       iap_read_bytes
*DEL*:00000000H   CODE     ---       iap_set_tps
*SFR* 000000F5H   DATA     BYTE      IAP_TPS
*SFR* 000000C6H   DATA     BYTE      IAP_TRIG
*DEL*:00000000H   CODE     ---       iap_write_bytes
*DEL*:00000000H   CODE     ---       icm20602_init_simiic
*DEL*:00000000H   CODE     ---       icm20602_init_simspi
*DEL*:00000000H   CODE     ---       icm20602_self1_check
L251 LINKER/LOCATER V4.66.93.0                                                        04/16/2023  00:40:21  PAGE 16


*DEL*:00000000H   CODE     ---       icm20602_self4_check
      00000323H   EDATA    INT       icm_acc_x
      00000325H   EDATA    INT       icm_acc_y
      00000327H   EDATA    INT       icm_acc_z
      00000329H   EDATA    INT       icm_gyro_x
      0000032BH   EDATA    INT       icm_gyro_y
      0000032DH   EDATA    INT       icm_gyro_z
*DEL*:00000000H   CODE     ---       icm_simspi_r_reg_byte
*DEL*:00000000H   CODE     ---       icm_simspi_r_reg_bytes
*DEL*:00000000H   CODE     ---       icm_simspi_w_reg_byte
*DEL*:00000000H   CODE     ---       icm_simspi_wr_byte
*SFR* 000000A8H   DATA     BYTE      IE
*SFR* 000000AFH   DATA     BYTE      IE2
      00000345H   EDATA    BYTE      IIC_ad_main
      00000347H   EDATA    BYTE      IIC_ad_sub
      00000348H   EDATA    ---       IIC_buf
*DEL*:00000000H   CODE     ---       iic_change_pin
*DEL*:00000000H   CODE     ---       iic_delay_us
*DEL*:00000000H   CODE     ---       iic_init
      00000346H   EDATA    BYTE      IIC_num
*DEL*:00000000H   CODE     ---       iic_read_reg
*DEL*:00000000H   CODE     ---       iic_read_reg_bytes
*DEL*:00000000H   CODE     ---       iic_write_reg
      00FF2C4CH   CODE     ---       INT0_Isr
      00FF0009H   CODE     ---       INT1_Isr
      00FF2C1CH   CODE     ---       INT2_Isr
      00FF2C24H   CODE     ---       INT3_Isr
      00FF2C2CH   CODE     ---       INT4_Isr
*SFR* 0000008FH   DATA     BYTE      INTCLKO
*SFR* 000000B8H   DATA     BYTE      IP
*SFR* 000000B5H   DATA     BYTE      IP2
*SFR* 000000B6H   DATA     BYTE      IP2H
*SFR* 000000B7H   DATA     BYTE      IPH
*DEL*:00000000H   CODE     ---       ips114_clear
*DEL*:00000000H   CODE     ---       ips114_clear_simspi
*DEL*:00000000H   CODE     ---       ips114_drawpoint
*DEL*:00000000H   CODE     ---       ips114_drawpoint_simspi
*DEL*:00000000H   CODE     ---       ips114_init
*DEL*:00000000H   CODE     ---       ips114_init_simspi
*DEL*:00000000H   CODE     ---       ips114_set_region
*DEL*:00000000H   CODE     ---       ips114_set_region_simspi
*DEL*:00000000H   CODE     ---       ips114_showchar
*DEL*:00000000H   CODE     ---       ips114_showchar_simspi
*DEL*:00000000H   CODE     ---       ips114_showfloat
*DEL*:00000000H   CODE     ---       ips114_showfloat_simspi
*DEL*:00000000H   CODE     ---       ips114_showint16
*DEL*:00000000H   CODE     ---       ips114_showint16_simspi
*DEL*:00000000H   CODE     ---       ips114_showint32
*DEL*:00000000H   CODE     ---       ips114_showint32_simspi
*DEL*:00000000H   CODE     ---       ips114_showint8
*DEL*:00000000H   CODE     ---       ips114_showint8_simspi
*DEL*:00000000H   CODE     ---       ips114_showstr
*DEL*:00000000H   CODE     ---       ips114_showstr_simspi
*DEL*:00000000H   CODE     ---       ips114_showuint16
*DEL*:00000000H   CODE     ---       ips114_showuint16_simspi
*DEL*:00000000H   CODE     ---       ips114_showuint8
*DEL*:00000000H   CODE     ---       ips114_showuint8_simspi
*DEL*:00000000H   CODE     ---       ips114_writeData
*DEL*:00000000H   CODE     ---       ips114_writedata_16bit
*DEL*:00000000H   CODE     ---       ips114_writeData_simspi
*DEL*:00000000H   CODE     ---       ips114_writeDatai_16bit_simspi
*DEL*:00000000H   CODE     ---       ips114_writeIndex
*DEL*:00000000H   CODE     ---       ips114_writeIndex_simspi
*SFR* 00000088H.0 DATA     BIT       IT0
*SFR* 00000088H.2 DATA     BIT       IT1
L251 LINKER/LOCATER V4.66.93.0                                                        04/16/2023  00:40:21  PAGE 17


*DEL*:00000000H   CODE     ---       lcd_clear
*DEL*:00000000H   CODE     ---       lcd_clear_simspi
*DEL*:00000000H   CODE     ---       lcd_drawpoint
*DEL*:00000000H   CODE     ---       lcd_drawpoint_simspi
*DEL*:00000000H   CODE     ---       lcd_init
*DEL*:00000000H   CODE     ---       lcd_init_simspi
*DEL*:00000000H   CODE     ---       lcd_set_region
*DEL*:00000000H   CODE     ---       lcd_set_region_simspi
*DEL*:00000000H   CODE     ---       lcd_showchar
*DEL*:00000000H   CODE     ---       lcd_showchar_simspi
*DEL*:00000000H   CODE     ---       lcd_showfloat
*DEL*:00000000H   CODE     ---       lcd_showfloat_simspi
*DEL*:00000000H   CODE     ---       lcd_showint16
*DEL*:00000000H   CODE     ---       lcd_showint16_simspi
*DEL*:00000000H   CODE     ---       lcd_showint32
*DEL*:00000000H   CODE     ---       lcd_showint32_simspi
*DEL*:00000000H   CODE     ---       lcd_showint8
*DEL*:00000000H   CODE     ---       lcd_showint8_simspi
*DEL*:00000000H   CODE     ---       lcd_showstr
*DEL*:00000000H   CODE     ---       lcd_showstr_simspi
*DEL*:00000000H   CODE     ---       lcd_showuint16
*DEL*:00000000H   CODE     ---       lcd_showuint16_simspi
*DEL*:00000000H   CODE     ---       lcd_showuint8
*DEL*:00000000H   CODE     ---       lcd_showuint8_simspi
*DEL*:00000000H   CODE     ---       lcd_writeData
*DEL*:00000000H   CODE     ---       lcd_writedata_16bit
*DEL*:00000000H   CODE     ---       lcd_writeData_16bit_simspi
*DEL*:00000000H   CODE     ---       lcd_writeData_simspi
*DEL*:00000000H   CODE     ---       lcd_writeIndex
*DEL*:00000000H   CODE     ---       lcd_writeIndex_simspi
      00FF29BCH   CODE     ---       main
      00FF2AD9H   CODE     ---       memcpy?_
      00FF0066H   CODE     ---       memset?_
*DEL*:00000000H   CODE     ---       mpu6050_get_accdata
*DEL*:00000000H   CODE     ---       mpu6050_get_gyro
*DEL*:00000000H   CODE     ---       mpu6050_init
*DEL*:00000000H   CODE     ---       mpu6050_self1_check
      0000032FH   EDATA    INT       mpu_acc_x
      00000331H   EDATA    INT       mpu_acc_y
      00000333H   EDATA    INT       mpu_acc_z
      00000335H   EDATA    INT       mpu_gyro_x
      00000337H   EDATA    INT       mpu_gyro_y
      00000339H   EDATA    INT       mpu_gyro_z
*DEL*:00000000H   CODE     ---       number_conversion_ascii
*DEL*:00000000H   CODE     ---       NVIC_SetPriority
      00FF0C86H   CODE     ---       oled_6x8
      00FF00A6H   CODE     ---       oled_8x16
*DEL*:00000000H   CODE     ---       oled_clrpixel
*DEL*:00000000H   CODE     ---       oled_clrpixel_spi
*DEL*:00000000H   CODE     ---       oled_dis_bmp
*DEL*:00000000H   CODE     ---       oled_dis_bmp_spi
*DEL*:00000000H   CODE     ---       oled_fill
*DEL*:00000000H   CODE     ---       oled_fill_spi
*DEL*:00000000H   CODE     ---       oled_hexascii
*DEL*:00000000H   CODE     ---       oled_hexascii_spi
*DEL*:00000000H   CODE     ---       oled_init
*DEL*:00000000H   CODE     ---       oled_init_spi
*DEL*:00000000H   CODE     ---       oled_int16
*DEL*:00000000H   CODE     ---       oled_int16_spi
*DEL*:00000000H   CODE     ---       oled_p6x8str
*DEL*:00000000H   CODE     ---       oled_p6x8str_spi
*DEL*:00000000H   CODE     ---       oled_p8x16str
*DEL*:00000000H   CODE     ---       oled_p8x16str_spi
*DEL*:00000000H   CODE     ---       oled_print_chinese
*DEL*:00000000H   CODE     ---       oled_print_chinese_spi
L251 LINKER/LOCATER V4.66.93.0                                                        04/16/2023  00:40:21  PAGE 18


*DEL*:00000000H   CODE     ---       oled_printf_float
*DEL*:00000000H   CODE     ---       oled_printf_float_spi
*DEL*:00000000H   CODE     ---       oled_printf_int32
*DEL*:00000000H   CODE     ---       oled_printf_int32_spi
*DEL*:00000000H   CODE     ---       oled_putpixel
*DEL*:00000000H   CODE     ---       oled_putpixel_spi
*DEL*:00000000H   CODE     ---       oled_set_pos
*DEL*:00000000H   CODE     ---       oled_set_pos_spi
*DEL*:00000000H   CODE     ---       oled_uint16
*DEL*:00000000H   CODE     ---       oled_uint16_spi
*DEL*:00000000H   CODE     ---       oled_wrcmd
*DEL*:00000000H   CODE     ---       oled_wrcmd_spi
*DEL*:00000000H   CODE     ---       oled_wrdat
*DEL*:00000000H   CODE     ---       oled_wrdat_spi
*SFR* 00000080H   DATA     BYTE      P0
*SFR* 00000080H.7 DATA     BIT       P07
*SFR* 00000094H   DATA     BYTE      P0M0
*SFR* 00000093H   DATA     BYTE      P0M1
*SFR* 00000090H   DATA     BYTE      P1
*SFR* 00000092H   DATA     BYTE      P1M0
*SFR* 00000091H   DATA     BYTE      P1M1
*SFR* 000000A0H   DATA     BYTE      P2
*SFR* 000000A0H.0 DATA     BIT       P20
*SFR* 000000A0H.1 DATA     BIT       P21
*SFR* 000000A0H.2 DATA     BIT       P22
*SFR* 000000A0H.3 DATA     BIT       P23
*SFR* 000000A0H.4 DATA     BIT       P24
*SFR* 000000A0H.5 DATA     BIT       P25
*SFR* 000000A0H.6 DATA     BIT       P26
*SFR* 000000A0H.7 DATA     BIT       P27
*SFR* 00000096H   DATA     BYTE      P2M0
*SFR* 00000095H   DATA     BYTE      P2M1
*SFR* 000000B0H   DATA     BYTE      P3
*SFR* 000000B0H.2 DATA     BIT       P32
*SFR* 000000B0H.3 DATA     BIT       P33
*SFR* 000000B2H   DATA     BYTE      P3M0
*SFR* 000000B1H   DATA     BYTE      P3M1
*SFR* 000000C0H   DATA     BYTE      P4
*SFR* 000000C0H.0 DATA     BIT       P40
*SFR* 000000C0H.1 DATA     BIT       P41
*SFR* 000000C0H.2 DATA     BIT       P42
*SFR* 000000C0H.3 DATA     BIT       P43
*SFR* 000000C0H.7 DATA     BIT       P47
*SFR* 000000B4H   DATA     BYTE      P4M0
*SFR* 000000B3H   DATA     BYTE      P4M1
*SFR* 000000C8H   DATA     BYTE      P5
*SFR* 000000C8H.2 DATA     BIT       P52
*SFR* 000000C8H.3 DATA     BIT       P53
*SFR* 000000CAH   DATA     BYTE      P5M0
*SFR* 000000C9H   DATA     BYTE      P5M1
*SFR* 000000E8H   DATA     BYTE      P6
*SFR* 000000CCH   DATA     BYTE      P6M0
*SFR* 000000CBH   DATA     BYTE      P6M1
*SFR* 000000F8H   DATA     BYTE      P7
*SFR* 000000E2H   DATA     BYTE      P7M0
*SFR* 000000E1H   DATA     BYTE      P7M1
*SFR* 000000A2H   DATA     BYTE      P_SW1
*SFR* 000000BAH   DATA     BYTE      P_SW2
*DEL*:00000000H   CODE     ---       pit_timer_ms
      00FF114DH   CODE     NEAR LAB  printf
*DEL*:00000000H   CODE     ---       printf_reverse_order
*SFR* 000000D0H   DATA     BYTE      PSW
      00FF2C0EH   CODE     ---       putchar
      00FF2C73H   HCONST   ---       PWM_ARR_ADDR
      00FF2C7BH   HCONST   ---       PWM_CCER_ADDR
L251 LINKER/LOCATER V4.66.93.0                                                        04/16/2023  00:40:21  PAGE 19


      00FF2C8BH   HCONST   ---       PWM_CCMR_ADDR
      00FF2C53H   HCONST   ---       PWM_CCR_ADDR
*DEL*:00000000H   CODE     ---       pwm_duty
*DEL*:00000000H   CODE     ---       pwm_freq
*DEL*:00000000H   CODE     ---       pwm_init
*DEL*:00000000H   CODE     ---       pwm_set_gpio
*DEL*:00000000H   CODE     ---       read_ch
*DEL*:00000000H   CODE     ---       recv_ack
*DEL*:00000000H   CODE     ---       recv_data
*SFR* 000000FFH   DATA     BYTE      RSTCFG
*SFR* 0000009BH   DATA     BYTE      S2BUF
*SFR* 0000009AH   DATA     BYTE      S2CON
*SFR* 000000ADH   DATA     BYTE      S3BUF
*SFR* 000000ACH   DATA     BYTE      S3CON
*SFR* 000000FEH   DATA     BYTE      S4BUF
*SFR* 000000FDH   DATA     BYTE      S4CON
*SFR* 00000099H   DATA     BYTE      SBUF
*SFR* 00000098H   DATA     BYTE      SCON
*DEL*:00000000H   CODE     ---       send_ack
*DEL*:00000000H   CODE     ---       send_ch
*DEL*:00000000H   CODE     ---       send_data
*DEL*:00000000H   CODE     ---       send_nak
*DEL*:00000000H   CODE     ---       set_zero_position_simspi
*DEL*:00000000H   CODE     ---       set_zero_position_spi
*DEL*:00000000H   CODE     ---       showimage
*DEL*:00000000H   CODE     ---       simiic_delay
*DEL*:00000000H   CODE     ---       simiic_init
*DEL*:00000000H   CODE     ---       simiic_read_reg
*DEL*:00000000H   CODE     ---       simiic_read_regs
*DEL*:00000000H   CODE     ---       simiic_sendack
*DEL*:00000000H   CODE     ---       simiic_start
*DEL*:00000000H   CODE     ---       simiic_stop
*DEL*:00000000H   CODE     ---       simiic_write_reg
*DEL*:00000000H   CODE     ---       simspi_r_reg_byte
*DEL*:00000000H   CODE     ---       simspi_w_reg_byte
*DEL*:00000000H   CODE     ---       simspi_wr_byte
*SFR* 000000CEH   DATA     BYTE      SPCTL
*SFR* 000000CFH   DATA     BYTE      SPDAT
*DEL*:00000000H   CODE     ---       spi_change_mode
*DEL*:00000000H   CODE     ---       spi_change_pin
*DEL*:00000000H   CODE     ---       spi_init
*DEL*:00000000H   CODE     ---       spi_mosi
*DEL*:00000000H   CODE     ---       spi_r_reg_byte
*DEL*:00000000H   CODE     ---       spi_w_reg_byte
*DEL*:00000000H   CODE     ---       spi_wr_byte
*SFR* 000000CDH   DATA     BYTE      SPSTAT
*DEL*:00000000H   CODE     ---       start
*DEL*:00000000H   CODE     ---       stop
      0000034CH   EDATA    LONG      sys_clk
*SFR* 000000D6H   DATA     BYTE      T2H
*SFR* 000000D7H   DATA     BYTE      T2L
*SFR* 000000D4H   DATA     BYTE      T3H
*SFR* 000000D5H   DATA     BYTE      T3L
*SFR* 000000D2H   DATA     BYTE      T4H
*SFR* 000000D3H   DATA     BYTE      T4L
*SFR* 000000DDH   DATA     BYTE      T4T3M
*SFR* 00000088H   DATA     BYTE      TCON
      00FF0696H   CODE     ---       tft_ascii
*SFR* 0000008CH   DATA     BYTE      TH0
*SFR* 0000008DH   DATA     BYTE      TH1
*SFR* 0000008AH   DATA     BYTE      TL0
*SFR* 0000008BH   DATA     BYTE      TL1
      00FF000AH   CODE     ---       TM0_Isr
      00FF0011H   CODE     ---       TM1_Isr
      00FF2C34H   CODE     ---       TM2_Isr
L251 LINKER/LOCATER V4.66.93.0                                                        04/16/2023  00:40:21  PAGE 20


      00FF2C3CH   CODE     ---       TM3_Isr
      00FF2C44H   CODE     ---       TM4_Isr
*SFR* 00000089H   DATA     BYTE      TMOD
*SFR* 00000088H.4 DATA     BIT       TR0
*SFR* 00000088H.6 DATA     BIT       TR1
      00000008H   EDATA    BYTE      tsl1401_finish_flag
      00FF28CFH   CODE     ---       UART1_Isr
      00000109H   EDATA    ---       uart1_rx_buff
      0000016DH   EDATA    ---       uart1_tx_buff
      00FF2B40H   CODE     ---       UART2_Isr
      00FF2B5EH   CODE     ---       UART3_Isr
      00FF25A9H   CODE     ---       UART4_Isr
      00FF1E64H   CODE     ---       uart_init
*DEL*:00000000H   CODE     ---       uart_putbuff
      00FF26C7H   CODE     ---       uart_putchar
*DEL*:00000000H   CODE     ---       uart_putstr
      0000033BH   EDATA    ---       virtual_scope_data
      00000354H   EDATA    WORD      vl53l0x_distance_mm
      00000356H   EDATA    BYTE      vl53l0x_finsh_flag
      00FF2612H   CODE     ---       vl53l0x_get_distance
      00FF1849H   CODE     ---       vl53l0x_init
*DEL*:00000000H   CODE     ---       wait
      00FF2BAEH   CODE     ---       wireless_ch573_callback
*DEL*:00000000H   CODE     ---       wireless_ch573_init
*DEL*:00000000H   CODE     ---       wireless_ch573_read_buff
*DEL*:00000000H   CODE     ---       wireless_ch573_send_buff
      00000357H   EDATA    INT       wireless_type
      00FF2B7CH   CODE     ---       wireless_uart_callback
*DEL*:00000000H   CODE     ---       wireless_uart_init
*DEL*:00000000H   CODE     ---       wireless_uart_read_buff
*DEL*:00000000H   CODE     ---       wireless_uart_send_buff
*SFR* 000000E9H   DATA     BYTE      WTST
      00000350H   EDATA    WORD      zf_delay_ms
      00000352H   EDATA    WORD      zf_delay_us
*DEL*:00000000H   CODE     ---       zf_sprintf



SYMBOL TABLE OF MODULE:  .\Out_File\SEEKFREE (board)

      VALUE       REP       CLASS    TYPE      SYMBOL NAME
      ====================================================
      ---         MODULE    ---      ---       board
      00FF0006H   PUBLIC    CODE     ---       EnableGlobalIRQ
      00FF243EH   PUBLIC    CODE     ---       board_init
      00FF000EH   PUBLIC    CODE     ---       DisableGlobalIRQ
      00FF2C0EH   PUBLIC    CODE     ---       putchar
      0000034CH   PUBLIC    EDATA    LONG      sys_clk
      00000094H   SFRSYM    DATA     BYTE      P0M0
      000000D0H   SFRSYM    DATA     BYTE      PSW
      000000FDH   SFRSYM    DATA     BYTE      S4CON
      000000ACH   SFRSYM    DATA     BYTE      S3CON
      0000009AH   SFRSYM    DATA     BYTE      S2CON
      000000E9H   SFRSYM    DATA     BYTE      WTST
      000000FFH   SFRSYM    DATA     BYTE      RSTCFG
      0000008EH   SFRSYM    DATA     BYTE      AUXR
      000000AFH   SFRSYM    DATA     BYTE      IE2
      00000088H   SFRSYM    DATA     BYTE      TCON
      00000089H   SFRSYM    DATA     BYTE      TMOD
      00000098H   SFRSYM    DATA     BYTE      SCON
      000000DEH   SFRSYM    DATA     BYTE      ADCCFG
      000000B8H   SFRSYM    DATA     BYTE      IP
      000000A8H   SFRSYM    DATA     BYTE      IE
      000000BAH   SFRSYM    DATA     BYTE      P_SW2
      000000A2H   SFRSYM    DATA     BYTE      P_SW1
L251 LINKER/LOCATER V4.66.93.0                                                        04/16/2023  00:40:21  PAGE 21


      000000F8H   SFRSYM    DATA     BYTE      P7
      000000A8H.7 SFRSYM    DATA     BIT       EA
      000000E1H   SFRSYM    DATA     BYTE      P7M1
      000000E8H   SFRSYM    DATA     BYTE      P6
      000000C8H   SFRSYM    DATA     BYTE      P5
      000000CBH   SFRSYM    DATA     BYTE      P6M1
      000000E2H   SFRSYM    DATA     BYTE      P7M0
      000000C0H   SFRSYM    DATA     BYTE      P4
      000000C9H   SFRSYM    DATA     BYTE      P5M1
      000000CCH   SFRSYM    DATA     BYTE      P6M0
      000000B0H   SFRSYM    DATA     BYTE      P3
      000000B3H   SFRSYM    DATA     BYTE      P4M1
      000000CAH   SFRSYM    DATA     BYTE      P5M0
      000000A0H   SFRSYM    DATA     BYTE      P2
      000000B1H   SFRSYM    DATA     BYTE      P3M1
      000000B4H   SFRSYM    DATA     BYTE      P4M0
      00000090H   SFRSYM    DATA     BYTE      P1
      00000095H   SFRSYM    DATA     BYTE      P2M1
      000000B2H   SFRSYM    DATA     BYTE      P3M0
      00000080H   SFRSYM    DATA     BYTE      P0
      00000091H   SFRSYM    DATA     BYTE      P1M1
      00000096H   SFRSYM    DATA     BYTE      P2M0
      00000092H   SFRSYM    DATA     BYTE      P1M0
      00000093H   SFRSYM    DATA     BYTE      P0M1

      00FF243EH   BLOCK     CODE     ---       LVL=0
      00FF243EH   LINE      CODE     ---       #177
      00FF243EH   LINE      CODE     ---       #179
      00FF2441H   LINE      CODE     ---       #197
      00FF2444H   LINE      CODE     ---       #199
      00FF2447H   LINE      CODE     ---       #200
      00FF244AH   LINE      CODE     ---       #201
      00FF2456H   LINE      CODE     ---       #203
      00FF2459H   LINE      CODE     ---       #204
      00FF245CH   LINE      CODE     ---       #205
      00FF245FH   LINE      CODE     ---       #206
      00FF2462H   LINE      CODE     ---       #207
      00FF2465H   LINE      CODE     ---       #208
      00FF2468H   LINE      CODE     ---       #209
      00FF246BH   LINE      CODE     ---       #210
      00FF246EH   LINE      CODE     ---       #211
      00FF2471H   LINE      CODE     ---       #212
      00FF2474H   LINE      CODE     ---       #213
      00FF2477H   LINE      CODE     ---       #214
      00FF247AH   LINE      CODE     ---       #215
      00FF247DH   LINE      CODE     ---       #216
      00FF2480H   LINE      CODE     ---       #217
      00FF2483H   LINE      CODE     ---       #218
      00FF2486H   LINE      CODE     ---       #220
      00FF2489H   LINE      CODE     ---       #221
      00FF248CH   LINE      CODE     ---       #222
      00FF248FH   LINE      CODE     ---       #223
      00FF2492H   LINE      CODE     ---       #224
      00FF2495H   LINE      CODE     ---       #225
      00FF2498H   LINE      CODE     ---       #226
      00FF249BH   LINE      CODE     ---       #227
      00FF249EH   LINE      CODE     ---       #228
      00FF24A1H   LINE      CODE     ---       #229
      00FF24A4H   LINE      CODE     ---       #231
      ---         BLOCKEND  ---      ---       LVL=0

      00FF2C0EH   BLOCK     CODE     ---       LVL=0
      R15         REGSYM    ---      CHAR      c
      00FF2C0EH   LINE      CODE     ---       #237
      00FF2C12H   LINE      CODE     ---       #239
L251 LINKER/LOCATER V4.66.93.0                                                        04/16/2023  00:40:21  PAGE 22


      00FF2C17H   LINE      CODE     ---       #241
      00FF2C19H   LINE      CODE     ---       #242
      ---         BLOCKEND  ---      ---       LVL=0

      00FF000EH   BLOCK     CODE     ---       LVL=0
      00FF000EH   LINE      CODE     ---       #245
      00FF000EH   LINE      CODE     ---       #247
      00FF0010H   LINE      CODE     ---       #248
      ---         BLOCKEND  ---      ---       LVL=0

      00FF0006H   BLOCK     CODE     ---       LVL=0
      00FF0006H   LINE      CODE     ---       #251
      00FF0006H   LINE      CODE     ---       #253
      00FF0008H   LINE      CODE     ---       #254
      ---         BLOCKEND  ---      ---       LVL=0

      ---         MODULE    ---      ---       common
      00000357H   PUBLIC    EDATA    INT       wireless_type
      000000D0H   SFRSYM    DATA     BYTE      PSW
      00000088H   SFRSYM    DATA     BYTE      TCON
      00000098H   SFRSYM    DATA     BYTE      SCON
      000000B8H   SFRSYM    DATA     BYTE      IP
      000000A8H   SFRSYM    DATA     BYTE      IE
      000000F8H   SFRSYM    DATA     BYTE      P7
      000000E8H   SFRSYM    DATA     BYTE      P6
      000000C8H   SFRSYM    DATA     BYTE      P5
      000000C0H   SFRSYM    DATA     BYTE      P4
      000000B0H   SFRSYM    DATA     BYTE      P3
      000000A0H   SFRSYM    DATA     BYTE      P2
      00000090H   SFRSYM    DATA     BYTE      P1
      00000080H   SFRSYM    DATA     BYTE      P0

      ---         MODULE    ---      ---       SEEKFREE_PRINTF
      000000D0H   SFRSYM    DATA     BYTE      PSW
      00000088H   SFRSYM    DATA     BYTE      TCON
      00000098H   SFRSYM    DATA     BYTE      SCON
      000000B8H   SFRSYM    DATA     BYTE      IP
      000000A8H   SFRSYM    DATA     BYTE      IE
      000000F8H   SFRSYM    DATA     BYTE      P7
      000000E8H   SFRSYM    DATA     BYTE      P6
      000000C8H   SFRSYM    DATA     BYTE      P5
      000000C0H   SFRSYM    DATA     BYTE      P4
      000000B0H   SFRSYM    DATA     BYTE      P3
      000000A0H   SFRSYM    DATA     BYTE      P2
      00000090H   SFRSYM    DATA     BYTE      P1
      00000080H   SFRSYM    DATA     BYTE      P0
      DR24        REGSYM    ---      DWORD     dat
      REG=7       REGSYM    ---      ---       p
      R10         REGSYM    ---      BYTE      neg_type
      DR20        REGSYM    ---      LONG      neg_dat
      DR24        REGSYM    ---      DWORD     pos_dat
      R14         REGSYM    ---      BYTE      temp_data
      R15         REGSYM    ---      BYTE      valid_num
      REG=7       REGSYM    ---      ---       d_buff
      DR24        REGSYM    ---      DWORD     len
      DR4         REGSYM    ---      DWORD     i
      R3          REGSYM    ---      CHAR      temp_data
      REG=3       REGSYM    ---      ---       buff

      ---         MODULE    ---      ---       zf_adc
      00000094H   SFRSYM    DATA     BYTE      P0M0
      000000D0H   SFRSYM    DATA     BYTE      PSW
      000000BEH   SFRSYM    DATA     BYTE      ADC_RESL
      00000088H   SFRSYM    DATA     BYTE      TCON
      00000098H   SFRSYM    DATA     BYTE      SCON
L251 LINKER/LOCATER V4.66.93.0                                                        04/16/2023  00:40:21  PAGE 23


      000000BCH   SFRSYM    DATA     BYTE      ADC_CONTR
      000000DEH   SFRSYM    DATA     BYTE      ADCCFG
      000000B8H   SFRSYM    DATA     BYTE      IP
      000000BDH   SFRSYM    DATA     BYTE      ADC_RES
      000000A8H   SFRSYM    DATA     BYTE      IE
      000000F8H   SFRSYM    DATA     BYTE      P7
      000000E8H   SFRSYM    DATA     BYTE      P6
      000000C8H   SFRSYM    DATA     BYTE      P5
      000000C0H   SFRSYM    DATA     BYTE      P4
      000000B0H   SFRSYM    DATA     BYTE      P3
      000000A0H   SFRSYM    DATA     BYTE      P2
      00000090H   SFRSYM    DATA     BYTE      P1
      00000080H   SFRSYM    DATA     BYTE      P0
      00000091H   SFRSYM    DATA     BYTE      P1M1
      00000092H   SFRSYM    DATA     BYTE      P1M0
      00000093H   SFRSYM    DATA     BYTE      P0M1
      WR4         REGSYM    ---      INT       adcn
      WR2         REGSYM    ---      INT       speed
      WR6         REGSYM    ---      INT       adcn
      WR4         REGSYM    ---      INT       resolution
      WR6         REGSYM    ---      WORD      adc_value

      ---         MODULE    ---      ---       zf_delay
      00FF2983H   PUBLIC    CODE     ---       delay_init
      00FF2BC7H   PUBLIC    CODE     ---       delay_ms
      00000350H   PUBLIC    EDATA    WORD      zf_delay_ms
      00000352H   PUBLIC    EDATA    WORD      zf_delay_us
      000000D0H   SFRSYM    DATA     BYTE      PSW
      00000088H   SFRSYM    DATA     BYTE      TCON
      00000098H   SFRSYM    DATA     BYTE      SCON
      000000B8H   SFRSYM    DATA     BYTE      IP
      000000A8H   SFRSYM    DATA     BYTE      IE
      000000F8H   SFRSYM    DATA     BYTE      P7
      000000E8H   SFRSYM    DATA     BYTE      P6
      000000C8H   SFRSYM    DATA     BYTE      P5
      000000C0H   SFRSYM    DATA     BYTE      P4
      000000B0H   SFRSYM    DATA     BYTE      P3
      000000A0H   SFRSYM    DATA     BYTE      P2
      00000090H   SFRSYM    DATA     BYTE      P1
      00000080H   SFRSYM    DATA     BYTE      P0

      00FF2983H   BLOCK     CODE     ---       LVL=0
      00FF2983H   LINE      CODE     ---       #34
      00FF2983H   LINE      CODE     ---       #36
      00FF2994H   LINE      CODE     ---       #37
      00FF29A5H   LINE      CODE     ---       #38
      00FF29BBH   LINE      CODE     ---       #40
      ---         BLOCKEND  ---      ---       LVL=0

      00FF2BC7H   BLOCK     CODE     ---       LVL=0
      WR4         REGSYM    ---      WORD      ms
      00FF2BC9H   BLOCK     CODE     NEAR LAB  LVL=1
      WR6         REGSYM    ---      WORD      i
      ---         BLOCKEND  ---      ---       LVL=1
      00FF2BC7H   LINE      CODE     ---       #48
      00FF2BC9H   LINE      CODE     ---       #49
      00FF2BC9H   LINE      CODE     ---       #51
      00FF2BC9H   LINE      CODE     ---       #52
      00FF2BCDH   LINE      CODE     ---       #54
      00FF2BD5H   LINE      CODE     ---       #55
      00FF2BDDH   LINE      CODE     ---       #56
      ---         BLOCKEND  ---      ---       LVL=0
      DR0         REGSYM    ---      DWORD     us
      WR6         REGSYM    ---      WORD      i

L251 LINKER/LOCATER V4.66.93.0                                                        04/16/2023  00:40:21  PAGE 24


      ---         MODULE    ---      ---       zf_eeprom
      000000D0H   SFRSYM    DATA     BYTE      PSW
      000000D0H.5 SFRSYM    DATA     BIT       F0
      000000C6H   SFRSYM    DATA     BYTE      IAP_TRIG
      000000C2H   SFRSYM    DATA     BYTE      IAP_DATA
      000000C7H   SFRSYM    DATA     BYTE      IAP_CONTR
      00000088H   SFRSYM    DATA     BYTE      TCON
      00000098H   SFRSYM    DATA     BYTE      SCON
      000000F5H   SFRSYM    DATA     BYTE      IAP_TPS
      000000C4H   SFRSYM    DATA     BYTE      IAP_ADDRL
      000000C3H   SFRSYM    DATA     BYTE      IAP_ADDRH
      000000F6H   SFRSYM    DATA     BYTE      IAP_ADDRE
      000000B8H   SFRSYM    DATA     BYTE      IP
      000000C5H   SFRSYM    DATA     BYTE      IAP_CMD
      000000A8H   SFRSYM    DATA     BYTE      IE
      000000F8H   SFRSYM    DATA     BYTE      P7
      000000A8H.7 SFRSYM    DATA     BIT       EA
      000000E8H   SFRSYM    DATA     BYTE      P6
      000000C8H   SFRSYM    DATA     BYTE      P5
      000000C0H   SFRSYM    DATA     BYTE      P4
      000000B0H   SFRSYM    DATA     BYTE      P3
      000000A0H   SFRSYM    DATA     BYTE      P2
      00000090H   SFRSYM    DATA     BYTE      P1
      00000080H   SFRSYM    DATA     BYTE      P0
      R11         REGSYM    ---      BYTE      write_time
      REG=3       REGSYM    ---      ---       buf
      REG=3       REGSYM    ---      ---       buf
      WR6         REGSYM    ---      WORD      addr
      REG=3       REGSYM    ---      ---       buf
      WR6         REGSYM    ---      WORD      i

      ---         MODULE    ---      ---       zf_exti
      000000D0H   SFRSYM    DATA     BYTE      PSW
      00000088H.2 SFRSYM    DATA     BIT       IT1
      000000A8H.2 SFRSYM    DATA     BIT       EX1
      00000088H.0 SFRSYM    DATA     BIT       IT0
      000000A8H.0 SFRSYM    DATA     BIT       EX0
      00000088H   SFRSYM    DATA     BYTE      TCON
      00000098H   SFRSYM    DATA     BYTE      SCON
      000000B8H   SFRSYM    DATA     BYTE      IP
      0000008FH   SFRSYM    DATA     BYTE      INTCLKO
      000000A8H   SFRSYM    DATA     BYTE      IE
      000000F8H   SFRSYM    DATA     BYTE      P7
      000000E8H   SFRSYM    DATA     BYTE      P6
      000000C8H   SFRSYM    DATA     BYTE      P5
      000000C0H   SFRSYM    DATA     BYTE      P4
      000000B0H   SFRSYM    DATA     BYTE      P3
      000000A0H   SFRSYM    DATA     BYTE      P2
      00000090H   SFRSYM    DATA     BYTE      P1
      00000080H   SFRSYM    DATA     BYTE      P0
      WR4         REGSYM    ---      INT       int_n
      WR2         REGSYM    ---      INT       mode

      ---         MODULE    ---      ---       zf_gpio
      00000094H   SFRSYM    DATA     BYTE      P0M0
      000000D0H   SFRSYM    DATA     BYTE      PSW
      00000088H   SFRSYM    DATA     BYTE      TCON
      00000098H   SFRSYM    DATA     BYTE      SCON
      000000B8H   SFRSYM    DATA     BYTE      IP
      000000A8H   SFRSYM    DATA     BYTE      IE
      000000F8H   SFRSYM    DATA     BYTE      P7
      000000E1H   SFRSYM    DATA     BYTE      P7M1
      000000E8H   SFRSYM    DATA     BYTE      P6
      000000C8H   SFRSYM    DATA     BYTE      P5
      000000CBH   SFRSYM    DATA     BYTE      P6M1
L251 LINKER/LOCATER V4.66.93.0                                                        04/16/2023  00:40:21  PAGE 25


      000000E2H   SFRSYM    DATA     BYTE      P7M0
      000000C0H   SFRSYM    DATA     BYTE      P4
      000000C9H   SFRSYM    DATA     BYTE      P5M1
      000000CCH   SFRSYM    DATA     BYTE      P6M0
      000000B0H   SFRSYM    DATA     BYTE      P3
      000000B3H   SFRSYM    DATA     BYTE      P4M1
      000000CAH   SFRSYM    DATA     BYTE      P5M0
      000000A0H   SFRSYM    DATA     BYTE      P2
      000000B1H   SFRSYM    DATA     BYTE      P3M1
      000000B4H   SFRSYM    DATA     BYTE      P4M0
      00000090H   SFRSYM    DATA     BYTE      P1
      00000095H   SFRSYM    DATA     BYTE      P2M1
      000000B2H   SFRSYM    DATA     BYTE      P3M0
      00000080H   SFRSYM    DATA     BYTE      P0
      00000091H   SFRSYM    DATA     BYTE      P1M1
      00000096H   SFRSYM    DATA     BYTE      P2M0
      00000092H   SFRSYM    DATA     BYTE      P1M0
      00000093H   SFRSYM    DATA     BYTE      P0M1
      WR4         REGSYM    ---      INT       pin
      WR2         REGSYM    ---      INT       pull
      WR4         REGSYM    ---      INT       pin
      WR2         REGSYM    ---      INT       mode

      ---         MODULE    ---      ---       zf_iic
      000000D0H   SFRSYM    DATA     BYTE      PSW
      00000088H   SFRSYM    DATA     BYTE      TCON
      00000098H   SFRSYM    DATA     BYTE      SCON
      000000B8H   SFRSYM    DATA     BYTE      IP
      000000A8H   SFRSYM    DATA     BYTE      IE
      000000BAH   SFRSYM    DATA     BYTE      P_SW2
      000000F8H   SFRSYM    DATA     BYTE      P7
      000000E8H   SFRSYM    DATA     BYTE      P6
      000000C8H   SFRSYM    DATA     BYTE      P5
      000000C0H   SFRSYM    DATA     BYTE      P4
      000000B0H   SFRSYM    DATA     BYTE      P3
      000000A0H   SFRSYM    DATA     BYTE      P2
      00000090H   SFRSYM    DATA     BYTE      P1
      00000080H   SFRSYM    DATA     BYTE      P0
      WR6         REGSYM    ---      WORD      x
      R10         REGSYM    ---      BYTE      i
      WR12        REGSYM    ---      WORD      count
      R15         REGSYM    ---      BYTE      ret
      R11         REGSYM    ---      BYTE      ret
      R11         REGSYM    ---      CHAR      dat
      R11         REGSYM    ---      BYTE      ret
      R11         REGSYM    ---      BYTE      ret
      R11         REGSYM    ---      BYTE      ret
      R11         REGSYM    ---      BYTE      ret
      WR6         REGSYM    ---      INT       iic_n
      R13         REGSYM    ---      BYTE      dev_add
      R14         REGSYM    ---      BYTE      reg
      R15         REGSYM    ---      BYTE      dat
      R15         REGSYM    ---      BYTE      dev_add
      R14         REGSYM    ---      BYTE      reg
      REG=3       REGSYM    ---      ---       dat
      WR6         REGSYM    ---      INT       iic_n

      ---         MODULE    ---      ---       zf_nvic
      000000D0H   SFRSYM    DATA     BYTE      PSW
      000000B7H   SFRSYM    DATA     BYTE      IPH
      000000B5H   SFRSYM    DATA     BYTE      IP2
      00000088H   SFRSYM    DATA     BYTE      TCON
      00000098H   SFRSYM    DATA     BYTE      SCON
      000000B8H   SFRSYM    DATA     BYTE      IP
      000000B6H   SFRSYM    DATA     BYTE      IP2H
L251 LINKER/LOCATER V4.66.93.0                                                        04/16/2023  00:40:21  PAGE 26


      000000A8H   SFRSYM    DATA     BYTE      IE
      000000F8H   SFRSYM    DATA     BYTE      P7
      000000E8H   SFRSYM    DATA     BYTE      P6
      000000C8H   SFRSYM    DATA     BYTE      P5
      000000C0H   SFRSYM    DATA     BYTE      P4
      000000B0H   SFRSYM    DATA     BYTE      P3
      000000A0H   SFRSYM    DATA     BYTE      P2
      00000090H   SFRSYM    DATA     BYTE      P1
      00000080H   SFRSYM    DATA     BYTE      P0
      WR4         REGSYM    ---      INT       irqn
      R3          REGSYM    ---      BYTE      priority

      ---         MODULE    ---      ---       zf_pwm
      00FF2C53H   PUBLIC    HCONST   ---       PWM_CCR_ADDR
      00FF2C73H   PUBLIC    HCONST   ---       PWM_ARR_ADDR
      00FF2C7BH   PUBLIC    HCONST   ---       PWM_CCER_ADDR
      00FF2C8BH   PUBLIC    HCONST   ---       PWM_CCMR_ADDR
      000000D0H   SFRSYM    DATA     BYTE      PSW
      00000088H   SFRSYM    DATA     BYTE      TCON
      00000098H   SFRSYM    DATA     BYTE      SCON
      000000B8H   SFRSYM    DATA     BYTE      IP
      000000A8H   SFRSYM    DATA     BYTE      IE
      000000BAH   SFRSYM    DATA     BYTE      P_SW2
      000000F8H   SFRSYM    DATA     BYTE      P7
      000000E8H   SFRSYM    DATA     BYTE      P6
      000000C8H   SFRSYM    DATA     BYTE      P5
      000000C0H   SFRSYM    DATA     BYTE      P4
      000000B0H   SFRSYM    DATA     BYTE      P3
      000000A0H   SFRSYM    DATA     BYTE      P2
      00000090H   SFRSYM    DATA     BYTE      P1
      00000080H   SFRSYM    DATA     BYTE      P0
      WR6         REGSYM    ---      INT       pwmch
      WR14        REGSYM    ---      INT       pwmch
      DR4         REGSYM    ---      DWORD     match_temp
      DR28        REGSYM    ---      DWORD     period_temp
      WR26        REGSYM    ---      WORD      freq_div
      WR30        REGSYM    ---      INT       pwmch
      DR24        REGSYM    ---      DWORD     duty
      DR0         REGSYM    ---      DWORD     match_temp
      DR20        REGSYM    ---      DWORD     arr
      WR30        REGSYM    ---      INT       pwmch
      DR24        REGSYM    ---      DWORD     freq
      DR0         REGSYM    ---      DWORD     match_temp
      DR24        REGSYM    ---      DWORD     period_temp
      WR28        REGSYM    ---      WORD      freq_div

      ---         MODULE    ---      ---       zf_spi
      000000CFH   SFRSYM    DATA     BYTE      SPDAT
      000000D0H   SFRSYM    DATA     BYTE      PSW
      000000CDH   SFRSYM    DATA     BYTE      SPSTAT
      00000088H   SFRSYM    DATA     BYTE      TCON
      00000098H   SFRSYM    DATA     BYTE      SCON
      000000B8H   SFRSYM    DATA     BYTE      IP
      000000A8H   SFRSYM    DATA     BYTE      IE
      000000A2H   SFRSYM    DATA     BYTE      P_SW1
      000000CEH   SFRSYM    DATA     BYTE      SPCTL
      000000F8H   SFRSYM    DATA     BYTE      P7
      000000E8H   SFRSYM    DATA     BYTE      P6
      000000C8H   SFRSYM    DATA     BYTE      P5
      000000C0H   SFRSYM    DATA     BYTE      P4
      000000B0H   SFRSYM    DATA     BYTE      P3
      000000A0H   SFRSYM    DATA     BYTE      P2
      00000090H   SFRSYM    DATA     BYTE      P1
      00000080H   SFRSYM    DATA     BYTE      P0
      WR14        REGSYM    ---      INT       spi_n
L251 LINKER/LOCATER V4.66.93.0                                                        04/16/2023  00:40:21  PAGE 27


      R13         REGSYM    ---      BYTE      mode
      R11         REGSYM    ---      BYTE      dat
      WR14        REGSYM    ---      INT       spi_n
      R7          REGSYM    ---      BYTE      mode

      ---         MODULE    ---      ---       zf_tim
      000000D0H   SFRSYM    DATA     BYTE      PSW
      000000DDH   SFRSYM    DATA     BYTE      T4T3M
      00000088H.6 SFRSYM    DATA     BIT       TR1
      00000088H.4 SFRSYM    DATA     BIT       TR0
      000000D3H   SFRSYM    DATA     BYTE      T4L
      000000D5H   SFRSYM    DATA     BYTE      T3L
      000000D7H   SFRSYM    DATA     BYTE      T2L
      0000008BH   SFRSYM    DATA     BYTE      TL1
      0000008AH   SFRSYM    DATA     BYTE      TL0
      000000D2H   SFRSYM    DATA     BYTE      T4H
      000000D4H   SFRSYM    DATA     BYTE      T3H
      000000D6H   SFRSYM    DATA     BYTE      T2H
      0000008DH   SFRSYM    DATA     BYTE      TH1
      0000008CH   SFRSYM    DATA     BYTE      TH0
      000000A8H.3 SFRSYM    DATA     BIT       ET1
      000000A8H.1 SFRSYM    DATA     BIT       ET0
      0000008EH   SFRSYM    DATA     BYTE      AUXR
      000000AFH   SFRSYM    DATA     BYTE      IE2
      00000088H   SFRSYM    DATA     BYTE      TCON
      00000089H   SFRSYM    DATA     BYTE      TMOD
      00000098H   SFRSYM    DATA     BYTE      SCON
      000000B8H   SFRSYM    DATA     BYTE      IP
      000000A8H   SFRSYM    DATA     BYTE      IE
      000000F8H   SFRSYM    DATA     BYTE      P7
      000000E8H   SFRSYM    DATA     BYTE      P6
      000000C8H   SFRSYM    DATA     BYTE      P5
      000000C0H   SFRSYM    DATA     BYTE      P4
      000000B0H   SFRSYM    DATA     BYTE      P3
      000000A0H   SFRSYM    DATA     BYTE      P2
      00000090H   SFRSYM    DATA     BYTE      P1
      00000080H   SFRSYM    DATA     BYTE      P0
      WR6         REGSYM    ---      INT       tim_n
      WR4         REGSYM    ---      INT       tim_n
      WR6         REGSYM    ---      WORD      dat
      WR6         REGSYM    ---      INT       tim_n
      WR30        REGSYM    ---      INT       tim_n
      WR28        REGSYM    ---      WORD      time_ms
      WR28        REGSYM    ---      WORD      temp

      ---         MODULE    ---      ---       zf_uart
      00FF26C7H   PUBLIC    CODE     ---       uart_putchar
      00FF1E64H   PUBLIC    CODE     ---       uart_init
      00000109H   PUBLIC    EDATA    ---       uart1_rx_buff
      0000016DH   PUBLIC    EDATA    ---       uart1_tx_buff
      000001D1H   PUBLIC    EDATA    ---       busy
      000002DBH   PUBLIC    EDATA    BYTE      ?uart_init?BYTE
      000000D0H   SFRSYM    DATA     BYTE      PSW
      000000FDH   SFRSYM    DATA     BYTE      S4CON
      000000ACH   SFRSYM    DATA     BYTE      S3CON
      0000009AH   SFRSYM    DATA     BYTE      S2CON
      000000FEH   SFRSYM    DATA     BYTE      S4BUF
      000000ADH   SFRSYM    DATA     BYTE      S3BUF
      0000009BH   SFRSYM    DATA     BYTE      S2BUF
      000000DDH   SFRSYM    DATA     BYTE      T4T3M
      00000088H.6 SFRSYM    DATA     BIT       TR1
      000000D3H   SFRSYM    DATA     BYTE      T4L
      000000D5H   SFRSYM    DATA     BYTE      T3L
      000000D7H   SFRSYM    DATA     BYTE      T2L
      0000008BH   SFRSYM    DATA     BYTE      TL1
L251 LINKER/LOCATER V4.66.93.0                                                        04/16/2023  00:40:21  PAGE 28


      000000D2H   SFRSYM    DATA     BYTE      T4H
      000000D4H   SFRSYM    DATA     BYTE      T3H
      000000D6H   SFRSYM    DATA     BYTE      T2H
      0000008DH   SFRSYM    DATA     BYTE      TH1
      0000008EH   SFRSYM    DATA     BYTE      AUXR
      000000AFH   SFRSYM    DATA     BYTE      IE2
      00000088H   SFRSYM    DATA     BYTE      TCON
      00000089H   SFRSYM    DATA     BYTE      TMOD
      00000098H   SFRSYM    DATA     BYTE      SCON
      00000099H   SFRSYM    DATA     BYTE      SBUF
      000000B8H   SFRSYM    DATA     BYTE      IP
      000000A8H.4 SFRSYM    DATA     BIT       ES
      000000A8H   SFRSYM    DATA     BYTE      IE
      000000BAH   SFRSYM    DATA     BYTE      P_SW2
      000000A2H   SFRSYM    DATA     BYTE      P_SW1
      000000F8H   SFRSYM    DATA     BYTE      P7
      000000E8H   SFRSYM    DATA     BYTE      P6
      000000C8H   SFRSYM    DATA     BYTE      P5
      000000C0H   SFRSYM    DATA     BYTE      P4
      000000C9H   SFRSYM    DATA     BYTE      P5M1
      000000B0H   SFRSYM    DATA     BYTE      P3
      000000CAH   SFRSYM    DATA     BYTE      P5M0
      000000A0H   SFRSYM    DATA     BYTE      P2
      00000090H   SFRSYM    DATA     BYTE      P1
      00000080H   SFRSYM    DATA     BYTE      P0

      00FF1E64H   BLOCK     CODE     ---       LVL=0
      WR24        REGSYM    ---      INT       uart_n
      WR28        REGSYM    ---      INT       uart_rx_pin
      WR30        REGSYM    ---      INT       uart_tx_pin
      000002E1H   SYMBOL    EDATA    DWORD     baud
      WR26        REGSYM    ---      INT       tim_n
      00FF1E6CH   BLOCK     CODE     NEAR LAB  LVL=1
      WR6         REGSYM    ---      WORD      brt
      ---         BLOCKEND  ---      ---       LVL=1
      00FF1E64H   LINE      CODE     ---       #48
      00FF1E6CH   LINE      CODE     ---       #49
      00FF1E6CH   LINE      CODE     ---       #52
      00FF1E8FH   LINE      CODE     ---       #55
      00FF1EADH   LINE      CODE     ---       #57
      00FF1EADH   LINE      CODE     ---       #59
      00FF1EB3H   LINE      CODE     ---       #61
      00FF1EB6H   LINE      CODE     ---       #62
      00FF1EBAH   LINE      CODE     ---       #63
      00FF1EBEH   LINE      CODE     ---       #64
      00FF1EC2H   LINE      CODE     ---       #65
      00FF1EC5H   LINE      CODE     ---       #66
      00FF1EC7H   LINE      CODE     ---       #67
      00FF1ECCH   LINE      CODE     ---       #68
      00FF1ECEH   LINE      CODE     ---       #69
      00FF1ED4H   LINE      CODE     ---       #71
      00FF1ED7H   LINE      CODE     ---       #72
      00FF1EDBH   LINE      CODE     ---       #73
      00FF1EDFH   LINE      CODE     ---       #74
      00FF1EE2H   LINE      CODE     ---       #75
      00FF1EE2H   LINE      CODE     ---       #76
      00FF1EE5H   LINE      CODE     ---       #77
      00FF1EEFH   LINE      CODE     ---       #79
      00FF1EF3H   LINE      CODE     ---       #80
      00FF1EF5H   LINE      CODE     ---       #81
      00FF1F01H   LINE      CODE     ---       #83
      00FF1F04H   LINE      CODE     ---       #84
      00FF1F06H   LINE      CODE     ---       #85
      00FF1F12H   LINE      CODE     ---       #87
      00FF1F15H   LINE      CODE     ---       #88
L251 LINKER/LOCATER V4.66.93.0                                                        04/16/2023  00:40:21  PAGE 29


      00FF1F17H   LINE      CODE     ---       #89
      00FF1F23H   LINE      CODE     ---       #91
      00FF1F26H   LINE      CODE     ---       #92
      00FF1F26H   LINE      CODE     ---       #93
      00FF1F2BH   LINE      CODE     ---       #94
      00FF1F2DH   LINE      CODE     ---       #95
      00FF1F2EH   LINE      CODE     ---       #98
      00FF1F2EH   LINE      CODE     ---       #100
      00FF1F34H   LINE      CODE     ---       #102
      00FF1F37H   LINE      CODE     ---       #103
      00FF1F3BH   LINE      CODE     ---       #104
      00FF1F3FH   LINE      CODE     ---       #105
      00FF1F42H   LINE      CODE     ---       #106
      00FF1F42H   LINE      CODE     ---       #108
      00FF1F45H   LINE      CODE     ---       #109
      00FF1F51H   LINE      CODE     ---       #111
      00FF1F55H   LINE      CODE     ---       #112
      00FF1F57H   LINE      CODE     ---       #113
      00FF1F63H   LINE      CODE     ---       #115
      00FF1F66H   LINE      CODE     ---       #116
      00FF1F66H   LINE      CODE     ---       #118
      00FF1F69H   LINE      CODE     ---       #119
      00FF1F6EH   LINE      CODE     ---       #120
      00FF1F6FH   LINE      CODE     ---       #123
      00FF1F6FH   LINE      CODE     ---       #125
      00FF1F75H   LINE      CODE     ---       #127
      00FF1F78H   LINE      CODE     ---       #128
      00FF1F7CH   LINE      CODE     ---       #129
      00FF1F80H   LINE      CODE     ---       #130
      00FF1F83H   LINE      CODE     ---       #131
      00FF1F85H   LINE      CODE     ---       #132
      00FF1F8BH   LINE      CODE     ---       #134
      00FF1F8EH   LINE      CODE     ---       #135
      00FF1F92H   LINE      CODE     ---       #136
      00FF1F96H   LINE      CODE     ---       #137
      00FF1F99H   LINE      CODE     ---       #138
      00FF1F99H   LINE      CODE     ---       #140
      00FF1F9CH   LINE      CODE     ---       #141
      00FF1FA8H   LINE      CODE     ---       #143
      00FF1FACH   LINE      CODE     ---       #144
      00FF1FAEH   LINE      CODE     ---       #145
      00FF1FBAH   LINE      CODE     ---       #147
      00FF1FBDH   LINE      CODE     ---       #148
      00FF1FBDH   LINE      CODE     ---       #150
      00FF1FC0H   LINE      CODE     ---       #151
      00FF1FC5H   LINE      CODE     ---       #152
      00FF1FC6H   LINE      CODE     ---       #155
      00FF1FC6H   LINE      CODE     ---       #157
      00FF1FCCH   LINE      CODE     ---       #159
      00FF1FCFH   LINE      CODE     ---       #160
      00FF1FD3H   LINE      CODE     ---       #161
      00FF1FD7H   LINE      CODE     ---       #162
      00FF1FDAH   LINE      CODE     ---       #163
      00FF1FDCH   LINE      CODE     ---       #164
      00FF1FE2H   LINE      CODE     ---       #166
      00FF1FE5H   LINE      CODE     ---       #167
      00FF1FE9H   LINE      CODE     ---       #168
      00FF1FEDH   LINE      CODE     ---       #169
      00FF1FF0H   LINE      CODE     ---       #170
      00FF1FF0H   LINE      CODE     ---       #172
      00FF1FF3H   LINE      CODE     ---       #173
      00FF1FFFH   LINE      CODE     ---       #175
      00FF2003H   LINE      CODE     ---       #176
      00FF2005H   LINE      CODE     ---       #177
      00FF2011H   LINE      CODE     ---       #179
L251 LINKER/LOCATER V4.66.93.0                                                        04/16/2023  00:40:21  PAGE 30


      00FF2014H   LINE      CODE     ---       #180
      00FF2017H   LINE      CODE     ---       #181
      00FF201AH   LINE      CODE     ---       #182
      00FF201AH   LINE      CODE     ---       #183
      00FF201DH   LINE      CODE     ---       #184
      00FF2022H   LINE      CODE     ---       #185
      00FF2022H   LINE      CODE     ---       #188
      00FF2022H   LINE      CODE     ---       #190
      ---         BLOCKEND  ---      ---       LVL=0

      00FF26C7H   BLOCK     CODE     ---       LVL=0
      WR6         REGSYM    ---      INT       uart_n
      R10         REGSYM    ---      BYTE      dat
      00FF26C7H   LINE      CODE     ---       #199
      00FF26C9H   LINE      CODE     ---       #201
      00FF26DBH   LINE      CODE     ---       #203
      00FF26DBH   LINE      CODE     ---       #204
      00FF26E1H   LINE      CODE     ---       #205
      00FF26E7H   LINE      CODE     ---       #206
      00FF26EAH   LINE      CODE     ---       #207
      00FF26EBH   LINE      CODE     ---       #208
      00FF26EBH   LINE      CODE     ---       #209
      00FF26F1H   LINE      CODE     ---       #210
      00FF26F7H   LINE      CODE     ---       #211
      00FF26FAH   LINE      CODE     ---       #212
      00FF26FBH   LINE      CODE     ---       #213
      00FF26FBH   LINE      CODE     ---       #214
      00FF2701H   LINE      CODE     ---       #215
      00FF2707H   LINE      CODE     ---       #216
      00FF270AH   LINE      CODE     ---       #217
      00FF270BH   LINE      CODE     ---       #218
      00FF270BH   LINE      CODE     ---       #219
      00FF2711H   LINE      CODE     ---       #220
      00FF2717H   LINE      CODE     ---       #221
      00FF271AH   LINE      CODE     ---       #222
      00FF271AH   LINE      CODE     ---       #223
      00FF271AH   LINE      CODE     ---       #224
      ---         BLOCKEND  ---      ---       LVL=0
      REG=3       REGSYM    ---      ---       p
      REG=3       REGSYM    ---      ---       str

      ---         MODULE    ---      ---       zf_fifo
      00FF2810H   PUBLIC    CODE     ---       fifo_head_offset
      00FF2283H   PUBLIC    CODE     ---       fifo_write_buffer
      000002D1H   PUBLIC    EDATA    BYTE      ?fifo_write_buffer?BYTE
      000000D0H   SFRSYM    DATA     BYTE      PSW
      00000088H   SFRSYM    DATA     BYTE      TCON
      00000098H   SFRSYM    DATA     BYTE      SCON
      000000B8H   SFRSYM    DATA     BYTE      IP
      000000A8H   SFRSYM    DATA     BYTE      IE
      000000F8H   SFRSYM    DATA     BYTE      P7
      000000E8H   SFRSYM    DATA     BYTE      P6
      000000C8H   SFRSYM    DATA     BYTE      P5
      000000C0H   SFRSYM    DATA     BYTE      P4
      000000B0H   SFRSYM    DATA     BYTE      P3
      000000A0H   SFRSYM    DATA     BYTE      P2
      00000090H   SFRSYM    DATA     BYTE      P1
      00000080H   SFRSYM    DATA     BYTE      P0
      REG=2       REGSYM    ---      ---       fifo
      REG=7       REGSYM    ---      ---       buffer_addr

      00FF2810H   BLOCK     CODE     ---       LVL=0
      REG=7       REGSYM    ---      ---       fifo
      DR24        REGSYM    ---      DWORD     offset
      00FF2810H   LINE      CODE     ---       #61
L251 LINKER/LOCATER V4.66.93.0                                                        04/16/2023  00:40:21  PAGE 31


      00FF2814H   LINE      CODE     ---       #63
      00FF281FH   LINE      CODE     ---       #65
      00FF2821H   LINE      CODE     ---       #67
      00FF283DH   LINE      CODE     ---       #68
      00FF2851H   LINE      CODE     ---       #69
      ---         BLOCKEND  ---      ---       LVL=0
      REG=7       REGSYM    ---      ---       fifo
      DR24        REGSYM    ---      DWORD     offset
      REG=2       REGSYM    ---      ---       fifo
      REG=7       REGSYM    ---      ---       fifo

      00FF2283H   BLOCK     CODE     ---       LVL=0
      REG=3       REGSYM    ---      ---       fifo
      000002D5H   SYMBOL    EDATA    ---       dat
      000002D9H   SYMBOL    EDATA    DWORD     length
      00FF228BH   BLOCK     CODE     NEAR LAB  LVL=1
      000002DDH   SYMBOL    EDATA    DWORD     temp_length
      ---         BLOCKEND  ---      ---       LVL=1
      00FF2283H   LINE      CODE     ---       #120
      00FF228BH   LINE      CODE     ---       #121
      00FF228BH   LINE      CODE     ---       #124
      00FF229EH   LINE      CODE     ---       #126
      00FF22B4H   LINE      CODE     ---       #128
      00FF22B8H   LINE      CODE     ---       #130
      00FF22D0H   LINE      CODE     ---       #131
      00FF22D9H   LINE      CODE     ---       #132
      00FF22E9H   LINE      CODE     ---       #133
      00FF2309H   LINE      CODE     ---       #134
      00FF2315H   LINE      CODE     ---       #135
      00FF2317H   LINE      CODE     ---       #138
      00FF2333H   LINE      CODE     ---       #139
      00FF233CH   LINE      CODE     ---       #140
      00FF233CH   LINE      CODE     ---       #142
      00FF2356H   LINE      CODE     ---       #143
      00FF2358H   LINE      CODE     ---       #146
      00FF235EH   LINE      CODE     ---       #147
      00FF235EH   LINE      CODE     ---       #149
      00FF2360H   LINE      CODE     ---       #150
      ---         BLOCKEND  ---      ---       LVL=0
      REG=3       REGSYM    ---      ---       fifo

      ---         MODULE    ---      ---       SEEKFREE_18TFT
      000000D0H   SFRSYM    DATA     BYTE      PSW
      000000A0H.5 SFRSYM    DATA     BIT       P25
      00000088H   SFRSYM    DATA     BYTE      TCON
      000000A0H.3 SFRSYM    DATA     BIT       P23
      00000098H   SFRSYM    DATA     BYTE      SCON
      000000A0H.2 SFRSYM    DATA     BIT       P22
      000000A0H.1 SFRSYM    DATA     BIT       P21
      000000A0H.0 SFRSYM    DATA     BIT       P20
      000000B8H   SFRSYM    DATA     BYTE      IP
      000000A8H   SFRSYM    DATA     BYTE      IE
      000000F8H   SFRSYM    DATA     BYTE      P7
      000000E8H   SFRSYM    DATA     BYTE      P6
      000000C8H   SFRSYM    DATA     BYTE      P5
      000000C0H   SFRSYM    DATA     BYTE      P4
      000000B0H   SFRSYM    DATA     BYTE      P3
      000000A0H   SFRSYM    DATA     BYTE      P2
      00000090H   SFRSYM    DATA     BYTE      P1
      00000080H   SFRSYM    DATA     BYTE      P0
      R7          REGSYM    ---      BYTE      dat
      R6          REGSYM    ---      BYTE      i
      R7          REGSYM    ---      BYTE      dat
      R6          REGSYM    ---      BYTE      i
      WR4         REGSYM    ---      WORD      dat
L251 LINKER/LOCATER V4.66.93.0                                                        04/16/2023  00:40:21  PAGE 32


      R10         REGSYM    ---      BYTE      i
      WR12        REGSYM    ---      WORD      x_end
      WR14        REGSYM    ---      WORD      y_end
      WR14        REGSYM    ---      INT       color
      R13         REGSYM    ---      BYTE      i
      R12         REGSYM    ---      BYTE      j
      WR2         REGSYM    ---      WORD      x
      WR0         REGSYM    ---      WORD      y
      WR14        REGSYM    ---      WORD      color
      WR12        REGSYM    ---      WORD      x
      WR14        REGSYM    ---      WORD      y
      REG=3       REGSYM    ---      ---       dat
      WR12        REGSYM    ---      WORD      x
      WR14        REGSYM    ---      WORD      y
      WR12        REGSYM    ---      WORD      x
      WR14        REGSYM    ---      WORD      y
      R10         REGSYM    ---      BYTE      dat
      WR12        REGSYM    ---      WORD      x
      WR14        REGSYM    ---      WORD      y
      WR12        REGSYM    ---      WORD      x
      WR14        REGSYM    ---      WORD      y
      WR2         REGSYM    ---      WORD      dat
      WR12        REGSYM    ---      WORD      y
      R15         REGSYM    ---      BYTE      num
      R14         REGSYM    ---      BYTE      length
      DR12        REGSYM    ---      FLOAT     dat
      R7          REGSYM    ---      CHAR      point
      R7          REGSYM    ---      BYTE      dat
      R7          REGSYM    ---      BYTE      dat
      WR4         REGSYM    ---      WORD      dat
      WR12        REGSYM    ---      WORD      x_end
      WR14        REGSYM    ---      WORD      y_end
      WR14        REGSYM    ---      INT       color
      R13         REGSYM    ---      BYTE      i
      R12         REGSYM    ---      BYTE      j
      WR2         REGSYM    ---      WORD      x
      WR0         REGSYM    ---      WORD      y
      WR14        REGSYM    ---      WORD      color
      WR12        REGSYM    ---      WORD      x
      WR14        REGSYM    ---      WORD      y
      REG=3       REGSYM    ---      ---       dat
      WR12        REGSYM    ---      WORD      x
      WR14        REGSYM    ---      WORD      y
      WR12        REGSYM    ---      WORD      x
      WR14        REGSYM    ---      WORD      y
      R10         REGSYM    ---      BYTE      dat
      WR12        REGSYM    ---      WORD      x
      WR14        REGSYM    ---      WORD      y
      WR12        REGSYM    ---      WORD      x
      WR14        REGSYM    ---      WORD      y
      WR2         REGSYM    ---      WORD      dat
      WR12        REGSYM    ---      WORD      y
      R15         REGSYM    ---      BYTE      num
      R14         REGSYM    ---      BYTE      length
      DR12        REGSYM    ---      FLOAT     dat
      R7          REGSYM    ---      CHAR      point
      REG=3       REGSYM    ---      ---       p

      ---         MODULE    ---      ---       SEEKFREE_ABSOLUTE_ENCODER
      000000D0H   SFRSYM    DATA     BYTE      PSW
      000000A0H.7 SFRSYM    DATA     BIT       P27
      000000A0H.6 SFRSYM    DATA     BIT       P26
      000000A0H.5 SFRSYM    DATA     BIT       P25
      000000A0H.4 SFRSYM    DATA     BIT       P24
      00000088H   SFRSYM    DATA     BYTE      TCON
L251 LINKER/LOCATER V4.66.93.0                                                        04/16/2023  00:40:21  PAGE 33


      00000098H   SFRSYM    DATA     BYTE      SCON
      000000A0H.2 SFRSYM    DATA     BIT       P22
      000000B8H   SFRSYM    DATA     BYTE      IP
      000000A8H   SFRSYM    DATA     BYTE      IE
      000000F8H   SFRSYM    DATA     BYTE      P7
      000000E8H   SFRSYM    DATA     BYTE      P6
      000000C8H   SFRSYM    DATA     BYTE      P5
      000000C0H   SFRSYM    DATA     BYTE      P4
      000000B0H   SFRSYM    DATA     BYTE      P3
      000000A0H   SFRSYM    DATA     BYTE      P2
      00000090H   SFRSYM    DATA     BYTE      P1
      00000080H   SFRSYM    DATA     BYTE      P0
      WR6         REGSYM    ---      WORD      x
      R6          REGSYM    ---      BYTE      byte
      R7          REGSYM    ---      BYTE      i
      R7          REGSYM    ---      BYTE      cmd
      R15         REGSYM    ---      BYTE      val
      R7          REGSYM    ---      BYTE      cmd
      REG=3       REGSYM    ---      ---       val
      R7          REGSYM    ---      BYTE      cmd
      R15         REGSYM    ---      BYTE      val
      R14         REGSYM    ---      BYTE      dat
      R7          REGSYM    ---      BYTE      cmd
      REG=3       REGSYM    ---      ---       val
      WR14        REGSYM    ---      WORD      zero_position
      WR14        REGSYM    ---      WORD      angle
      R10         REGSYM    ---      BYTE      byte
      R7          REGSYM    ---      BYTE      cmd
      R15         REGSYM    ---      BYTE      val
      R7          REGSYM    ---      BYTE      cmd
      REG=3       REGSYM    ---      ---       val
      R7          REGSYM    ---      BYTE      cmd
      R15         REGSYM    ---      BYTE      val
      R14         REGSYM    ---      BYTE      dat
      R7          REGSYM    ---      BYTE      cmd
      REG=3       REGSYM    ---      ---       val
      WR14        REGSYM    ---      WORD      zero_position
      WR14        REGSYM    ---      WORD      angle

      ---         MODULE    ---      ---       SEEKFREE_FONT
      00FF00A6H   PUBLIC    CODE     ---       oled_8x16
      00FF0696H   PUBLIC    CODE     ---       tft_ascii
      00FF0C86H   PUBLIC    CODE     ---       oled_6x8
      000000D0H   SFRSYM    DATA     BYTE      PSW
      00000088H   SFRSYM    DATA     BYTE      TCON
      00000098H   SFRSYM    DATA     BYTE      SCON
      000000B8H   SFRSYM    DATA     BYTE      IP
      000000A8H   SFRSYM    DATA     BYTE      IE
      000000F8H   SFRSYM    DATA     BYTE      P7
      000000E8H   SFRSYM    DATA     BYTE      P6
      000000C8H   SFRSYM    DATA     BYTE      P5
      000000C0H   SFRSYM    DATA     BYTE      P4
      000000B0H   SFRSYM    DATA     BYTE      P3
      000000A0H   SFRSYM    DATA     BYTE      P2
      00000090H   SFRSYM    DATA     BYTE      P1
      00000080H   SFRSYM    DATA     BYTE      P0

      ---         MODULE    ---      ---       SEEKFREE_ICM20602
      00000323H   PUBLIC    EDATA    INT       icm_acc_x
      00000325H   PUBLIC    EDATA    INT       icm_acc_y
      00000327H   PUBLIC    EDATA    INT       icm_acc_z
      00000329H   PUBLIC    EDATA    INT       icm_gyro_x
      0000032BH   PUBLIC    EDATA    INT       icm_gyro_y
      0000032DH   PUBLIC    EDATA    INT       icm_gyro_z
      000000D0H   SFRSYM    DATA     BYTE      PSW
L251 LINKER/LOCATER V4.66.93.0                                                        04/16/2023  00:40:21  PAGE 34


      000000C0H.3 SFRSYM    DATA     BIT       P43
      000000C0H.2 SFRSYM    DATA     BIT       P42
      00000088H   SFRSYM    DATA     BYTE      TCON
      000000C0H.1 SFRSYM    DATA     BIT       P41
      00000098H   SFRSYM    DATA     BYTE      SCON
      000000C0H.0 SFRSYM    DATA     BIT       P40
      000000B8H   SFRSYM    DATA     BYTE      IP
      000000A8H   SFRSYM    DATA     BYTE      IE
      000000F8H   SFRSYM    DATA     BYTE      P7
      000000E8H   SFRSYM    DATA     BYTE      P6
      000000C8H   SFRSYM    DATA     BYTE      P5
      000000C0H   SFRSYM    DATA     BYTE      P4
      000000B0H   SFRSYM    DATA     BYTE      P3
      000000A0H   SFRSYM    DATA     BYTE      P2
      00000090H   SFRSYM    DATA     BYTE      P1
      00000080H   SFRSYM    DATA     BYTE      P0
      R15         REGSYM    ---      BYTE      dat
      R6          REGSYM    ---      BYTE      byte
      R7          REGSYM    ---      BYTE      i
      R7          REGSYM    ---      BYTE      cmd
      R15         REGSYM    ---      BYTE      val
      R7          REGSYM    ---      BYTE      cmd
      REG=3       REGSYM    ---      ---       val
      R7          REGSYM    ---      BYTE      cmd
      REG=3       REGSYM    ---      ---       val

      ---         MODULE    ---      ---       SEEKFREE_IIC
      00000345H   PUBLIC    EDATA    BYTE      IIC_ad_main
      00000346H   PUBLIC    EDATA    BYTE      IIC_num
      00000347H   PUBLIC    EDATA    BYTE      IIC_ad_sub
      00000348H   PUBLIC    EDATA    ---       IIC_buf
      000000D0H   SFRSYM    DATA     BYTE      PSW
      00000088H   SFRSYM    DATA     BYTE      TCON
      000000C0H.1 SFRSYM    DATA     BIT       P41
      00000098H   SFRSYM    DATA     BYTE      SCON
      000000C0H.0 SFRSYM    DATA     BIT       P40
      000000B8H   SFRSYM    DATA     BYTE      IP
      000000A8H   SFRSYM    DATA     BYTE      IE
      000000F8H   SFRSYM    DATA     BYTE      P7
      000000E8H   SFRSYM    DATA     BYTE      P6
      000000C8H   SFRSYM    DATA     BYTE      P5
      000000C0H   SFRSYM    DATA     BYTE      P4
      000000B0H   SFRSYM    DATA     BYTE      P3
      000000A0H   SFRSYM    DATA     BYTE      P2
      00000090H   SFRSYM    DATA     BYTE      P1
      00000080H   SFRSYM    DATA     BYTE      P0
      WR6         REGSYM    ---      WORD      j
      R15         REGSYM    ---      BYTE      ack_dat
      R15         REGSYM    ---      BYTE      c
      R14         REGSYM    ---      BYTE      i
      R15         REGSYM    ---      BYTE      ack_x
      R13         REGSYM    ---      BYTE      i
      R14         REGSYM    ---      BYTE      c
      R13         REGSYM    ---      BYTE      dev_add
      R14         REGSYM    ---      BYTE      reg
      R15         REGSYM    ---      BYTE      dat
      R15         REGSYM    ---      BYTE      dev_add
      R14         REGSYM    ---      BYTE      reg
      WR12        REGSYM    ---      INT       type
      R15         REGSYM    ---      BYTE      dat
      REG=3       REGSYM    ---      ---       dat_add

      ---         MODULE    ---      ---       SEEKFREE_IPS114_SPI
      000000D0H   SFRSYM    DATA     BYTE      PSW
      000000A0H.7 SFRSYM    DATA     BIT       P27
L251 LINKER/LOCATER V4.66.93.0                                                        04/16/2023  00:40:21  PAGE 35


      000000A0H.5 SFRSYM    DATA     BIT       P25
      00000088H   SFRSYM    DATA     BYTE      TCON
      000000A0H.3 SFRSYM    DATA     BIT       P23
      00000098H   SFRSYM    DATA     BYTE      SCON
      000000A0H.2 SFRSYM    DATA     BIT       P22
      000000A0H.1 SFRSYM    DATA     BIT       P21
      000000A0H.0 SFRSYM    DATA     BIT       P20
      000000B8H   SFRSYM    DATA     BYTE      IP
      000000A8H   SFRSYM    DATA     BYTE      IE
      000000F8H   SFRSYM    DATA     BYTE      P7
      000000E8H   SFRSYM    DATA     BYTE      P6
      000000C8H   SFRSYM    DATA     BYTE      P5
      000000C0H   SFRSYM    DATA     BYTE      P4
      000000B0H   SFRSYM    DATA     BYTE      P3
      000000A0H   SFRSYM    DATA     BYTE      P2
      00000090H   SFRSYM    DATA     BYTE      P1
      00000080H   SFRSYM    DATA     BYTE      P0
      R7          REGSYM    ---      BYTE      dat
      R6          REGSYM    ---      BYTE      i
      R7          REGSYM    ---      BYTE      dat
      R6          REGSYM    ---      BYTE      i
      WR4         REGSYM    ---      WORD      dat
      R10         REGSYM    ---      BYTE      i
      WR12        REGSYM    ---      WORD      x2
      WR14        REGSYM    ---      WORD      y2
      WR14        REGSYM    ---      WORD      color
      R13         REGSYM    ---      BYTE      i
      WR2         REGSYM    ---      WORD      x
      WR0         REGSYM    ---      WORD      y
      WR14        REGSYM    ---      WORD      color
      WR12        REGSYM    ---      WORD      x
      WR14        REGSYM    ---      WORD      y
      REG=3       REGSYM    ---      ---       dat
      WR12        REGSYM    ---      WORD      x
      WR14        REGSYM    ---      WORD      y
      WR12        REGSYM    ---      WORD      x
      WR14        REGSYM    ---      WORD      y
      R10         REGSYM    ---      BYTE      dat
      WR12        REGSYM    ---      WORD      x
      WR14        REGSYM    ---      WORD      y
      WR12        REGSYM    ---      WORD      x
      WR14        REGSYM    ---      WORD      y
      WR2         REGSYM    ---      WORD      dat
      WR12        REGSYM    ---      WORD      y
      R15         REGSYM    ---      BYTE      num
      R14         REGSYM    ---      BYTE      length
      DR12        REGSYM    ---      FLOAT     dat
      R7          REGSYM    ---      CHAR      point
      R7          REGSYM    ---      BYTE      dat
      R7          REGSYM    ---      BYTE      dat
      WR4         REGSYM    ---      WORD      dat
      WR12        REGSYM    ---      WORD      x2
      WR14        REGSYM    ---      WORD      y2
      WR14        REGSYM    ---      WORD      color
      R13         REGSYM    ---      BYTE      i
      WR2         REGSYM    ---      WORD      x
      WR0         REGSYM    ---      WORD      y
      WR14        REGSYM    ---      WORD      color
      WR12        REGSYM    ---      WORD      x
      WR14        REGSYM    ---      WORD      y
      REG=3       REGSYM    ---      ---       dat
      WR12        REGSYM    ---      WORD      x
      WR14        REGSYM    ---      WORD      y
      WR12        REGSYM    ---      WORD      x
      WR14        REGSYM    ---      WORD      y
L251 LINKER/LOCATER V4.66.93.0                                                        04/16/2023  00:40:21  PAGE 36


      R10         REGSYM    ---      BYTE      dat
      WR12        REGSYM    ---      WORD      x
      WR14        REGSYM    ---      WORD      y
      WR12        REGSYM    ---      WORD      x
      WR14        REGSYM    ---      WORD      y
      WR2         REGSYM    ---      WORD      dat
      WR12        REGSYM    ---      WORD      y
      R15         REGSYM    ---      BYTE      num
      R14         REGSYM    ---      BYTE      length
      DR12        REGSYM    ---      FLOAT     dat
      R7          REGSYM    ---      CHAR      point

      ---         MODULE    ---      ---       SEEKFREE_MPU6050
      0000032FH   PUBLIC    EDATA    INT       mpu_acc_x
      00000331H   PUBLIC    EDATA    INT       mpu_acc_y
      00000333H   PUBLIC    EDATA    INT       mpu_acc_z
      00000335H   PUBLIC    EDATA    INT       mpu_gyro_x
      00000337H   PUBLIC    EDATA    INT       mpu_gyro_y
      00000339H   PUBLIC    EDATA    INT       mpu_gyro_z
      000000D0H   SFRSYM    DATA     BYTE      PSW
      00000088H   SFRSYM    DATA     BYTE      TCON
      00000098H   SFRSYM    DATA     BYTE      SCON
      000000B8H   SFRSYM    DATA     BYTE      IP
      000000A8H   SFRSYM    DATA     BYTE      IE
      000000F8H   SFRSYM    DATA     BYTE      P7
      000000E8H   SFRSYM    DATA     BYTE      P6
      000000C8H   SFRSYM    DATA     BYTE      P5
      000000C0H   SFRSYM    DATA     BYTE      P4
      000000B0H   SFRSYM    DATA     BYTE      P3
      000000A0H   SFRSYM    DATA     BYTE      P2
      00000090H   SFRSYM    DATA     BYTE      P1
      00000080H   SFRSYM    DATA     BYTE      P0

      ---         MODULE    ---      ---       SEEKFREE_OLED
      000000D0H   SFRSYM    DATA     BYTE      PSW
      000000A0H.5 SFRSYM    DATA     BIT       P25
      00000088H   SFRSYM    DATA     BYTE      TCON
      000000A0H.3 SFRSYM    DATA     BIT       P23
      00000098H   SFRSYM    DATA     BYTE      SCON
      000000A0H.2 SFRSYM    DATA     BIT       P22
      000000A0H.1 SFRSYM    DATA     BIT       P21
      000000A0H.0 SFRSYM    DATA     BIT       P20
      000000B8H   SFRSYM    DATA     BYTE      IP
      000000A8H   SFRSYM    DATA     BYTE      IE
      000000F8H   SFRSYM    DATA     BYTE      P7
      000000E8H   SFRSYM    DATA     BYTE      P6
      000000C8H   SFRSYM    DATA     BYTE      P5
      000000C0H   SFRSYM    DATA     BYTE      P4
      000000B0H   SFRSYM    DATA     BYTE      P3
      000000A0H   SFRSYM    DATA     BYTE      P2
      00000090H   SFRSYM    DATA     BYTE      P1
      00000080H   SFRSYM    DATA     BYTE      P0
      R7          REGSYM    ---      BYTE      dat
      R6          REGSYM    ---      BYTE      i
      R7          REGSYM    ---      BYTE      cmd
      R6          REGSYM    ---      BYTE      i
      WR8         REGSYM    ---      WORD      hex
      REG=7       REGSYM    ---      ---       Print
      R5          REGSYM    ---      BYTE      hexcheck
      R10         REGSYM    ---      BYTE      TEMP
      R15         REGSYM    ---      BYTE      x
      R10         REGSYM    ---      BYTE      y
      R15         REGSYM    ---      BYTE      bmp_data
      R14         REGSYM    ---      BYTE      y
      R13         REGSYM    ---      BYTE      x
L251 LINKER/LOCATER V4.66.93.0                                                        04/16/2023  00:40:21  PAGE 37


      R15         REGSYM    ---      BYTE      x
      R14         REGSYM    ---      BYTE      y
      R13         REGSYM    ---      BYTE      data1
      R15         REGSYM    ---      BYTE      x
      R14         REGSYM    ---      BYTE      y
      REG=3       REGSYM    ---      ---       ch
      REG=3       REGSYM    ---      ---       ch
      R14         REGSYM    ---      BYTE      x
      R15         REGSYM    ---      BYTE      y
      WR4         REGSYM    ---      WORD      num
      R15         REGSYM    ---      BYTE      x
      R14         REGSYM    ---      BYTE      y
      WR12        REGSYM    ---      INT       num
      WR12        REGSYM    ---      WORD      y
      R15         REGSYM    ---      BYTE      num
      R14         REGSYM    ---      BYTE      length
      DR12        REGSYM    ---      FLOAT     dat
      R7          REGSYM    ---      CHAR      point
      WR4         REGSYM    ---      WORD      high
      REG=3       REGSYM    ---      ---       p
      REG=3       REGSYM    ---      ---       p
      R7          REGSYM    ---      BYTE      dat
      R7          REGSYM    ---      BYTE      cmd
      WR8         REGSYM    ---      WORD      hex
      REG=7       REGSYM    ---      ---       Print
      R5          REGSYM    ---      BYTE      hexcheck
      R10         REGSYM    ---      BYTE      TEMP
      R15         REGSYM    ---      BYTE      x
      R10         REGSYM    ---      BYTE      y
      R15         REGSYM    ---      BYTE      bmp_data
      R14         REGSYM    ---      BYTE      y
      R13         REGSYM    ---      BYTE      x
      R15         REGSYM    ---      BYTE      x
      R14         REGSYM    ---      BYTE      y
      R13         REGSYM    ---      BYTE      data1
      R15         REGSYM    ---      BYTE      x
      R14         REGSYM    ---      BYTE      y
      REG=3       REGSYM    ---      ---       ch
      REG=3       REGSYM    ---      ---       ch
      R14         REGSYM    ---      BYTE      x
      R15         REGSYM    ---      BYTE      y
      WR4         REGSYM    ---      WORD      num
      R15         REGSYM    ---      BYTE      x
      R14         REGSYM    ---      BYTE      y
      WR12        REGSYM    ---      INT       num
      WR12        REGSYM    ---      WORD      y
      R15         REGSYM    ---      BYTE      num
      R14         REGSYM    ---      BYTE      length
      DR12        REGSYM    ---      FLOAT     dat
      R7          REGSYM    ---      CHAR      point
      WR4         REGSYM    ---      WORD      high
      REG=3       REGSYM    ---      ---       p
      REG=3       REGSYM    ---      ---       p

      ---         MODULE    ---      ---       SEEKFREE_TSL1401
      00000008H   PUBLIC    EDATA    BYTE      tsl1401_finish_flag
      00000009H   PUBLIC    EDATA    ---       ccd_data
      000000D0H   SFRSYM    DATA     BYTE      PSW
      000000B0H.3 SFRSYM    DATA     BIT       P33
      00000088H   SFRSYM    DATA     BYTE      TCON
      000000B0H.2 SFRSYM    DATA     BIT       P32
      00000098H   SFRSYM    DATA     BYTE      SCON
      000000B8H   SFRSYM    DATA     BYTE      IP
      000000A8H   SFRSYM    DATA     BYTE      IE
      000000F8H   SFRSYM    DATA     BYTE      P7
L251 LINKER/LOCATER V4.66.93.0                                                        04/16/2023  00:40:21  PAGE 38


      000000E8H   SFRSYM    DATA     BYTE      P6
      000000C8H   SFRSYM    DATA     BYTE      P5
      000000C0H   SFRSYM    DATA     BYTE      P4
      000000B0H   SFRSYM    DATA     BYTE      P3
      000000A0H   SFRSYM    DATA     BYTE      P2
      00000090H   SFRSYM    DATA     BYTE      P1
      00000080H   SFRSYM    DATA     BYTE      P0
      REG=3       REGSYM    ---      ---       dat
      R15         REGSYM    ---      BYTE      i

      ---         MODULE    ---      ---       SEEKFREE_VIRSCO
      0000033BH   PUBLIC    EDATA    ---       virtual_scope_data
      000000D0H   SFRSYM    DATA     BYTE      PSW
      00000088H   SFRSYM    DATA     BYTE      TCON
      00000098H   SFRSYM    DATA     BYTE      SCON
      000000B8H   SFRSYM    DATA     BYTE      IP
      000000A8H   SFRSYM    DATA     BYTE      IE
      000000F8H   SFRSYM    DATA     BYTE      P7
      000000E8H   SFRSYM    DATA     BYTE      P6
      000000C8H   SFRSYM    DATA     BYTE      P5
      000000C0H   SFRSYM    DATA     BYTE      P4
      000000B0H   SFRSYM    DATA     BYTE      P3
      000000A0H   SFRSYM    DATA     BYTE      P2
      00000090H   SFRSYM    DATA     BYTE      P1
      00000080H   SFRSYM    DATA     BYTE      P0
      REG=7       REGSYM    ---      ---       Buf
      R10         REGSYM    ---      BYTE      CRC_CNT
      WR6         REGSYM    ---      WORD      CRC_Temp
      R5          REGSYM    ---      BYTE      i
      R4          REGSYM    ---      BYTE      j
      WR0         REGSYM    ---      INT       data1
      WR30        REGSYM    ---      INT       data2
      WR8         REGSYM    ---      INT       data3
      WR10        REGSYM    ---      INT       data4
      WR6         REGSYM    ---      WORD      CRC16

      ---         MODULE    ---      ---       SEEKFREE_WIRELESS
      00FF2B7CH   PUBLIC    CODE     ---       wireless_uart_callback
      000000D0H   SFRSYM    DATA     BYTE      PSW
      000000FEH   SFRSYM    DATA     BYTE      S4BUF
      00000080H.7 SFRSYM    DATA     BIT       P07
      00000088H   SFRSYM    DATA     BYTE      TCON
      00000098H   SFRSYM    DATA     BYTE      SCON
      000000B8H   SFRSYM    DATA     BYTE      IP
      000000A8H   SFRSYM    DATA     BYTE      IE
      000000F8H   SFRSYM    DATA     BYTE      P7
      000000E8H   SFRSYM    DATA     BYTE      P6
      000000C8H   SFRSYM    DATA     BYTE      P5
      000000C0H   SFRSYM    DATA     BYTE      P4
      000000B0H   SFRSYM    DATA     BYTE      P3
      000000A0H   SFRSYM    DATA     BYTE      P2
      00000090H   SFRSYM    DATA     BYTE      P1
      00000080H   SFRSYM    DATA     BYTE      P0
      000001D6H   SYMBOL    EDATA    BYTE      wireless_uart_data
      000001D7H   SYMBOL    EDATA    ---       wireless_uart_fifo
      000001EBH   SYMBOL    EDATA    ---       wireless_uart_buffer

      00FF2B7CH   BLOCK     CODE     ---       LVL=0
      00FF2B7CH   LINE      CODE     ---       #48
      00FF2B7CH   LINE      CODE     ---       #51
      00FF2B82H   LINE      CODE     ---       #52
      ---         BLOCKEND  ---      ---       LVL=0
      REG=3       REGSYM    ---      ---       buff
      REG=7       REGSYM    ---      ---       buff
      DR8         REGSYM    ---      DWORD     len
L251 LINKER/LOCATER V4.66.93.0                                                        04/16/2023  00:40:21  PAGE 39



      ---         MODULE    ---      ---       SEEKFREE_AT24C02
      000000D0H   SFRSYM    DATA     BYTE      PSW
      00000088H   SFRSYM    DATA     BYTE      TCON
      00000098H   SFRSYM    DATA     BYTE      SCON
      000000B8H   SFRSYM    DATA     BYTE      IP
      000000A8H   SFRSYM    DATA     BYTE      IE
      000000F8H   SFRSYM    DATA     BYTE      P7
      000000E8H   SFRSYM    DATA     BYTE      P6
      000000C8H   SFRSYM    DATA     BYTE      P5
      000000C0H   SFRSYM    DATA     BYTE      P4
      000000B0H   SFRSYM    DATA     BYTE      P3
      000000A0H   SFRSYM    DATA     BYTE      P2
      00000090H   SFRSYM    DATA     BYTE      P1
      00000080H   SFRSYM    DATA     BYTE      P0
      R14         REGSYM    ---      BYTE      byte_reg
      R15         REGSYM    ---      BYTE      dat
      R15         REGSYM    ---      BYTE      byte_reg
      REG=3       REGSYM    ---      ---       dat_add
      REG=3       REGSYM    ---      ---       dat_add

      ---         MODULE    ---      ---       SEEKFREE_BLUETOOTH_CH9141
      00FF2B95H   PUBLIC    CODE     ---       bluetooth_ch9141_uart_callback
      000000D0H   SFRSYM    DATA     BYTE      PSW
      000000FEH   SFRSYM    DATA     BYTE      S4BUF
      00000080H.7 SFRSYM    DATA     BIT       P07
      00000088H   SFRSYM    DATA     BYTE      TCON
      00000098H   SFRSYM    DATA     BYTE      SCON
      000000B8H   SFRSYM    DATA     BYTE      IP
      000000A8H   SFRSYM    DATA     BYTE      IE
      000000F8H   SFRSYM    DATA     BYTE      P7
      000000E8H   SFRSYM    DATA     BYTE      P6
      000000C8H   SFRSYM    DATA     BYTE      P5
      000000C0H   SFRSYM    DATA     BYTE      P4
      000000B0H   SFRSYM    DATA     BYTE      P3
      000000A0H   SFRSYM    DATA     BYTE      P2
      00000090H   SFRSYM    DATA     BYTE      P1
      00000080H   SFRSYM    DATA     BYTE      P0
      0000022BH   SYMBOL    EDATA    ---       bluetooth_ch9141_buffer
      0000026BH   SYMBOL    EDATA    BYTE      bluetooth_ch9141_data
      0000026CH   SYMBOL    EDATA    ---       bluetooth_ch9141_fifo

      00FF2B95H   BLOCK     CODE     ---       LVL=0
      00FF2B95H   LINE      CODE     ---       #67
      00FF2B95H   LINE      CODE     ---       #70
      00FF2B9BH   LINE      CODE     ---       #71
      ---         BLOCKEND  ---      ---       LVL=0
      DR12        REGSYM    ---      DWORD     len
      REG=7       REGSYM    ---      ---       buff
      DR8         REGSYM    ---      DWORD     len

      ---         MODULE    ---      ---       SEEKFREE_WIRELESS_CH573
      00FF2BAEH   PUBLIC    CODE     ---       wireless_ch573_callback
      000000D0H   SFRSYM    DATA     BYTE      PSW
      000000FEH   SFRSYM    DATA     BYTE      S4BUF
      00000080H.7 SFRSYM    DATA     BIT       P07
      00000088H   SFRSYM    DATA     BYTE      TCON
      00000098H   SFRSYM    DATA     BYTE      SCON
      000000B8H   SFRSYM    DATA     BYTE      IP
      000000A8H   SFRSYM    DATA     BYTE      IE
      000000F8H   SFRSYM    DATA     BYTE      P7
      000000E8H   SFRSYM    DATA     BYTE      P6
      000000C8H   SFRSYM    DATA     BYTE      P5
      000000C0H   SFRSYM    DATA     BYTE      P4
      000000B0H   SFRSYM    DATA     BYTE      P3
L251 LINKER/LOCATER V4.66.93.0                                                        04/16/2023  00:40:21  PAGE 40


      000000A0H   SFRSYM    DATA     BYTE      P2
      00000090H   SFRSYM    DATA     BYTE      P1
      00000080H   SFRSYM    DATA     BYTE      P0
      00000280H   SYMBOL    EDATA    ---       wireless_ch573_buffer
      000002C0H   SYMBOL    EDATA    BYTE      wireless_ch573_data
      000002C1H   SYMBOL    EDATA    ---       wireless_ch573_fifo

      00FF2BAEH   BLOCK     CODE     ---       LVL=0
      00FF2BAEH   LINE      CODE     ---       #39
      00FF2BAEH   LINE      CODE     ---       #42
      00FF2BB4H   LINE      CODE     ---       #43
      ---         BLOCKEND  ---      ---       LVL=0
      REG=3       REGSYM    ---      ---       buff
      REG=7       REGSYM    ---      ---       buff
      DR8         REGSYM    ---      DWORD     len

      ---         MODULE    ---      ---       SEEKFREE_VL53L0X
      00FF2612H   PUBLIC    CODE     ---       vl53l0x_get_distance
      00FF1849H   PUBLIC    CODE     ---       vl53l0x_init
      00000354H   PUBLIC    EDATA    WORD      vl53l0x_distance_mm
      00000356H   PUBLIC    EDATA    BYTE      vl53l0x_finsh_flag
      000000D0H   SFRSYM    DATA     BYTE      PSW
      000000C0H.7 SFRSYM    DATA     BIT       P47
      000000C8H.3 SFRSYM    DATA     BIT       P53
      000000C8H.2 SFRSYM    DATA     BIT       P52
      00000088H   SFRSYM    DATA     BYTE      TCON
      00000098H   SFRSYM    DATA     BYTE      SCON
      000000B8H   SFRSYM    DATA     BYTE      IP
      000000A8H   SFRSYM    DATA     BYTE      IE
      000000F8H   SFRSYM    DATA     BYTE      P7
      000000E8H   SFRSYM    DATA     BYTE      P6
      000000C8H   SFRSYM    DATA     BYTE      P5
      000000C0H   SFRSYM    DATA     BYTE      P4
      000000B0H   SFRSYM    DATA     BYTE      P3
      000000A0H   SFRSYM    DATA     BYTE      P2
      00000090H   SFRSYM    DATA     BYTE      P1
      00000080H   SFRSYM    DATA     BYTE      P0
      00FF2B20H   SYMBOL    CODE     ---       vl53l0x_simiic_sendack
      00FF290CH   SYMBOL    CODE     ---       vl53l0x_timeout_microseconds_to_mclks
      00FF2891H   SYMBOL    CODE     ---       vl53l0x_timeout_mclks_to_microseconds
      00FF2AB2H   SYMBOL    CODE     ---       vl53l0x_set_signal_rate_limit
      00FF2948H   SYMBOL    CODE     ---       vl53l0x_read_ch
      00FF2BEFH   SYMBOL    CODE     ---       vl53l0x_decode_timeout
      00FF2A5BH   SYMBOL    CODE     ---       vl53l0x_send_ch
      00FF2023H   SYMBOL    CODE     ---       vl53l0x_get_spad_info
      00FF2A27H   SYMBOL    CODE     ---       vl53l0x_encode_timeout
      00FF266FH   SYMBOL    CODE     ---       vl53l0x_get_sequence_step_enables
      00FF0026H   SYMBOL    CODE     ---       vl53l0x_sccb_waitack
      00FF0046H   SYMBOL    CODE     ---       vl53l0x_simiic_delay
      00FF24BFH   SYMBOL    CODE     ---       vl53l0x_perform_single_ref_calibration
      00FF2363H   SYMBOL    CODE     ---       vl53l0x_get_sequence_step_timeouts
      00FF2BFFH   SYMBOL    CODE     ---       vl53l0x_simiic_start
      00FF271BH   SYMBOL    CODE     ---       vl53l0x_simiic_read_regs
      00FF2536H   SYMBOL    CODE     ---       vl53l0x_get_measurement_timing_budget
      00FF29F2H   SYMBOL    CODE     ---       vl53l0x_simiic_write_dats
      00FF2A89H   SYMBOL    CODE     ---       vl53l0x_simiic_read_reg
      00FF276FH   SYMBOL    CODE     ---       vl53l0x_simiic_read_regs_1
      00FF219FH   SYMBOL    CODE     ---       vl53l0x_set_measurement_timing_budget
      00FF2BDEH   SYMBOL    CODE     ---       vl53l0x_simiic_stop
      00FF2AFEH   SYMBOL    CODE     ---       vl53l0x_simiic_write_reg
      00FF27C3H   SYMBOL    CODE     ---       vl53l0x_get_vcsel_pulse_period

      00FF0046H   BLOCK     CODE     ---       LVL=0
      WR6         REGSYM    ---      WORD      j
      00FF0046H   LINE      CODE     ---       #77
L251 LINKER/LOCATER V4.66.93.0                                                        04/16/2023  00:40:21  PAGE 41


      00FF0046H   LINE      CODE     ---       #78
      00FF0046H   LINE      CODE     ---       #79
      00FF004AH   LINE      CODE     ---       #80
      00FF0052H   LINE      CODE     ---       #81
      ---         BLOCKEND  ---      ---       LVL=0

      00FF2BFFH   BLOCK     CODE     ---       LVL=0
      00FF2BFFH   LINE      CODE     ---       #84
      00FF2BFFH   LINE      CODE     ---       #86
      00FF2C01H   LINE      CODE     ---       #87
      00FF2C03H   LINE      CODE     ---       #88
      00FF2C06H   LINE      CODE     ---       #89
      00FF2C08H   LINE      CODE     ---       #90
      00FF2C0BH   LINE      CODE     ---       #91
      00FF2C0DH   LINE      CODE     ---       #92
      ---         BLOCKEND  ---      ---       LVL=0

      00FF2BDEH   BLOCK     CODE     ---       LVL=0
      00FF2BDEH   LINE      CODE     ---       #95
      00FF2BDEH   LINE      CODE     ---       #97
      00FF2BE0H   LINE      CODE     ---       #98
      00FF2BE2H   LINE      CODE     ---       #99
      00FF2BE5H   LINE      CODE     ---       #100
      00FF2BE7H   LINE      CODE     ---       #101
      00FF2BEAH   LINE      CODE     ---       #102
      00FF2BECH   LINE      CODE     ---       #103
      ---         BLOCKEND  ---      ---       LVL=0

      00FF2B20H   BLOCK     CODE     ---       LVL=0
      R15         REGSYM    ---      BYTE      ack_dat
      00FF2B20H   LINE      CODE     ---       #108
      00FF2B24H   LINE      CODE     ---       #110
      00FF2B26H   LINE      CODE     ---       #111
      00FF2B29H   LINE      CODE     ---       #112
      00FF2B31H   LINE      CODE     ---       #113
      00FF2B33H   LINE      CODE     ---       #115
      00FF2B35H   LINE      CODE     ---       #116
      00FF2B38H   LINE      CODE     ---       #117
      00FF2B3AH   LINE      CODE     ---       #118
      00FF2B3DH   LINE      CODE     ---       #119
      ---         BLOCKEND  ---      ---       LVL=0

      00FF0026H   BLOCK     CODE     ---       LVL=0
      00FF0026H   LINE      CODE     ---       #122
      00FF0026H   LINE      CODE     ---       #124
      00FF0028H   LINE      CODE     ---       #126
      00FF002BH   LINE      CODE     ---       #128
      00FF002DH   LINE      CODE     ---       #129
      00FF0030H   LINE      CODE     ---       #131
      00FF0033H   LINE      CODE     ---       #134
      00FF0035H   LINE      CODE     ---       #135
      00FF0038H   LINE      CODE     ---       #136
      00FF0038H   LINE      CODE     ---       #138
      00FF003AH   LINE      CODE     ---       #139
      00FF003DH   LINE      CODE     ---       #140
      00FF0041H   LINE      CODE     ---       #141
      ---         BLOCKEND  ---      ---       LVL=0

      00FF2A5BH   BLOCK     CODE     ---       LVL=0
      R15         REGSYM    ---      BYTE      c
      00FF2A5FH   BLOCK     CODE     NEAR LAB  LVL=1
      R14         REGSYM    ---      BYTE      i
      ---         BLOCKEND  ---      ---       LVL=1
      00FF2A5BH   LINE      CODE     ---       #147
      00FF2A5FH   LINE      CODE     ---       #148
L251 LINKER/LOCATER V4.66.93.0                                                        04/16/2023  00:40:21  PAGE 42


      00FF2A5FH   LINE      CODE     ---       #149
      00FF2A62H   LINE      CODE     ---       #150
      00FF2A64H   LINE      CODE     ---       #152
      00FF2A6DH   LINE      CODE     ---       #153
      00FF2A6FH   LINE      CODE     ---       #154
      00FF2A71H   LINE      CODE     ---       #155
      00FF2A74H   LINE      CODE     ---       #156
      00FF2A76H   LINE      CODE     ---       #157
      00FF2A79H   LINE      CODE     ---       #158
      00FF2A7BH   LINE      CODE     ---       #159
      00FF2A83H   LINE      CODE     ---       #160
      00FF2A86H   LINE      CODE     ---       #161
      ---         BLOCKEND  ---      ---       LVL=0

      00FF2948H   BLOCK     CODE     ---       LVL=0
      R15         REGSYM    ---      BYTE      ack_x
      00FF294EH   BLOCK     CODE     NEAR LAB  LVL=1
      R13         REGSYM    ---      BYTE      i
      R14         REGSYM    ---      BYTE      c
      ---         BLOCKEND  ---      ---       LVL=1
      00FF2948H   LINE      CODE     ---       #167
      00FF294EH   LINE      CODE     ---       #168
      00FF294EH   LINE      CODE     ---       #171
      00FF2950H   LINE      CODE     ---       #172
      00FF2952H   LINE      CODE     ---       #173
      00FF2955H   LINE      CODE     ---       #174
      00FF2957H   LINE      CODE     ---       #176
      00FF295AH   LINE      CODE     ---       #178
      00FF295DH   LINE      CODE     ---       #179
      00FF295FH   LINE      CODE     ---       #180
      00FF2962H   LINE      CODE     ---       #181
      00FF2964H   LINE      CODE     ---       #182
      00FF2967H   LINE      CODE     ---       #183
      00FF2969H   LINE      CODE     ---       #184
      00FF296CH   LINE      CODE     ---       #186
      00FF296EH   LINE      CODE     ---       #187
      00FF2972H   LINE      CODE     ---       #190
      00FF2974H   LINE      CODE     ---       #191
      00FF2977H   LINE      CODE     ---       #192
      00FF297CH   LINE      CODE     ---       #194
      00FF297EH   LINE      CODE     ---       #195
      ---         BLOCKEND  ---      ---       LVL=0

      00FF29F2H   BLOCK     CODE     ---       LVL=0
      00000316H   SYMBOL    EDATA    BYTE      dev_add
      00000317H   SYMBOL    EDATA    ---       dat
      DR12        REGSYM    ---      DWORD     len
      00FF29F2H   LINE      CODE     ---       #207
      00FF29FEH   LINE      CODE     ---       #209
      00FF2A01H   LINE      CODE     ---       #210
      00FF2A07H   LINE      CODE     ---       #211
      00FF2A09H   LINE      CODE     ---       #213
      00FF2A19H   LINE      CODE     ---       #214
      00FF2A21H   LINE      CODE     ---       #217
      00FF2A24H   LINE      CODE     ---       #218
      ---         BLOCKEND  ---      ---       LVL=0

      00FF2AFEH   BLOCK     CODE     ---       LVL=0
      R13         REGSYM    ---      BYTE      dev_add
      R14         REGSYM    ---      BYTE      reg
      R15         REGSYM    ---      BYTE      dat
      00FF2AFEH   LINE      CODE     ---       #230
      00FF2B06H   LINE      CODE     ---       #232
      00FF2B09H   LINE      CODE     ---       #233
      00FF2B0EH   LINE      CODE     ---       #234
L251 LINKER/LOCATER V4.66.93.0                                                        04/16/2023  00:40:21  PAGE 43


      00FF2B13H   LINE      CODE     ---       #235
      00FF2B18H   LINE      CODE     ---       #236
      00FF2B1BH   LINE      CODE     ---       #237
      ---         BLOCKEND  ---      ---       LVL=0

      00FF2A89H   BLOCK     CODE     ---       LVL=0
      R15         REGSYM    ---      BYTE      dev_add
      R14         REGSYM    ---      BYTE      reg
      00FF2A8FH   BLOCK     CODE     NEAR LAB  LVL=1
      R15         REGSYM    ---      BYTE      dat
      ---         BLOCKEND  ---      ---       LVL=1
      00FF2A89H   LINE      CODE     ---       #248
      00FF2A8FH   LINE      CODE     ---       #249
      00FF2A8FH   LINE      CODE     ---       #251
      00FF2A92H   LINE      CODE     ---       #252
      00FF2A97H   LINE      CODE     ---       #253
      00FF2A9CH   LINE      CODE     ---       #256
      00FF2A9FH   LINE      CODE     ---       #257
      00FF2AA8H   LINE      CODE     ---       #258
      00FF2AACH   LINE      CODE     ---       #259
      00FF2AAFH   LINE      CODE     ---       #261
      00FF2AAFH   LINE      CODE     ---       #262
      ---         BLOCKEND  ---      ---       LVL=0

      00FF271BH   BLOCK     CODE     ---       LVL=0
      0000031DH   SYMBOL    EDATA    BYTE      dev_add
      0000031EH   SYMBOL    EDATA    BYTE      reg
      REG=3       REGSYM    ---      ---       dat_add
      0000031FH   SYMBOL    EDATA    DWORD     num
      00FF271BH   LINE      CODE     ---       #275
      00FF2727H   LINE      CODE     ---       #277
      00FF272AH   LINE      CODE     ---       #278
      00FF2733H   LINE      CODE     ---       #279
      00FF273AH   LINE      CODE     ---       #282
      00FF273DH   LINE      CODE     ---       #283
      00FF2748H   LINE      CODE     ---       #284
      00FF274AH   LINE      CODE     ---       #286
      00FF2752H   LINE      CODE     ---       #287
      00FF2754H   LINE      CODE     ---       #288
      00FF2762H   LINE      CODE     ---       #289
      00FF2769H   LINE      CODE     ---       #290
      00FF276CH   LINE      CODE     ---       #291
      ---         BLOCKEND  ---      ---       LVL=0

      00FF276FH   BLOCK     CODE     ---       LVL=0
      000002E4H   SYMBOL    EDATA    BYTE      dev_add
      000002E5H   SYMBOL    EDATA    BYTE      reg
      REG=3       REGSYM    ---      ---       dat_add
      000002E6H   SYMBOL    EDATA    DWORD     num
      00FF276FH   LINE      CODE     ---       #304
      00FF277BH   LINE      CODE     ---       #306
      00FF277EH   LINE      CODE     ---       #307
      00FF2787H   LINE      CODE     ---       #308
      00FF278EH   LINE      CODE     ---       #311
      00FF2791H   LINE      CODE     ---       #312
      00FF279CH   LINE      CODE     ---       #313
      00FF279EH   LINE      CODE     ---       #315
      00FF27A6H   LINE      CODE     ---       #316
      00FF27A8H   LINE      CODE     ---       #317
      00FF27B6H   LINE      CODE     ---       #318
      00FF27BDH   LINE      CODE     ---       #319
      00FF27C0H   LINE      CODE     ---       #320
      ---         BLOCKEND  ---      ---       LVL=0

      00FF2023H   BLOCK     CODE     ---       LVL=0
L251 LINKER/LOCATER V4.66.93.0                                                        04/16/2023  00:40:21  PAGE 44


      000002F3H   SYMBOL    EDATA    ---       index
      REG=3       REGSYM    ---      ---       type_is_aperture
      00FF202BH   BLOCK     CODE     NEAR LAB  LVL=1
      000002F7H   SYMBOL    EDATA    BYTE      tmp
      000002F8H   SYMBOL    EDATA    BYTE      return_state
      000002F9H   SYMBOL    EDATA    WORD      loop_count
      ---         BLOCKEND  ---      ---       LVL=1
      00FF2023H   LINE      CODE     ---       #352
      00FF202BH   LINE      CODE     ---       #353
      00FF202BH   LINE      CODE     ---       #354
      00FF2030H   LINE      CODE     ---       #355
      00FF2034H   LINE      CODE     ---       #356
      00FF203AH   LINE      CODE     ---       #358
      00FF203AH   LINE      CODE     ---       #360
      00FF2045H   LINE      CODE     ---       #361
      00FF2050H   LINE      CODE     ---       #362
      00FF2059H   LINE      CODE     ---       #364
      00FF2064H   LINE      CODE     ---       #365
      00FF2078H   LINE      CODE     ---       #366
      00FF2087H   LINE      CODE     ---       #367
      00FF2092H   LINE      CODE     ---       #368
      00FF209DH   LINE      CODE     ---       #370
      00FF20A8H   LINE      CODE     ---       #372
      00FF20B3H   LINE      CODE     ---       #373
      00FF20BDH   LINE      CODE     ---       #375
      00FF20C2H   LINE      CODE     ---       #376
      00FF20C4H   LINE      CODE     ---       #378
      00FF20D8H   LINE      CODE     ---       #379
      00FF20E2H   LINE      CODE     ---       #380
      00FF20ECH   LINE      CODE     ---       #382
      00FF20F2H   LINE      CODE     ---       #383
      00FF20F4H   LINE      CODE     ---       #384
      00FF20FBH   LINE      CODE     ---       #387
      00FF2104H   LINE      CODE     ---       #389
      00FF2104H   LINE      CODE     ---       #390
      00FF2104H   LINE      CODE     ---       #391
      00FF210FH   LINE      CODE     ---       #392
      00FF2123H   LINE      CODE     ---       #394
      00FF2130H   LINE      CODE     ---       #395
      00FF213AH   LINE      CODE     ---       #397
      00FF2144H   LINE      CODE     ---       #398
      00FF214FH   LINE      CODE     ---       #399
      00FF2163H   LINE      CODE     ---       #400
      00FF216FH   LINE      CODE     ---       #401
      00FF217AH   LINE      CODE     ---       #402
      00FF2184H   LINE      CODE     ---       #404
      00FF218EH   LINE      CODE     ---       #405
      00FF2198H   LINE      CODE     ---       #406
      00FF2198H   LINE      CODE     ---       #408
      00FF219CH   LINE      CODE     ---       #409
      ---         BLOCKEND  ---      ---       LVL=0

      00FF2891H   BLOCK     CODE     ---       LVL=0
      WR30        REGSYM    ---      WORD      timeout_period_mclks
      R5          REGSYM    ---      BYTE      vcsel_period_pclks
      00FF2893H   BLOCK     CODE     NEAR LAB  LVL=1
      DR24        REGSYM    ---      DWORD     macro_period_ns
      ---         BLOCKEND  ---      ---       LVL=1
      00FF2891H   LINE      CODE     ---       #419
      00FF2893H   LINE      CODE     ---       #420
      00FF2893H   LINE      CODE     ---       #421
      00FF28B4H   LINE      CODE     ---       #423
      ---         BLOCKEND  ---      ---       LVL=0

      00FF290CH   BLOCK     CODE     ---       LVL=0
L251 LINKER/LOCATER V4.66.93.0                                                        04/16/2023  00:40:21  PAGE 45


      DR28        REGSYM    ---      DWORD     timeout_period_us
      R3          REGSYM    ---      BYTE      vcsel_period_pclks
      00FF290EH   BLOCK     CODE     NEAR LAB  LVL=1
      DR8         REGSYM    ---      DWORD     macro_period_ns
      ---         BLOCKEND  ---      ---       LVL=1
      00FF290CH   LINE      CODE     ---       #434
      00FF290EH   LINE      CODE     ---       #435
      00FF290EH   LINE      CODE     ---       #436
      00FF292FH   LINE      CODE     ---       #438
      ---         BLOCKEND  ---      ---       LVL=0

      00FF2BEFH   BLOCK     CODE     ---       LVL=0
      WR4         REGSYM    ---      WORD      reg_val
      00FF2BEFH   LINE      CODE     ---       #448
      00FF2BF1H   LINE      CODE     ---       #451
      00FF2BFEH   LINE      CODE     ---       #453
      ---         BLOCKEND  ---      ---       LVL=0

      00FF2A27H   BLOCK     CODE     ---       LVL=0
      WR2         REGSYM    ---      WORD      timeout_mclks
      00FF2A29H   BLOCK     CODE     NEAR LAB  LVL=1
      DR8         REGSYM    ---      DWORD     ls_byte
      WR4         REGSYM    ---      WORD      ms_byte
      WR6         REGSYM    ---      WORD      return_data
      ---         BLOCKEND  ---      ---       LVL=1
      00FF2A27H   LINE      CODE     ---       #462
      00FF2A29H   LINE      CODE     ---       #463
      00FF2A29H   LINE      CODE     ---       #464
      00FF2A29H   LINE      CODE     ---       #465
      00FF2A2DH   LINE      CODE     ---       #466
      00FF2A2DH   LINE      CODE     ---       #468
      00FF2A33H   LINE      CODE     ---       #471
      00FF2A39H   LINE      CODE     ---       #472
      00FF2A3BH   LINE      CODE     ---       #474
      00FF2A44H   LINE      CODE     ---       #475
      00FF2A46H   LINE      CODE     ---       #476
      00FF2A50H   LINE      CODE     ---       #477
      00FF2A5AH   LINE      CODE     ---       #478
      00FF2A5AH   LINE      CODE     ---       #479
      00FF2A5AH   LINE      CODE     ---       #480
      ---         BLOCKEND  ---      ---       LVL=0

      00FF266FH   BLOCK     CODE     ---       LVL=0
      REG=3       REGSYM    ---      ---       enables
      00FF2673H   BLOCK     CODE     NEAR LAB  LVL=1
      00000316H   SYMBOL    EDATA    BYTE      sequence_config
      ---         BLOCKEND  ---      ---       LVL=1
      00FF266FH   LINE      CODE     ---       #489
      00FF2673H   LINE      CODE     ---       #490
      00FF2673H   LINE      CODE     ---       #491
      00FF2678H   LINE      CODE     ---       #492
      00FF2689H   LINE      CODE     ---       #494
      00FF2693H   LINE      CODE     ---       #495
      00FF269FH   LINE      CODE     ---       #496
      00FF26ADH   LINE      CODE     ---       #497
      00FF26B9H   LINE      CODE     ---       #498
      00FF26C4H   LINE      CODE     ---       #499
      ---         BLOCKEND  ---      ---       LVL=0

      00FF27C3H   BLOCK     CODE     ---       LVL=0
      WR6         REGSYM    ---      INT       type
      0000031CH   SYMBOL    EDATA    BYTE      data_buffer
      00FF27C3H   LINE      CODE     ---       #508
      00FF27C3H   LINE      CODE     ---       #509
      00FF27C3H   LINE      CODE     ---       #510
L251 LINKER/LOCATER V4.66.93.0                                                        04/16/2023  00:40:21  PAGE 46


      00FF27C8H   LINE      CODE     ---       #511
      00FF27CCH   LINE      CODE     ---       #513
      00FF27D9H   LINE      CODE     ---       #514
      00FF27D9H   LINE      CODE     ---       #515
      00FF27DBH   LINE      CODE     ---       #516
      00FF27E1H   LINE      CODE     ---       #518
      00FF27F5H   LINE      CODE     ---       #519
      00FF2803H   LINE      CODE     ---       #520
      00FF2805H   LINE      CODE     ---       #523
      00FF280BH   LINE      CODE     ---       #524
      00FF280BH   LINE      CODE     ---       #525
      00FF280FH   LINE      CODE     ---       #526
      ---         BLOCKEND  ---      ---       LVL=0

      00FF2363H   BLOCK     CODE     ---       LVL=0
      00000316H   SYMBOL    EDATA    ---       enables
      REG=3       REGSYM    ---      ---       timeouts
      00FF236BH   BLOCK     CODE     NEAR LAB  LVL=1
      0000031AH   SYMBOL    EDATA    ---       reg_buffer
      WR6         REGSYM    ---      WORD      reg16_buffer
      ---         BLOCKEND  ---      ---       LVL=1
      00FF2363H   LINE      CODE     ---       #536
      00FF236BH   LINE      CODE     ---       #537
      00FF236BH   LINE      CODE     ---       #539
      00FF236BH   LINE      CODE     ---       #541
      00FF2375H   LINE      CODE     ---       #543
      00FF2389H   LINE      CODE     ---       #544
      00FF2395H   LINE      CODE     ---       #545
      00FF23A3H   LINE      CODE     ---       #547
      00FF23B7H   LINE      CODE     ---       #548
      00FF23C3H   LINE      CODE     ---       #549
      00FF23CAH   LINE      CODE     ---       #550
      00FF23D8H   LINE      CODE     ---       #552
      00FF23E5H   LINE      CODE     ---       #554
      00FF23F9H   LINE      CODE     ---       #555
      00FF2405H   LINE      CODE     ---       #556
      00FF240CH   LINE      CODE     ---       #558
      00FF2416H   LINE      CODE     ---       #560
      00FF2428H   LINE      CODE     ---       #561
      00FF2428H   LINE      CODE     ---       #563
      00FF243BH   LINE      CODE     ---       #564
      ---         BLOCKEND  ---      ---       LVL=0

      00FF24BFH   BLOCK     CODE     ---       LVL=0
      R10         REGSYM    ---      BYTE      vhv_init_byte
      00FF24C3H   BLOCK     CODE     NEAR LAB  LVL=1
      R15         REGSYM    ---      BYTE      return_state
      000002F3H   SYMBOL    EDATA    BYTE      data_buffer
      000002F4H   SYMBOL    EDATA    WORD      loop_count
      ---         BLOCKEND  ---      ---       LVL=1
      00FF24BFH   LINE      CODE     ---       #573
      00FF24C3H   LINE      CODE     ---       #574
      00FF24C3H   LINE      CODE     ---       #575
      00FF24C5H   LINE      CODE     ---       #576
      00FF24CAH   LINE      CODE     ---       #577
      00FF24D0H   LINE      CODE     ---       #578
      00FF24D0H   LINE      CODE     ---       #580
      00FF24DAH   LINE      CODE     ---       #581
      00FF24DAH   LINE      CODE     ---       #582
      00FF24DCH   LINE      CODE     ---       #584
      00FF24E6H   LINE      CODE     ---       #586
      00FF24E9H   LINE      CODE     ---       #587
      00FF24EBH   LINE      CODE     ---       #588
      00FF24EBH   LINE      CODE     ---       #589
      00FF24FDH   LINE      CODE     ---       #591
L251 LINKER/LOCATER V4.66.93.0                                                        04/16/2023  00:40:21  PAGE 47


      00FF2511H   LINE      CODE     ---       #592
      00FF2519H   LINE      CODE     ---       #594
      00FF251DH   LINE      CODE     ---       #596
      00FF251DH   LINE      CODE     ---       #597
      00FF251DH   LINE      CODE     ---       #598
      00FF2528H   LINE      CODE     ---       #599
      00FF2531H   LINE      CODE     ---       #600
      00FF2531H   LINE      CODE     ---       #602
      00FF2533H   LINE      CODE     ---       #603
      ---         BLOCKEND  ---      ---       LVL=0

      00FF219FH   BLOCK     CODE     ---       LVL=0
      DR12        REGSYM    ---      DWORD     budget_us
      00FF21A3H   BLOCK     CODE     NEAR LAB  LVL=1
      000002F3H   SYMBOL    EDATA    BYTE      return_state
      000002F4H   SYMBOL    EDATA    ---       data_buffer
      WR6         REGSYM    ---      WORD      dat
      000002F7H   SYMBOL    EDATA    DWORD     used_budget_us
      DR4         REGSYM    ---      DWORD     final_range_timeout_us
      WR6         REGSYM    ---      WORD      final_range_timeout_mclks
      000002FBH   SYMBOL    EDATA    ---       enables
      00000300H   SYMBOL    EDATA    ---       timeouts
      ---         BLOCKEND  ---      ---       LVL=1
      00FF219FH   LINE      CODE     ---       #616
      00FF21A3H   LINE      CODE     ---       #617
      00FF21A3H   LINE      CODE     ---       #618
      00FF21A8H   LINE      CODE     ---       #620
      00FF21A8H   LINE      CODE     ---       #628
      00FF21A8H   LINE      CODE     ---       #630
      00FF21AEH   LINE      CODE     ---       #632
      00FF21AEH   LINE      CODE     ---       #633
      00FF21B1H   LINE      CODE     ---       #634
      00FF21B1H   LINE      CODE     ---       #636
      00FF21B9H   LINE      CODE     ---       #637
      00FF21C0H   LINE      CODE     ---       #638
      00FF21CBH   LINE      CODE     ---       #640
      00FF21D1H   LINE      CODE     ---       #642
      00FF21E1H   LINE      CODE     ---       #643
      00FF21E1H   LINE      CODE     ---       #645
      00FF21E7H   LINE      CODE     ---       #647
      00FF21F3H   LINE      CODE     ---       #648
      00FF21F5H   LINE      CODE     ---       #649
      00FF21FBH   LINE      CODE     ---       #651
      00FF220DH   LINE      CODE     ---       #652
      00FF220DH   LINE      CODE     ---       #654
      00FF2213H   LINE      CODE     ---       #656
      00FF2225H   LINE      CODE     ---       #657
      00FF2225H   LINE      CODE     ---       #659
      00FF222BH   LINE      CODE     ---       #664
      00FF2237H   LINE      CODE     ---       #665
      00FF223FH   LINE      CODE     ---       #668
      00FF2245H   LINE      CODE     ---       #669
      00FF2247H   LINE      CODE     ---       #670
      00FF2247H   LINE      CODE     ---       #675
      00FF224BH   LINE      CODE     ---       #676
      00FF2252H   LINE      CODE     ---       #680
      00FF2258H   LINE      CODE     ---       #682
      00FF225EH   LINE      CODE     ---       #683
      00FF225EH   LINE      CODE     ---       #685
      00FF2261H   LINE      CODE     ---       #686
      00FF2267H   LINE      CODE     ---       #687
      00FF226BH   LINE      CODE     ---       #688
      00FF226FH   LINE      CODE     ---       #689
      00FF227CH   LINE      CODE     ---       #690
      00FF227CH   LINE      CODE     ---       #692
L251 LINKER/LOCATER V4.66.93.0                                                        04/16/2023  00:40:21  PAGE 48


      00FF2280H   LINE      CODE     ---       #693
      ---         BLOCKEND  ---      ---       LVL=0

      00FF2536H   BLOCK     CODE     ---       LVL=0
      00FF2538H   BLOCK     CODE     NEAR LAB  LVL=1
      000002F3H   SYMBOL    EDATA    ---       enables
      000002F8H   SYMBOL    EDATA    ---       timeouts
      DR12        REGSYM    ---      DWORD     budget_us
      ---         BLOCKEND  ---      ---       LVL=1
      00FF2536H   LINE      CODE     ---       #702
      00FF2538H   LINE      CODE     ---       #703
      00FF2538H   LINE      CODE     ---       #708
      00FF253CH   LINE      CODE     ---       #710
      00FF2543H   LINE      CODE     ---       #711
      00FF254EH   LINE      CODE     ---       #713
      00FF2554H   LINE      CODE     ---       #715
      00FF2560H   LINE      CODE     ---       #716
      00FF2560H   LINE      CODE     ---       #718
      00FF2566H   LINE      CODE     ---       #720
      00FF2572H   LINE      CODE     ---       #721
      00FF2574H   LINE      CODE     ---       #722
      00FF257AH   LINE      CODE     ---       #724
      00FF2584H   LINE      CODE     ---       #725
      00FF2584H   LINE      CODE     ---       #727
      00FF258AH   LINE      CODE     ---       #729
      00FF2594H   LINE      CODE     ---       #730
      00FF2594H   LINE      CODE     ---       #732
      00FF259AH   LINE      CODE     ---       #734
      00FF25A4H   LINE      CODE     ---       #735
      00FF25A4H   LINE      CODE     ---       #737
      00FF25A6H   LINE      CODE     ---       #738
      ---         BLOCKEND  ---      ---       LVL=0

      00FF2AB2H   BLOCK     CODE     ---       LVL=0
      DR4         REGSYM    ---      FLOAT     limit_mcps
      000002F3H   SYMBOL    EDATA    ---       data_buffer
      WR6         REGSYM    ---      WORD      limit_mcps_16bit
      00FF2AB2H   LINE      CODE     ---       #751
      00FF2AB2H   LINE      CODE     ---       #752
      00FF2AB2H   LINE      CODE     ---       #754
      00FF2ABEH   LINE      CODE     ---       #758
      00FF2AC4H   LINE      CODE     ---       #759
      00FF2AC8H   LINE      CODE     ---       #760
      00FF2ACCH   LINE      CODE     ---       #762
      ---         BLOCKEND  ---      ---       LVL=0

      00FF2612H   BLOCK     CODE     ---       LVL=0
      000002E1H   SYMBOL    EDATA    ---       reg_databuffer
      00FF2612H   LINE      CODE     ---       #772
      00FF2612H   LINE      CODE     ---       #773
      00FF2612H   LINE      CODE     ---       #776
      00FF2626H   LINE      CODE     ---       #777
      00FF262EH   LINE      CODE     ---       #779
      00FF262FH   LINE      CODE     ---       #780
      00FF2631H   LINE      CODE     ---       #784
      00FF2645H   LINE      CODE     ---       #785
      00FF264FH   LINE      CODE     ---       #786
      00FF265DH   LINE      CODE     ---       #788
      00FF2668H   LINE      CODE     ---       #789
      00FF266EH   LINE      CODE     ---       #790
      00FF266EH   LINE      CODE     ---       #791
      ---         BLOCKEND  ---      ---       LVL=0

      00FF1849H   BLOCK     CODE     ---       LVL=0
      00FF184DH   BLOCK     CODE     NEAR LAB  LVL=1
L251 LINKER/LOCATER V4.66.93.0                                                        04/16/2023  00:40:21  PAGE 49


      000002E1H   SYMBOL    EDATA    DWORD     measurement_timing_budget_us
      000002E5H   SYMBOL    EDATA    BYTE      stop_variable
      R15         REGSYM    ---      BYTE      return_state
      R14         REGSYM    ---      BYTE      reg_data_buffer
      000002E6H   SYMBOL    EDATA    ---       ref_spad_map
      000002ECH   SYMBOL    EDATA    ---       data_buffer
      R13         REGSYM    ---      BYTE      i
      ---         BLOCKEND  ---      ---       LVL=1
      00FF1849H   LINE      CODE     ---       #800
      00FF184DH   LINE      CODE     ---       #801
      00FF184DH   LINE      CODE     ---       #802
      00FF184DH   LINE      CODE     ---       #803
      00FF1852H   LINE      CODE     ---       #804
      00FF1854H   LINE      CODE     ---       #805
      00FF1854H   LINE      CODE     ---       #808
      00FF1854H   LINE      CODE     ---       #810
      00FF185FH   LINE      CODE     ---       #811
      00FF186BH   LINE      CODE     ---       #815
      00FF186BH   LINE      CODE     ---       #817
      00FF1872H   LINE      CODE     ---       #818
      00FF1874H   LINE      CODE     ---       #819
      00FF187BH   LINE      CODE     ---       #820
      00FF187DH   LINE      CODE     ---       #821
      00FF1884H   LINE      CODE     ---       #824
      00FF188EH   LINE      CODE     ---       #825
      00FF189BH   LINE      CODE     ---       #827
      00FF18A5H   LINE      CODE     ---       #829
      00FF18B0H   LINE      CODE     ---       #830
      00FF18BBH   LINE      CODE     ---       #831
      00FF18C4H   LINE      CODE     ---       #833
      00FF18D8H   LINE      CODE     ---       #835
      00FF18E2H   LINE      CODE     ---       #836
      00FF18ECH   LINE      CODE     ---       #837
      00FF18F6H   LINE      CODE     ---       #840
      00FF1900H   LINE      CODE     ---       #841
      00FF190DH   LINE      CODE     ---       #843
      00FF1916H   LINE      CODE     ---       #844
      00FF1921H   LINE      CODE     ---       #848
      00FF192EH   LINE      CODE     ---       #850
      00FF1931H   LINE      CODE     ---       #855
      00FF193CH   LINE      CODE     ---       #856
      00FF193FH   LINE      CODE     ---       #857
      00FF193FH   LINE      CODE     ---       #860
      00FF1953H   LINE      CODE     ---       #862
      00FF195EH   LINE      CODE     ---       #863
      00FF1968H   LINE      CODE     ---       #864
      00FF1973H   LINE      CODE     ---       #865
      00FF197DH   LINE      CODE     ---       #866
      00FF1988H   LINE      CODE     ---       #868
      00FF1999H   LINE      CODE     ---       #869
      00FF199BH   LINE      CODE     ---       #871
      00FF19ADH   LINE      CODE     ---       #876
      00FF19DBH   LINE      CODE     ---       #877
      00FF19DDH   LINE      CODE     ---       #878
      00FF1A00H   LINE      CODE     ---       #880
      00FF1A09H   LINE      CODE     ---       #881
      00FF1A10H   LINE      CODE     ---       #884
      00FF1A16H   LINE      CODE     ---       #885
      00FF1A19H   LINE      CODE     ---       #887
      00FF1A23H   LINE      CODE     ---       #888
      00FF1A2AH   LINE      CODE     ---       #889
      00FF1A37H   LINE      CODE     ---       #892
      00FF1A42H   LINE      CODE     ---       #893
      00FF1A4BH   LINE      CODE     ---       #894
      00FF1A55H   LINE      CODE     ---       #895
L251 LINKER/LOCATER V4.66.93.0                                                        04/16/2023  00:40:21  PAGE 50


      00FF1A5FH   LINE      CODE     ---       #896
      00FF1A69H   LINE      CODE     ---       #897
      00FF1A73H   LINE      CODE     ---       #898
      00FF1A7EH   LINE      CODE     ---       #899
      00FF1A89H   LINE      CODE     ---       #900
      00FF1A93H   LINE      CODE     ---       #901
      00FF1A9EH   LINE      CODE     ---       #902
      00FF1AA9H   LINE      CODE     ---       #903
      00FF1AB3H   LINE      CODE     ---       #904
      00FF1ABEH   LINE      CODE     ---       #905
      00FF1AC8H   LINE      CODE     ---       #906
      00FF1AD3H   LINE      CODE     ---       #907
      00FF1ADDH   LINE      CODE     ---       #908
      00FF1AE8H   LINE      CODE     ---       #909
      00FF1AF3H   LINE      CODE     ---       #910
      00FF1AFEH   LINE      CODE     ---       #911
      00FF1B09H   LINE      CODE     ---       #912
      00FF1B13H   LINE      CODE     ---       #913
      00FF1B1DH   LINE      CODE     ---       #914
      00FF1B28H   LINE      CODE     ---       #915
      00FF1B32H   LINE      CODE     ---       #916
      00FF1B3DH   LINE      CODE     ---       #917
      00FF1B48H   LINE      CODE     ---       #918
      00FF1B53H   LINE      CODE     ---       #919
      00FF1B5DH   LINE      CODE     ---       #920
      00FF1B67H   LINE      CODE     ---       #921
      00FF1B71H   LINE      CODE     ---       #922
      00FF1B7BH   LINE      CODE     ---       #923
      00FF1B86H   LINE      CODE     ---       #924
      00FF1B91H   LINE      CODE     ---       #925
      00FF1B9CH   LINE      CODE     ---       #926
      00FF1BA7H   LINE      CODE     ---       #927
      00FF1BB2H   LINE      CODE     ---       #928
      00FF1BBCH   LINE      CODE     ---       #929
      00FF1BC6H   LINE      CODE     ---       #930
      00FF1BD1H   LINE      CODE     ---       #931
      00FF1BDBH   LINE      CODE     ---       #932
      00FF1BE6H   LINE      CODE     ---       #933
      00FF1BF1H   LINE      CODE     ---       #934
      00FF1BFCH   LINE      CODE     ---       #935
      00FF1C06H   LINE      CODE     ---       #936
      00FF1C11H   LINE      CODE     ---       #937
      00FF1C1CH   LINE      CODE     ---       #938
      00FF1C27H   LINE      CODE     ---       #939
      00FF1C32H   LINE      CODE     ---       #940
      00FF1C3DH   LINE      CODE     ---       #941
      00FF1C48H   LINE      CODE     ---       #942
      00FF1C53H   LINE      CODE     ---       #943
      00FF1C5DH   LINE      CODE     ---       #944
      00FF1C68H   LINE      CODE     ---       #945
      00FF1C73H   LINE      CODE     ---       #946
      00FF1C7EH   LINE      CODE     ---       #947
      00FF1C89H   LINE      CODE     ---       #948
      00FF1C94H   LINE      CODE     ---       #949
      00FF1C9FH   LINE      CODE     ---       #950
      00FF1CAAH   LINE      CODE     ---       #951
      00FF1CB4H   LINE      CODE     ---       #952
      00FF1CBEH   LINE      CODE     ---       #953
      00FF1CC9H   LINE      CODE     ---       #954
      00FF1CD4H   LINE      CODE     ---       #955
      00FF1CDFH   LINE      CODE     ---       #956
      00FF1CE9H   LINE      CODE     ---       #957
      00FF1CF4H   LINE      CODE     ---       #958
      00FF1CFFH   LINE      CODE     ---       #959
      00FF1D0AH   LINE      CODE     ---       #960
L251 LINKER/LOCATER V4.66.93.0                                                        04/16/2023  00:40:21  PAGE 51


      00FF1D14H   LINE      CODE     ---       #961
      00FF1D1EH   LINE      CODE     ---       #962
      00FF1D29H   LINE      CODE     ---       #963
      00FF1D34H   LINE      CODE     ---       #964
      00FF1D3EH   LINE      CODE     ---       #965
      00FF1D49H   LINE      CODE     ---       #966
      00FF1D54H   LINE      CODE     ---       #967
      00FF1D5FH   LINE      CODE     ---       #968
      00FF1D6AH   LINE      CODE     ---       #969
      00FF1D74H   LINE      CODE     ---       #970
      00FF1D7EH   LINE      CODE     ---       #971
      00FF1D88H   LINE      CODE     ---       #974
      00FF1D93H   LINE      CODE     ---       #975
      00FF1D9DH   LINE      CODE     ---       #976
      00FF1DAAH   LINE      CODE     ---       #977
      00FF1DB5H   LINE      CODE     ---       #979
      00FF1DBCH   LINE      CODE     ---       #984
      00FF1DC7H   LINE      CODE     ---       #985
      00FF1DCEH   LINE      CODE     ---       #988
      00FF1DD9H   LINE      CODE     ---       #989
      00FF1DE0H   LINE      CODE     ---       #991
      00FF1DE0H   LINE      CODE     ---       #992
      00FF1DE2H   LINE      CODE     ---       #993
      00FF1DE2H   LINE      CODE     ---       #994
      00FF1DEDH   LINE      CODE     ---       #995
      00FF1DF3H   LINE      CODE     ---       #997
      00FF1DF6H   LINE      CODE     ---       #998
      00FF1DF8H   LINE      CODE     ---       #999
      00FF1DF8H   LINE      CODE     ---       #1000
      00FF1E03H   LINE      CODE     ---       #1002
      00FF1E0AH   LINE      CODE     ---       #1004
      00FF1E15H   LINE      CODE     ---       #1005
      00FF1E20H   LINE      CODE     ---       #1006
      00FF1E29H   LINE      CODE     ---       #1007
      00FF1E35H   LINE      CODE     ---       #1008
      00FF1E3FH   LINE      CODE     ---       #1009
      00FF1E49H   LINE      CODE     ---       #1010
      00FF1E53H   LINE      CODE     ---       #1012
      00FF1E5DH   LINE      CODE     ---       #1013
      00FF1E5DH   LINE      CODE     ---       #1015
      00FF1E5FH   LINE      CODE     ---       #1016
      ---         BLOCKEND  ---      ---       LVL=0

      ---         MODULE    ---      ---       isr
      00FF28CFH   PUBLIC    CODE     ---       UART1_Isr
      00FF2B40H   PUBLIC    CODE     ---       UART2_Isr
      00FF2B5EH   PUBLIC    CODE     ---       UART3_Isr
      00FF25A9H   PUBLIC    CODE     ---       UART4_Isr
      00FF2C4CH   PUBLIC    CODE     ---       INT0_Isr
      00FF0009H   PUBLIC    CODE     ---       INT1_Isr
      00FF2C1CH   PUBLIC    CODE     ---       INT2_Isr
      00FF2C24H   PUBLIC    CODE     ---       INT3_Isr
      00FF2C2CH   PUBLIC    CODE     ---       INT4_Isr
      00FF000AH   PUBLIC    CODE     ---       TM0_Isr
      00FF0011H   PUBLIC    CODE     ---       TM1_Isr
      00FF2C34H   PUBLIC    CODE     ---       TM2_Isr
      00FF2C3CH   PUBLIC    CODE     ---       TM3_Isr
      00FF2C44H   PUBLIC    CODE     ---       TM4_Isr
      000000D0H   SFRSYM    DATA     BYTE      PSW
      000000EFH   SFRSYM    DATA     BYTE      AUXINTIF
      000000FDH   SFRSYM    DATA     BYTE      S4CON
      000000ACH   SFRSYM    DATA     BYTE      S3CON
      0000009AH   SFRSYM    DATA     BYTE      S2CON
      000000C7H   SFRSYM    DATA     BYTE      IAP_CONTR
      000000C8H.2 SFRSYM    DATA     BIT       P52
L251 LINKER/LOCATER V4.66.93.0                                                        04/16/2023  00:40:21  PAGE 52


      00000088H   SFRSYM    DATA     BYTE      TCON
      00000098H   SFRSYM    DATA     BYTE      SCON
      00000099H   SFRSYM    DATA     BYTE      SBUF
      000000B8H   SFRSYM    DATA     BYTE      IP
      000000A8H   SFRSYM    DATA     BYTE      IE
      000000F8H   SFRSYM    DATA     BYTE      P7
      000000E8H   SFRSYM    DATA     BYTE      P6
      000000C8H   SFRSYM    DATA     BYTE      P5
      000000C0H   SFRSYM    DATA     BYTE      P4
      000000B0H   SFRSYM    DATA     BYTE      P3
      000000A0H   SFRSYM    DATA     BYTE      P2
      00000090H   SFRSYM    DATA     BYTE      P1
      00000080H   SFRSYM    DATA     BYTE      P0

      00FF28CFH   BLOCK     CODE     ---       LVL=0
      00FF28D3H   BLOCK     CODE     NEAR LAB  LVL=1
      R11         REGSYM    ---      BYTE      res
      0000035BH   SYMBOL    EDATA    BYTE      dwon_count
      ---         BLOCKEND  ---      ---       LVL=1
      00FF28CFH   LINE      CODE     ---       #22
      00FF28D3H   LINE      CODE     ---       #23
      00FF28D3H   LINE      CODE     ---       #26
      00FF28D8H   LINE      CODE     ---       #28
      00FF28DBH   LINE      CODE     ---       #29
      00FF28E0H   LINE      CODE     ---       #30
      00FF28E0H   LINE      CODE     ---       #31
      00FF28E5H   LINE      CODE     ---       #33
      00FF28E8H   LINE      CODE     ---       #34
      00FF28EAH   LINE      CODE     ---       #36
      00FF28EDH   LINE      CODE     ---       #38
      00FF28FDH   LINE      CODE     ---       #39
      00FF2900H   LINE      CODE     ---       #40
      00FF2902H   LINE      CODE     ---       #43
      00FF2907H   LINE      CODE     ---       #44
      00FF2907H   LINE      CODE     ---       #45
      ---         BLOCKEND  ---      ---       LVL=0

      00FF2B40H   BLOCK     CODE     ---       LVL=0
      00FF2B40H   LINE      CODE     ---       #49
      00FF2B44H   LINE      CODE     ---       #51
      00FF2B49H   LINE      CODE     ---       #53
      00FF2B4CH   LINE      CODE     ---       #54
      00FF2B51H   LINE      CODE     ---       #55
      00FF2B51H   LINE      CODE     ---       #56
      00FF2B56H   LINE      CODE     ---       #58
      00FF2B59H   LINE      CODE     ---       #61
      ---         BLOCKEND  ---      ---       LVL=0

      00FF2B5EH   BLOCK     CODE     ---       LVL=0
      00FF2B5EH   LINE      CODE     ---       #66
      00FF2B62H   LINE      CODE     ---       #68
      00FF2B67H   LINE      CODE     ---       #70
      00FF2B6AH   LINE      CODE     ---       #71
      00FF2B6FH   LINE      CODE     ---       #72
      00FF2B6FH   LINE      CODE     ---       #73
      00FF2B74H   LINE      CODE     ---       #75
      00FF2B77H   LINE      CODE     ---       #78
      ---         BLOCKEND  ---      ---       LVL=0

      00FF25A9H   BLOCK     CODE     ---       LVL=0
      00FF25A9H   LINE      CODE     ---       #83
      00FF25C1H   LINE      CODE     ---       #85
      00FF25C6H   LINE      CODE     ---       #87
      00FF25C9H   LINE      CODE     ---       #88
      00FF25CEH   LINE      CODE     ---       #89
L251 LINKER/LOCATER V4.66.93.0                                                        04/16/2023  00:40:21  PAGE 53


      00FF25CEH   LINE      CODE     ---       #90
      00FF25D3H   LINE      CODE     ---       #92
      00FF25D6H   LINE      CODE     ---       #95
      00FF25E0H   LINE      CODE     ---       #97
      00FF25E3H   LINE      CODE     ---       #98
      00FF25E5H   LINE      CODE     ---       #99
      00FF25EBH   LINE      CODE     ---       #101
      00FF25EEH   LINE      CODE     ---       #102
      00FF25F0H   LINE      CODE     ---       #103
      00FF25F6H   LINE      CODE     ---       #105
      00FF25F9H   LINE      CODE     ---       #106
      00FF25F9H   LINE      CODE     ---       #108
      ---         BLOCKEND  ---      ---       LVL=0

      00FF2C4CH   BLOCK     CODE     ---       LVL=0
      00FF2C4CH   LINE      CODE     ---       #111
      00FF2C4EH   LINE      CODE     ---       #113
      00FF2C50H   LINE      CODE     ---       #114
      ---         BLOCKEND  ---      ---       LVL=0

      00FF0009H   BLOCK     CODE     ---       LVL=0
      00FF0009H   LINE      CODE     ---       #115
      00FF0009H   LINE      CODE     ---       #118
      ---         BLOCKEND  ---      ---       LVL=0

      00FF2C1CH   BLOCK     CODE     ---       LVL=0
      00FF2C1CH   LINE      CODE     ---       #119
      00FF2C1EH   LINE      CODE     ---       #121
      00FF2C21H   LINE      CODE     ---       #122
      ---         BLOCKEND  ---      ---       LVL=0

      00FF2C24H   BLOCK     CODE     ---       LVL=0
      00FF2C24H   LINE      CODE     ---       #123
      00FF2C26H   LINE      CODE     ---       #125
      00FF2C29H   LINE      CODE     ---       #126
      ---         BLOCKEND  ---      ---       LVL=0

      00FF2C2CH   BLOCK     CODE     ---       LVL=0
      00FF2C2CH   LINE      CODE     ---       #128
      00FF2C2EH   LINE      CODE     ---       #130
      00FF2C31H   LINE      CODE     ---       #131
      ---         BLOCKEND  ---      ---       LVL=0

      00FF000AH   BLOCK     CODE     ---       LVL=0
      00FF000AH   LINE      CODE     ---       #133
      00FF000AH   LINE      CODE     ---       #136
      ---         BLOCKEND  ---      ---       LVL=0

      00FF0011H   BLOCK     CODE     ---       LVL=0
      00FF0011H   LINE      CODE     ---       #137
      00FF0011H   LINE      CODE     ---       #140
      ---         BLOCKEND  ---      ---       LVL=0

      00FF2C34H   BLOCK     CODE     ---       LVL=0
      00FF2C34H   LINE      CODE     ---       #141
      00FF2C36H   LINE      CODE     ---       #143
      00FF2C39H   LINE      CODE     ---       #145
      ---         BLOCKEND  ---      ---       LVL=0

      00FF2C3CH   BLOCK     CODE     ---       LVL=0
      00FF2C3CH   LINE      CODE     ---       #146
      00FF2C3EH   LINE      CODE     ---       #148
      00FF2C41H   LINE      CODE     ---       #150
      ---         BLOCKEND  ---      ---       LVL=0

L251 LINKER/LOCATER V4.66.93.0                                                        04/16/2023  00:40:21  PAGE 54


      00FF2C44H   BLOCK     CODE     ---       LVL=0
      00FF2C44H   LINE      CODE     ---       #152
      00FF2C46H   LINE      CODE     ---       #154
      00FF2C49H   LINE      CODE     ---       #157
      ---         BLOCKEND  ---      ---       LVL=0

      ---         MODULE    ---      ---       main
      00FF29BCH   PUBLIC    CODE     ---       main
      00000359H   PUBLIC    EDATA    INT       i
      000000D0H   SFRSYM    DATA     BYTE      PSW
      000000E9H   SFRSYM    DATA     BYTE      WTST
      00000088H   SFRSYM    DATA     BYTE      TCON
      00000098H   SFRSYM    DATA     BYTE      SCON
      000000B8H   SFRSYM    DATA     BYTE      IP
      000000A8H   SFRSYM    DATA     BYTE      IE
      000000F8H   SFRSYM    DATA     BYTE      P7
      000000E8H   SFRSYM    DATA     BYTE      P6
      000000C8H   SFRSYM    DATA     BYTE      P5
      000000C0H   SFRSYM    DATA     BYTE      P4
      000000B0H   SFRSYM    DATA     BYTE      P3
      000000A0H   SFRSYM    DATA     BYTE      P2
      00000090H   SFRSYM    DATA     BYTE      P1
      00000080H   SFRSYM    DATA     BYTE      P0

      00FF29BCH   BLOCK     CODE     ---       LVL=0
      00FF29BCH   LINE      CODE     ---       #31
      00FF29BCH   LINE      CODE     ---       #33
      00FF29BFH   LINE      CODE     ---       #35
      00FF29C2H   LINE      CODE     ---       #40
      00FF29CEH   LINE      CODE     ---       #42
      00FF29D1H   LINE      CODE     ---       #45
      00FF29D4H   LINE      CODE     ---       #46
      00FF29D7H   LINE      CODE     ---       #48
      00FF29DAH   LINE      CODE     ---       #49
      00FF29DAH   LINE      CODE     ---       #51
      00FF29DDH   LINE      CODE     ---       #52
      00FF29F0H   LINE      CODE     ---       #54
      ---         BLOCKEND  ---      ---       LVL=0

      ---         MODULE    ---      ---       ?C?FPADD
      00FF0EB4H   PUBLIC    CODE     ---       ?C?FPADD
      00FF0EB1H   PUBLIC    CODE     ---       ?C?FPSUB

      ---         MODULE    ---      ---       ?C?FPMUL
      00FF0F6CH   PUBLIC    CODE     ---       ?C?FPMUL

      ---         MODULE    ---      ---       ?C?FPDIV
      00FF100CH   PUBLIC    CODE     ---       ?C?FPDIV

      ---         MODULE    ---      ---       ?C?FPCMP
      00FF108FH   PUBLIC    CODE     ---       ?C?FPCMP
      00FF108DH   PUBLIC    CODE     ---       ?C?FPCMP3

      ---         MODULE    ---      ---       ?C?FCAST
      00FF10DDH   PUBLIC    CODE     NEAR LAB  ?C?FCASTC
      00FF10D8H   PUBLIC    CODE     NEAR LAB  ?C?FCASTI
      00FF10D3H   PUBLIC    CODE     NEAR LAB  ?C?FCASTL

      ---         MODULE    ---      ---       ?C?CASTF
      00FF1110H   PUBLIC    CODE     NEAR LAB  ?C?CASTF

      ---         MODULE    ---      ---       PRINTF
      0000031BH   PUBLIC    EDATA    ---       ?PRINTF?BYTE
      00FF114DH   PUBLIC    CODE     NEAR LAB  PRINTF

L251 LINKER/LOCATER V4.66.93.0                                                        04/16/2023  00:40:21  PAGE 55


      ---         MODULE    ---      ---       ?C?FPGETOPN
      00FF1179H   PUBLIC    CODE     ---       ?C?FPGETOPN2
      00FF11B6H   PUBLIC    CODE     ---       ?C?FPNANRESULT
      00FF11BEH   PUBLIC    CODE     ---       ?C?FPOVERFLOW
      00FF1192H   PUBLIC    CODE     ---       ?C?FPRESULT
      00FF11A8H   PUBLIC    CODE     ---       ?C?FPRESULT2
      00FF11BBH   PUBLIC    CODE     ---       ?C?FPUNDERFLOW

      ---         MODULE    ---      ---       ?C?PRNFMT
      00FF11F7H   PUBLIC    CODE     ---       ?C?PRNFMT

      ---         MODULE    ---      ---       ?C?FPCONVERT
      00FF1614H   PUBLIC    CODE     ---       ?C?FPCONVERT
      00FF16CCH   PUBLIC    CODE     ---       ?C?FPROUND

      ---         MODULE    ---      ---       ?C?FTNPWR
      00FF173FH   PUBLIC    CODE     ---       ?C?FTNPWR

      ---         MODULE    ---      ---       ?C_START
      00FF0000H   PUBLIC    CODE     ---       ?C?STARTUP
      00FF0000H   PUBLIC    CODE     ---       ?C_STARTUP

      ---         MODULE    ---      ---       ?C?INITEDATA
      00FF2865H   PUBLIC    CODE     ---       ?C?INITEDATA

      ---         MODULE    ---      ---       ?C?SIDIV
      00FF1776H   PUBLIC    CODE     ---       ?C?SIDIV

      ---         MODULE    ---      ---       ?C?LMUL
      00FF17A8H   PUBLIC    CODE     ---       ?C?LMUL

      ---         MODULE    ---      ---       ?C?LIMUL
      00FF17B9H   PUBLIC    CODE     ---       ?C?LIMUL

      ---         MODULE    ---      ---       ?C?ULDIV
      00FF17C4H   PUBLIC    CODE     NEAR LAB  ?C?ULDIV
      00FF17C2H   PUBLIC    CODE     NEAR LAB  ?C?ULIDIV

      ---         MODULE    ---      ---       ?C?SLDIV
      00FF1815H   PUBLIC    CODE     NEAR LAB  ?C?SLDIV

      ---         MODULE    ---      ---       memcpy
      00FF2AD9H   PUBLIC    CODE     ---       memcpy?_

      ---         MODULE    ---      ---       memset
      00FF0066H   PUBLIC    CODE     ---       memset?_

      ---         MODULE    ---      ---       ?C?INITEDATA_END
      00FF2CCBH   PUBLIC    HCONST   WORD      ?C?INITEDATA_END

Program Size: data=8.0 edata+hdata=1108 xdata=0 const=174 code=11302
L251 RUN COMPLETE.  0 WARNING(S),  0 ERROR(S)
