L251 LINKER/LOCATER V4.66.93.0                                                          04/13/2024  20:03:07  PAGE 1


L251 LINKER/LOCATER V4.66.93.0, INVOKED BY:
D:\KEIL5\KEIL5_MDK\KEIL5_MDK_32\C251\BIN\L251.EXE .\Out_File\board.obj, .\Out_File\common.obj, .\Out_File\SEEKFREE_PRINT
>> F.obj, .\Out_File\zf_adc.obj, .\Out_File\zf_delay.obj, .\Out_File\zf_eeprom.obj, .\Out_File\zf_exti.obj, .\Out_File\z
>> f_gpio.obj, .\Out_File\zf_iic.obj, .\Out_File\zf_nvic.obj, .\Out_File\zf_pwm.obj, .\Out_File\zf_spi.obj, .\Out_File\z
>> f_tim.obj, .\Out_File\zf_uart.obj, .\Out_File\zf_fifo.obj, .\Out_File\SEEKFREE_18TFT.obj, .\Out_File\SEEKFREE_ABSOLUT
>> E_ENCODER.obj, .\Out_File\SEEKFREE_FONT.obj, .\Out_File\SEEKFREE_ICM20602.obj, .\Out_File\SEEKFREE_IIC.obj, .\Out_Fil
>> e\SEEKFREE_IPS114_SPI.obj, .\Out_File\SEEKFREE_MPU6050.obj, .\Out_File\SEEKFREE_OLED.obj, .\Out_File\SEEKFREE_TSL1401
>> .obj, .\Out_File\SEEKFREE_VIRSCO.obj, .\Out_File\SEEKFREE_WIRELESS.obj, .\Out_File\SEEKFREE_AT24C02.obj, .\Out_File\S
>> EEKFREE_BLUETOOTH_CH9141.obj, .\Out_File\SEEKFREE_WIRELESS_CH573.obj, .\Out_File\SEEKFREE_VL53L0X.obj, .\Out_File\isr
>> .obj, .\Out_File\main.obj, .\Out_File\init.obj, .\Out_File\pid.obj TO .\Out_File\SEEKFREE PRINT (.\Out_File\SEEKFREE.
>> map) CASE DISABLEWARNING (16, 57) REMOVEUNUSED CLASSES (EDATA (0X0-0XFFF), HDATA (0X0-0XFFF))


CPU MODE:     251 SOURCE MODE
INTR FRAME:   2 BYTES SAVED ON INTERRUPT
MEMORY MODEL: XSMALL WITH FLOATING POINT ARITHMETIC


INPUT MODULES INCLUDED:
  .\Out_File\board.obj (board)
         COMMENT TYPE 0: C251 V5.60.0
  .\Out_File\common.obj (common)
         COMMENT TYPE 0: C251 V5.60.0
  .\Out_File\SEEKFREE_PRINTF.obj (SEEKFREE_PRINTF)
         COMMENT TYPE 0: C251 V5.60.0
  .\Out_File\zf_adc.obj (zf_adc)
         COMMENT TYPE 0: C251 V5.60.0
  .\Out_File\zf_delay.obj (zf_delay)
         COMMENT TYPE 0: C251 V5.60.0
  .\Out_File\zf_eeprom.obj (zf_eeprom)
         COMMENT TYPE 0: C251 V5.60.0
  .\Out_File\zf_exti.obj (zf_exti)
         COMMENT TYPE 0: C251 V5.60.0
  .\Out_File\zf_gpio.obj (zf_gpio)
         COMMENT TYPE 0: C251 V5.60.0
  .\Out_File\zf_iic.obj (zf_iic)
         COMMENT TYPE 0: C251 V5.60.0
  .\Out_File\zf_nvic.obj (zf_nvic)
         COMMENT TYPE 0: C251 V5.60.0
  .\Out_File\zf_pwm.obj (zf_pwm)
         COMMENT TYPE 0: C251 V5.60.0
  .\Out_File\zf_spi.obj (zf_spi)
         COMMENT TYPE 0: C251 V5.60.0
  .\Out_File\zf_tim.obj (zf_tim)
         COMMENT TYPE 0: C251 V5.60.0
  .\Out_File\zf_uart.obj (zf_uart)
         COMMENT TYPE 0: C251 V5.60.0
  .\Out_File\zf_fifo.obj (zf_fifo)
         COMMENT TYPE 0: C251 V5.60.0
  .\Out_File\SEEKFREE_18TFT.obj (SEEKFREE_18TFT)
         COMMENT TYPE 0: C251 V5.60.0
  .\Out_File\SEEKFREE_ABSOLUTE_ENCODER.obj (SEEKFREE_ABSOLUTE_ENCODER)
         COMMENT TYPE 0: C251 V5.60.0
  .\Out_File\SEEKFREE_FONT.obj (SEEKFREE_FONT)
         COMMENT TYPE 0: C251 V5.60.0
  .\Out_File\SEEKFREE_ICM20602.obj (SEEKFREE_ICM20602)
         COMMENT TYPE 0: C251 V5.60.0
  .\Out_File\SEEKFREE_IIC.obj (SEEKFREE_IIC)
         COMMENT TYPE 0: C251 V5.60.0
  .\Out_File\SEEKFREE_IPS114_SPI.obj (SEEKFREE_IPS114_SPI)
         COMMENT TYPE 0: C251 V5.60.0
  .\Out_File\SEEKFREE_MPU6050.obj (SEEKFREE_MPU6050)
         COMMENT TYPE 0: C251 V5.60.0
  .\Out_File\SEEKFREE_OLED.obj (SEEKFREE_OLED)
         COMMENT TYPE 0: C251 V5.60.0
  .\Out_File\SEEKFREE_TSL1401.obj (SEEKFREE_TSL1401)
L251 LINKER/LOCATER V4.66.93.0                                                        04/13/2024  20:03:07  PAGE 2


         COMMENT TYPE 0: C251 V5.60.0
  .\Out_File\SEEKFREE_VIRSCO.obj (SEEKFREE_VIRSCO)
         COMMENT TYPE 0: C251 V5.60.0
  .\Out_File\SEEKFREE_WIRELESS.obj (SEEKFREE_WIRELESS)
         COMMENT TYPE 0: C251 V5.60.0
  .\Out_File\SEEKFREE_AT24C02.obj (SEEKFREE_AT24C02)
         COMMENT TYPE 0: C251 V5.60.0
  .\Out_File\SEEKFREE_BLUETOOTH_CH9141.obj (SEEKFREE_BLUETOOTH_CH9141)
         COMMENT TYPE 0: C251 V5.60.0
  .\Out_File\SEEKFREE_WIRELESS_CH573.obj (SEEKFREE_WIRELESS_CH573)
         COMMENT TYPE 0: C251 V5.60.0
  .\Out_File\SEEKFREE_VL53L0X.obj (SEEKFREE_VL53L0X)
         COMMENT TYPE 0: C251 V5.60.0
  .\Out_File\isr.obj (isr)
         COMMENT TYPE 0: C251 V5.60.0
  .\Out_File\main.obj (main)
         COMMENT TYPE 0: C251 V5.60.0
  .\Out_File\init.obj (init)
         COMMENT TYPE 0: C251 V5.60.0
  .\Out_File\pid.obj (pid)
         COMMENT TYPE 0: C251 V5.60.0
  D:\KEIL5\KEIL5_MDK\KEIL5_MDK_32\C251\LIB\C2SFPXS.LIB (?C?FPADD)
         COMMENT TYPE 0: A251 V4.69.6.0
  D:\KEIL5\KEIL5_MDK\KEIL5_MDK_32\C251\LIB\C2SFPXS.LIB (?C?FPMUL)
         COMMENT TYPE 0: A251 V4.69.6.0
  D:\KEIL5\KEIL5_MDK\KEIL5_MDK_32\C251\LIB\C2SFPXS.LIB (?C?FPDIV)
         COMMENT TYPE 0: A251 V4.69.6.0
  D:\KEIL5\KEIL5_MDK\KEIL5_MDK_32\C251\LIB\C2SFPXS.LIB (?C?FPCMP)
         COMMENT TYPE 0: A251 V4.69.6.0
  D:\KEIL5\KEIL5_MDK\KEIL5_MDK_32\C251\LIB\C2SFPXS.LIB (?C?FPNEG)
         COMMENT TYPE 0: A251 V4.69.6.0
  D:\KEIL5\KEIL5_MDK\KEIL5_MDK_32\C251\LIB\C2SFPXS.LIB (?C?FCAST)
         COMMENT TYPE 0: A251 V4.69.6.0
  D:\KEIL5\KEIL5_MDK\KEIL5_MDK_32\C251\LIB\C2SFPXS.LIB (?C?CASTF)
         COMMENT TYPE 0: A251 V4.69.6.0
  D:\KEIL5\KEIL5_MDK\KEIL5_MDK_32\C251\LIB\C2SFPXS.LIB (PRINTF)
         COMMENT TYPE 0: A251 V4.69.6.0
  D:\KEIL5\KEIL5_MDK\KEIL5_MDK_32\C251\LIB\C2SFPXS.LIB (?C?FPGETOPN)
         COMMENT TYPE 0: A251 V4.69.6.0
  D:\KEIL5\KEIL5_MDK\KEIL5_MDK_32\C251\LIB\C2SFPXS.LIB (?C?PRNFMT)
         COMMENT TYPE 0: A251 V4.69.6.0
  D:\KEIL5\KEIL5_MDK\KEIL5_MDK_32\C251\LIB\C2SFPXS.LIB (?C?FPCONVERT)
         COMMENT TYPE 0: A251 V4.69.6.0
  D:\KEIL5\KEIL5_MDK\KEIL5_MDK_32\C251\LIB\C2SFPXS.LIB (?C?FTNPWR)
         COMMENT TYPE 0: A251 V4.69.6.0
  D:\KEIL5\KEIL5_MDK\KEIL5_MDK_32\C251\LIB\C2SXS.LIB (?C_START)
         COMMENT TYPE 0: A251 V4.69.6.0
  D:\KEIL5\KEIL5_MDK\KEIL5_MDK_32\C251\LIB\C2SXS.LIB (?C?INITEDATA)
         COMMENT TYPE 0: A251 V4.69.6.0
  D:\KEIL5\KEIL5_MDK\KEIL5_MDK_32\C251\LIB\C2SXS.LIB (?C?SIDIV)
         COMMENT TYPE 0: A251 V4.69.6.0
  D:\KEIL5\KEIL5_MDK\KEIL5_MDK_32\C251\LIB\C2SXS.LIB (?C?LMUL)
         COMMENT TYPE 0: A251 V4.69.6.0
  D:\KEIL5\KEIL5_MDK\KEIL5_MDK_32\C251\LIB\C2SXS.LIB (?C?LIMUL)
         COMMENT TYPE 0: A251 V4.69.6.0
  D:\KEIL5\KEIL5_MDK\KEIL5_MDK_32\C251\LIB\C2SXS.LIB (?C?ULDIV)
         COMMENT TYPE 0: A251 V4.69.6.0
  D:\KEIL5\KEIL5_MDK\KEIL5_MDK_32\C251\LIB\C2SXS.LIB (?C?SLDIV)
         COMMENT TYPE 0: A251 V4.69.6.0
  D:\KEIL5\KEIL5_MDK\KEIL5_MDK_32\C251\LIB\C2SXS.LIB (memcpy)
         COMMENT TYPE 0: C251 V5.58.7
  D:\KEIL5\KEIL5_MDK\KEIL5_MDK_32\C251\LIB\C2SXS.LIB (memset)
         COMMENT TYPE 0: C251 V5.58.7
  D:\KEIL5\KEIL5_MDK\KEIL5_MDK_32\C251\LIB\C2SXS.LIB (?C?INITEDATA_END)
         COMMENT TYPE 0: A251 V4.69.6.0
L251 LINKER/LOCATER V4.66.93.0                                                        04/13/2024  20:03:07  PAGE 3




ACTIVE MEMORY CLASSES OF MODULE:  .\Out_File\SEEKFREE (board)

BASE        START       END         USED      MEMORY CLASS
==========================================================
000000H     000000H     000FFFH     00047CH   EDATA
000000H     000000H     000FFFH               HDATA
FF0000H     FF0000H     FFFFFFH     002AA4H   CODE
000000H     FF0000H     FFFFFFH     0000A8H   HCONST
000020H.0   000020H.0   00002FH.7   000000H.1 BIT
FF0000H     FF0000H     FFFFFFH     000004H   CONST
000000H     000000H     00007FH     000008H   DATA


MEMORY MAP OF MODULE:  .\Out_File\SEEKFREE (board)


START     STOP      LENGTH    ALIGN  RELOC    MEMORY CLASS   SEGMENT NAME
=========================================================================
000000H   000007H   000008H   ---    AT..     DATA           "REG BANK 0"
000008H   000013H   00000CH   BYTE   UNIT     EDATA          ?ED?SEEKFREE_ICM20602
000014H   00001FH   00000CH   BYTE   UNIT     EDATA          ?ED?SEEKFREE_MPU6050
000020H.0 000020H.0 000000H.1 BIT    UNIT     BIT            ?BI?MAIN
000020H.1 000020H   000000H.7 ---    ---      **GAP**
000021H   000121H   000101H   BYTE   UNIT     EDATA          ?ED?SEEKFREE_TSL1401
000122H   0001EEH   0000CDH   BYTE   UNIT     EDATA          ?ED?ZF_UART
0001EFH   000243H   000055H   BYTE   UNIT     EDATA          ?ED?SEEKFREE_WIRELESS
000244H   000298H   000055H   BYTE   UNIT     EDATA          ?ED?SEEKFREE_BLUETOOTH_CH9141
000299H   0002EDH   000055H   BYTE   UNIT     EDATA          ?ED?SEEKFREE_WIRELESS_CH573
0002EEH   000325H   000038H   BYTE   UNIT     EDATA          ?ED?MAIN
000326H   000341H   00001CH   BYTE   UNIT     EDATA          _EDATA_GROUP_
000342H   00034BH   00000AH   BYTE   UNIT     EDATA          ?ED?SEEKFREE_VIRSCO
00034CH   000352H   000007H   BYTE   UNIT     EDATA          ?ED?SEEKFREE_IIC
000353H   000358H   000006H   BYTE   UNIT     EDATA          ?ED?VL53L0X_SIMIIC_READ_REGS?SEEKFREE_VL53L0X
000359H   00035EH   000006H   BYTE   UNIT     EDATA          ?ED?VL53L0X_GET_SEQUENCE_STEP_TIMEOUTS?SEEKFREE_VL53L0X
00035FH   000363H   000005H   BYTE   UNIT     EDATA          ?ED?VL53L0X_SIMIIC_WRITE_DATS?SEEKFREE_VL53L0X
000364H   000367H   000004H   BYTE   UNIT     EDATA          ?ED?BOARD
000368H   00036BH   000004H   BYTE   UNIT     EDATA          ?ED?ZF_DELAY
00036CH   00036FH   000004H   BYTE   UNIT     EDATA          ?ED?LCD_SET_REGION_SIMSPI?SEEKFREE_18TFT
000370H   000373H   000004H   BYTE   UNIT     EDATA          ?ED?LCD_SET_REGION?SEEKFREE_18TFT
000374H   000377H   000004H   BYTE   UNIT     EDATA          ?ED?PID
000378H   00037AH   000003H   BYTE   UNIT     EDATA          ?ED?SEEKFREE_VL53L0X
00037BH   00037CH   000002H   BYTE   UNIT     EDATA          ?ED?COMMON
00037DH   00037EH   000002H   BYTE   UNIT     EDATA          ?ED?LCD_WRITEDATA_16BIT?SEEKFREE_18TFT
00037FH   000380H   000002H   BYTE   UNIT     EDATA          ?ED?IPS114_WRITEDATA_16BIT?SEEKFREE_IPS114_SPI
000381H   000381H   000001H   BYTE   UNIT     EDATA          ?ED?NUMBER_CONVERSION_ASCII?SEEKFREE_PRINTF
000382H   000382H   000001H   BYTE   UNIT     EDATA          ?ED?VL53L0X_GET_SEQUENCE_STEP_ENABLES?SEEKFREE_VL53L0X
000383H   000383H   000001H   BYTE   UNIT     EDATA          ?ED?VL53L0X_GET_VCSEL_PULSE_PERIOD?SEEKFREE_VL53L0X
000384H   000384H   000001H   BYTE   UNIT     EDATA          ?ED?ISR
000385H   000484H   000100H   BYTE   UNIT     EDATA          ?STACK
000485H   FEFFFFH   FEFB7BH   ---    ---      **GAP**
FF0000H   FF0002H   000003H   ---    OFFS..   CODE           ?CO?start251?4
FF0003H   FF0005H   000003H   ---    OFFS..   CODE           ?PR?IV?0
FF0006H   FF000AH   000005H   BYTE   INSEG    CODE           ?PR?ENCODER_DELAY_US?SEEKFREE_ABSOLUTE_ENCODER
FF000BH   FF000DH   000003H   ---    OFFS..   CODE           ?PR?IV?1
FF000EH   FF0010H   000003H   BYTE   INSEG    CODE           ?PR?ENABLEGLOBALIRQ?BOARD
FF0011H   FF0011H   000001H   BYTE   INSEG    CODE           ?PR?INT0_ISR?ISR
FF0012H   FF0012H   000001H   BYTE   INSEG    CODE           ?PR?INT1_ISR?ISR
FF0013H   FF0015H   000003H   ---    OFFS..   CODE           ?PR?IV?2
FF0016H   FF0018H   000003H   BYTE   INSEG    CODE           ?PR?DISABLEGLOBALIRQ?BOARD
FF0019H   FF0019H   000001H   BYTE   INSEG    CODE           ?PR?TM0_ISR?ISR
FF001AH   FF001AH   000001H   BYTE   INSEG    CODE           ?PR?TM1_ISR?ISR
FF001BH   FF001DH   000003H   ---    OFFS..   CODE           ?PR?IV?3
FF001EH   FF0021H   000004H   BYTE   UNIT     CONST          ?CO?PRINTF
L251 LINKER/LOCATER V4.66.93.0                                                        04/13/2024  20:03:07  PAGE 4


FF0022H   FF0022H   000001H   ---    ---      **GAP**
FF0023H   FF0025H   000003H   ---    OFFS..   CODE           ?PR?IV?4
FF0026H   FF0041H   00001CH   BYTE   INSEG    CODE           ?PR?VL53L0X_SCCB_WAITACK?SEEKFREE_VL53L0X
FF0042H   FF0042H   000001H   ---    ---      **GAP**
FF0043H   FF0045H   000003H   ---    OFFS..   CODE           ?PR?IV?8
FF0046H   FF0052H   00000DH   BYTE   INSEG    CODE           ?PR?VL53L0X_SIMIIC_DELAY?SEEKFREE_VL53L0X
FF0053H   FF0055H   000003H   ---    OFFS..   CODE           ?PR?IV?10
FF0056H   FF005AH   000005H   ---    ---      **GAP**
FF005BH   FF005DH   000003H   ---    OFFS..   CODE           ?PR?IV?11
FF005EH   FF0062H   000005H   ---    ---      **GAP**
FF0063H   FF0065H   000003H   ---    OFFS..   CODE           ?PR?IV?12
FF0066H   FF007EH   000019H   BYTE   INSEG    CODE           ?PR?DELAY_US?ZF_DELAY
FF007FH   FF0082H   000004H   ---    ---      **GAP**
FF0083H   FF0085H   000003H   ---    OFFS..   CODE           ?PR?IV?16
FF0086H   FF008AH   000005H   ---    ---      **GAP**
FF008BH   FF008DH   000003H   ---    OFFS..   CODE           ?PR?IV?17
FF008EH   FF0092H   000005H   ---    ---      **GAP**
FF0093H   FF0095H   000003H   ---    OFFS..   CODE           ?PR?IV?18
FF0096H   FF009AH   000005H   ---    ---      **GAP**
FF009BH   FF009DH   000003H   ---    OFFS..   CODE           ?PR?IV?19
FF009EH   FF00A2H   000005H   ---    ---      **GAP**
FF00A3H   FF00A5H   000003H   ---    OFFS..   CODE           ?PR?IV?20
FF00A6H   FF0EADH   000E08H   BYTE   UNIT     CODE           ?CO?SEEKFREE_FONT
FF0EAEH   FF1856H   0009A9H   BYTE   UNIT     CODE           ?C?LIB_CODE
FF1857H   FF1C4DH   0003F7H   BYTE   INSEG    CODE           ?PR?GPIO_MODE?ZF_GPIO
FF1C4EH   FF1E0CH   0001BFH   BYTE   INSEG    CODE           ?PR?UART_INIT?ZF_UART
FF1E0DH   FF1EECH   0000E0H   BYTE   INSEG    CODE           ?PR?FIFO_WRITE_BUFFER?ZF_FIFO
FF1EEDH   FF1FC7H   0000DBH   BYTE   INSEG    CODE           ?PR?VL53L0X_GET_SEQUENCE_STEP_TIMEOUTS?SEEKFREE_VL53L0X
FF1FC8H   FF205BH   000094H   BYTE   INSEG    CODE           ?PR?PIT_TIMER_MS?ZF_TIM
FF205CH   FF20EDH   000092H   BYTE   INSEG    CODE           ?PR?NUMBER_CONVERSION_ASCII?SEEKFREE_PRINTF
FF20EEH   FF216EH   000081H   BYTE   INSEG    CODE           ?PR?BOARD_INIT?BOARD
FF216FH   FF21D7H   000069H   BYTE   INSEG    CODE           ?PR?UART4_ISR?ISR
FF21D8H   FF2234H   00005DH   BYTE   INSEG    CODE           ?PR?PID_INIT?PID
FF2235H   FF228CH   000058H   BYTE   INSEG    CODE           ?PR?VL53L0X_GET_SEQUENCE_STEP_ENABLES?SEEKFREE_VL53L0X
FF228DH   FF22E0H   000054H   BYTE   INSEG    CODE           ?PR?UART_PUTCHAR?ZF_UART
FF22E1H   FF2334H   000054H   BYTE   INSEG    CODE           ?PR?VL53L0X_SIMIIC_READ_REGS?SEEKFREE_VL53L0X
FF2335H   FF2384H   000050H   BYTE   INSEG    CODE           ?PR?LCD_SET_REGION?SEEKFREE_18TFT
FF2385H   FF23D1H   00004DH   BYTE   INSEG    CODE           ?PR?VL53L0X_GET_VCSEL_PULSE_PERIOD?SEEKFREE_VL53L0X
FF23D2H   FF241DH   00004CH   BYTE   INSEG    CODE           ?PR?LCD_SET_REGION_SIMSPI?SEEKFREE_18TFT
FF241EH   FF2466H   000049H   BYTE   INSEG    CODE           ?PR?INIT_ALL?INIT
FF2467H   FF24ABH   000045H   BYTE   INSEG    CODE           ?PR?WAIT?ZF_IIC
FF24ACH   FF24EDH   000042H   BYTE   INSEG    CODE           ?PR?FIFO_HEAD_OFFSET?ZF_FIFO
FF24EEH   FF2500H   000013H   BYTE   UNIT     CODE           ?C_C51STARTUP
FF2501H   FF2502H   000002H   BYTE   UNIT     CODE           ?C_C51STARTUP?1
FF2503H   FF252BH   000029H   BYTE   UNIT     CODE           ?C_C51STARTUP?2
FF252CH   FF252EH   000003H   BYTE   UNIT     CODE           ?C_C51STARTUP?3
FF252FH   FF256CH   00003EH   BYTE   INSEG    CODE           ?PR?VL53L0X_TIMEOUT_MCLKS_TO_MICROSECONDS?SEEKFREE_VL53L0X
FF256DH   FF25A9H   00003DH   BYTE   INSEG    CODE           ?PR?UART1_ISR?ISR
FF25AAH   FF25E5H   00003CH   BYTE   INSEG    CODE           ?PR?VL53L0X_TIMEOUT_MICROSECONDS_TO_MCLKS?SEEKFREE_VL53L0X
FF25E6H   FF2620H   00003BH   BYTE   INSEG    CODE           ?PR?VL53L0X_READ_CH?SEEKFREE_VL53L0X
FF2621H   FF2659H   000039H   BYTE   INSEG    CODE           ?PR?DELAY_INIT?ZF_DELAY
FF265AH   FF268EH   000035H   BYTE   INSEG    CODE           ?PR?VL53L0X_SIMIIC_WRITE_DATS?SEEKFREE_VL53L0X
FF268FH   FF26C2H   000034H   BYTE   INSEG    CODE           ?PR?VL53L0X_ENCODE_TIMEOUT?SEEKFREE_VL53L0X
FF26C3H   FF26F0H   00002EH   BYTE   INSEG    CODE           ?PR?VL53L0X_SEND_CH?SEEKFREE_VL53L0X
FF26F1H   FF271CH   00002CH   BYTE   INSEG    CODE           ?PR?LCD_WRITEDATA_16BIT_SIMSPI?SEEKFREE_18TFT
FF271DH   FF2748H   00002CH   BYTE   INSEG    CODE           ?PR?IPS114_WRITEDATAI_16BIT_SIMSPI?SEEKFREE_IPS114_SPI
FF2749H   FF2771H   000029H   BYTE   INSEG    CODE           ?PR?LCD_WRITEINDEX_SIMSPI?SEEKFREE_18TFT
FF2772H   FF279AH   000029H   BYTE   INSEG    CODE           ?PR?LCD_WRITEDATA_SIMSPI?SEEKFREE_18TFT
FF279BH   FF27C3H   000029H   BYTE   INSEG    CODE           ?PR?IPS114_WRITEINDEX_SIMSPI?SEEKFREE_IPS114_SPI
FF27C4H   FF27ECH   000029H   BYTE   INSEG    CODE           ?PR?OLED_WRCMD?SEEKFREE_OLED
FF27EDH   FF2815H   000029H   BYTE   INSEG    CODE           ?PR?OLED_WRDAT?SEEKFREE_OLED
FF2816H   FF283AH   000025H   BYTE   INSEG    CODE           ?PR?MEMCPY?_?MEMCPY
FF283BH   FF285DH   000023H   BYTE   INSEG    CODE           ?PR?OLED_SET_POS?SEEKFREE_OLED
FF285EH   FF287EH   000021H   BYTE   INSEG    CODE           ?PR?OLED_SET_POS_SPI?SEEKFREE_OLED
FF287FH   FF289EH   000020H   BYTE   INSEG    CODE           ?PR?SIMIIC_SENDACK?SEEKFREE_IIC
L251 LINKER/LOCATER V4.66.93.0                                                        04/13/2024  20:03:07  PAGE 5


FF289FH   FF28BEH   000020H   BYTE   INSEG    CODE           ?PR?VL53L0X_SIMIIC_SENDACK?SEEKFREE_VL53L0X
FF28BFH   FF28DDH   00001FH   BYTE   INSEG    CODE           ?PR?LCD_WRITEDATA_16BIT?SEEKFREE_18TFT
FF28DEH   FF28FCH   00001FH   BYTE   INSEG    CODE           ?PR?ICM_SIMSPI_WR_BYTE?SEEKFREE_ICM20602
FF28FDH   FF291BH   00001FH   BYTE   INSEG    CODE           ?PR?IPS114_WRITEDATA_16BIT?SEEKFREE_IPS114_SPI
FF291CH   FF2939H   00001EH   BYTE   INSEG    CODE           ?PR?UART2_ISR?ISR
FF293AH   FF2957H   00001EH   BYTE   INSEG    CODE           ?PR?UART3_ISR?ISR
FF2958H   FF2970H   000019H   BYTE   INSEG    CODE           ?PR?WIRELESS_UART_CALLBACK?SEEKFREE_WIRELESS
FF2971H   FF2989H   000019H   BYTE   INSEG    CODE           ?PR?BLUETOOTH_CH9141_UART_CALLBACK?SEEKFREE_BLUETOOTH_CH91
                                                             -41
FF298AH   FF29A2H   000019H   BYTE   INSEG    CODE           ?PR?WIRELESS_CH573_CALLBACK?SEEKFREE_WIRELESS_CH573
FF29A3H   FF29B9H   000017H   BYTE   INSEG    CODE           ?PR?DELAY_MS?ZF_DELAY
FF29BAH   FF29CEH   000015H   BYTE   INSEG    CODE           ?PR?EEPROM_TRIG?ZF_EEPROM
FF29CFH   FF29E3H   000015H   BYTE   INSEG    CODE           ?PR?IIC_DELAY_US?ZF_IIC
FF29E4H   FF29F4H   000011H   BYTE   INSEG    CODE           ?PR?SIMIIC_STOP?SEEKFREE_IIC
FF29F5H   FF2A05H   000011H   BYTE   INSEG    CODE           ?PR?VL53L0X_SIMIIC_STOP?SEEKFREE_VL53L0X
FF2A06H   FF2A15H   000010H   BYTE   INSEG    CODE           ?PR?VL53L0X_DECODE_TIMEOUT?SEEKFREE_VL53L0X
FF2A16H   FF2A24H   00000FH   BYTE   INSEG    CODE           ?PR?SIMIIC_START?SEEKFREE_IIC
FF2A25H   FF2A33H   00000FH   BYTE   INSEG    CODE           ?PR?VL53L0X_SIMIIC_START?SEEKFREE_VL53L0X
FF2A34H   FF2A41H   00000EH   BYTE   INSEG    CODE           ?PR?PUTCHAR?BOARD
FF2A42H   FF2A4FH   00000EH   BYTE   INSEG    CODE           ?PR?SPI_MOSI?ZF_SPI
FF2A50H   FF2A5CH   00000DH   BYTE   INSEG    CODE           ?PR?MAIN?MAIN
FF2A5DH   FF2A67H   00000BH   BYTE   INSEG    CODE           ?PR?SIMIIC_DELAY?SEEKFREE_IIC
FF2A68H   FF2A71H   00000AH   BYTE   INSEG    CODE           ?PR?LCD_WRITEINDEX?SEEKFREE_18TFT
FF2A72H   FF2A7BH   00000AH   BYTE   INSEG    CODE           ?PR?LCD_WRITEDATA?SEEKFREE_18TFT
FF2A7CH   FF2A85H   00000AH   BYTE   INSEG    CODE           ?PR?IPS114_WRITEINDEX?SEEKFREE_IPS114_SPI
FF2A86H   FF2A8FH   00000AH   BYTE   INSEG    CODE           ?PR?OLED_WRCMD_SPI?SEEKFREE_OLED
FF2A90H   FF2A99H   00000AH   BYTE   INSEG    CODE           ?PR?OLED_WRDAT_SPI?SEEKFREE_OLED
FF2A9AH   FF2AA3H   00000AH   BYTE   INSEG    CODE           ?PR?TM4_ISR?ISR
FF2AA4H   FF2AABH   000008H   BYTE   INSEG    CODE           ?PR?INT2_ISR?ISR
FF2AACH   FF2AB3H   000008H   BYTE   INSEG    CODE           ?PR?INT3_ISR?ISR
FF2AB4H   FF2ABBH   000008H   BYTE   INSEG    CODE           ?PR?INT4_ISR?ISR
FF2ABCH   FF2AC3H   000008H   BYTE   INSEG    CODE           ?PR?TM2_ISR?ISR
FF2AC4H   FF2ACBH   000008H   BYTE   INSEG    CODE           ?PR?TM3_ISR?ISR
FF2ACCH   FF2B23H   000058H   BYTE   UNIT     HCONST         ?HC?ZF_PWM
FF2B24H   FF2B47H   000024H   BYTE   UNIT     HCONST         ?C_INITEDATA
FF2B48H   FF2B5DH   000016H   BYTE   UNIT     HCONST         ?HC?SEEKFREE_VL53L0X
FF2B5EH   FF2B67H   00000AH   BYTE   UNIT     HCONST         ?HC?SEEKFREE_OLED
FF2B68H   FF2B6DH   000006H   BYTE   UNIT     HCONST         ?HC?SEEKFREE_18TFT
FF2B6EH   FF2B73H   000006H   BYTE   UNIT     HCONST         ?HC?SEEKFREE_IPS114_SPI

* * * * * * * * *   R E M O V E D     S E G M E N T S   * * * * * * * *
   *DEL*:           0004FAH   BYTE   INSEG    CODE           ?PR?ZF_SPRINTF?SEEKFREE_PRINTF
   *DEL*:           00003EH   BYTE   INSEG    CODE           ?PR?PRINTF_REVERSE_ORDER?SEEKFREE_PRINTF
   *DEL*:           00005FH   BYTE   UNIT     EDATA          ?ED?ZF_SPRINTF?SEEKFREE_PRINTF
   *DEL*:           00002EH   BYTE   INSEG    CODE           ?PR?ADC_ONCE?ZF_ADC
   *DEL*:           00005EH   BYTE   INSEG    CODE           ?PR?ADC_INIT?ZF_ADC
   *DEL*:           000016H   BYTE   INSEG    CODE           ?PR?IAP_SET_TPS?ZF_EEPROM
   *DEL*:           00000EH   BYTE   INSEG    CODE           ?PR?IAP_ERASE_PAGE?ZF_EEPROM
   *DEL*:           000004H   BYTE   INSEG    CODE           ?PR?IAP_IDLE?ZF_EEPROM
   *DEL*:           000047H   BYTE   INSEG    CODE           ?PR?IAP_READ_BYTES?ZF_EEPROM
   *DEL*:           00006DH   BYTE   INSEG    CODE           ?PR?EXTERN_IAP_WRITE_BYTES?ZF_EEPROM
   *DEL*:           000006H   BYTE   INSEG    CODE           ?PR?IAP_INIT?ZF_EEPROM
   *DEL*:           000047H   BYTE   INSEG    CODE           ?PR?IAP_WRITE_BYTES?ZF_EEPROM
   *DEL*:           00000CH   BYTE   INSEG    CODE           ?PR?IAP_GET_CMD_STATE?ZF_EEPROM
   *DEL*:           000004H   BYTE   UNIT     EDATA          ?ED?IAP_READ_BYTES?ZF_EEPROM
   *DEL*:           000004H   BYTE   UNIT     EDATA          ?ED?IAP_WRITE_BYTES?ZF_EEPROM
   *DEL*:           000204H   BYTE   UNIT     EDATA          ?ED?EXTERN_IAP_WRITE_BYTES?ZF_EEPROM
   *DEL*:           00003EH   BYTE   INSEG    CODE           ?PR?EXIT_INIT?ZF_EXTI
   *DEL*:           00006EH   BYTE   INSEG    CODE           ?PR?GPIO_PULL_SET?ZF_GPIO
   *DEL*:           000017H   BYTE   INSEG    CODE           ?PR?SEND_DATA?ZF_IIC
   *DEL*:           00002FH   BYTE   INSEG    CODE           ?PR?IIC_CHANGE_PIN?ZF_IIC
   *DEL*:           00001CH   BYTE   INSEG    CODE           ?PR?RECV_DATA?ZF_IIC
   *DEL*:           000010H   BYTE   INSEG    CODE           ?PR?START?ZF_IIC
   *DEL*:           000018H   BYTE   INSEG    CODE           ?PR?SEND_ACK?ZF_IIC
   *DEL*:           000010H   BYTE   INSEG    CODE           ?PR?RECV_ACK?ZF_IIC
L251 LINKER/LOCATER V4.66.93.0                                                        04/13/2024  20:03:07  PAGE 6


   *DEL*:           000010H   BYTE   INSEG    CODE           ?PR?STOP?ZF_IIC
   *DEL*:           000019H   BYTE   INSEG    CODE           ?PR?SEND_NAK?ZF_IIC
   *DEL*:           00005EH   BYTE   INSEG    CODE           ?PR?IIC_INIT?ZF_IIC
   *DEL*:           000075H   BYTE   INSEG    CODE           ?PR?IIC_READ_REG?ZF_IIC
   *DEL*:           00009CH   BYTE   INSEG    CODE           ?PR?IIC_READ_REG_BYTES?ZF_IIC
   *DEL*:           000060H   BYTE   INSEG    CODE           ?PR?IIC_WRITE_REG?ZF_IIC
   *DEL*:           000004H   BYTE   UNIT     EDATA          ?ED?IIC_INIT?ZF_IIC
   *DEL*:           000004H   BYTE   UNIT     EDATA          ?ED?IIC_READ_REG?ZF_IIC
   *DEL*:           000003H   BYTE   UNIT     EDATA          ?ED?IIC_READ_REG_BYTES?ZF_IIC
   *DEL*:           00006CH   BYTE   INSEG    CODE           ?PR?NVIC_SETPRIORITY?ZF_NVIC
   *DEL*:           0000B8H   BYTE   INSEG    CODE           ?PR?PWM_DUTY?ZF_PWM
   *DEL*:           0002A1H   BYTE   INSEG    CODE           ?PR?PWM_SET_GPIO?ZF_PWM
   *DEL*:           000121H   BYTE   INSEG    CODE           ?PR?PWM_FREQ?ZF_PWM
   *DEL*:           0002E4H   BYTE   INSEG    CODE           ?PR?PWM_INIT?ZF_PWM
   *DEL*:           000008H   BYTE   UNIT     EDATA          ?ED?PWM_INIT?ZF_PWM
   *DEL*:           000004H   BYTE   UNIT     EDATA          ?ED?PWM_FREQ?ZF_PWM
   *DEL*:           00001DH   BYTE   INSEG    CODE           ?PR?SPI_CHANGE_MODE?ZF_SPI
   *DEL*:           0000AEH   BYTE   INSEG    CODE           ?PR?SPI_CHANGE_PIN?ZF_SPI
   *DEL*:           0000DFH   BYTE   INSEG    CODE           ?PR?SPI_INIT?ZF_SPI
   *DEL*:           000004H   BYTE   UNIT     EDATA          ?ED?SPI_INIT?ZF_SPI
   *DEL*:           00004DH   BYTE   INSEG    CODE           ?PR?CTIMER_COUNT_READ?ZF_TIM
   *DEL*:           00004AH   BYTE   INSEG    CODE           ?PR?CTIMER_COUNT_INIT?ZF_TIM
   *DEL*:           000051H   BYTE   INSEG    CODE           ?PR?CTIMER_COUNT_CLEAN?ZF_TIM
   *DEL*:           00002DH   BYTE   INSEG    CODE           ?PR?UART_PUTBUFF?ZF_UART
   *DEL*:           00001EH   BYTE   INSEG    CODE           ?PR?UART_PUTSTR?ZF_UART
   *DEL*:           000004H   BYTE   UNIT     EDATA          ?ED?UART_PUTBUFF?ZF_UART
   *DEL*:           000002H   BYTE   UNIT     EDATA          ?ED?UART_PUTSTR?ZF_UART
   *DEL*:           000113H   BYTE   INSEG    CODE           ?PR?FIFO_READ_BUFFER?ZF_FIFO
   *DEL*:           000025H   BYTE   INSEG    CODE           ?PR?FIFO_CLEAR?ZF_FIFO
   *DEL*:           000046H   BYTE   INSEG    CODE           ?PR?FIFO_END_OFFSET?ZF_FIFO
   *DEL*:           000015H   BYTE   INSEG    CODE           ?PR?FIFO_USED?ZF_FIFO
   *DEL*:           000043H   BYTE   INSEG    CODE           ?PR?FIFO_INIT?ZF_FIFO
   *DEL*:           000004H   BYTE   UNIT     EDATA          ?ED?FIFO_INIT?ZF_FIFO
   *DEL*:           00000FH   BYTE   UNIT     EDATA          ?ED?FIFO_READ_BUFFER?ZF_FIFO
   *DEL*:           00008BH   BYTE   INSEG    CODE           ?PR?LCD_SHOWUINT16?SEEKFREE_18TFT
   *DEL*:           000082H   BYTE   INSEG    CODE           ?PR?LCD_SHOWINT32_SIMSPI?SEEKFREE_18TFT
   *DEL*:           0000DDH   BYTE   INSEG    CODE           ?PR?LCD_SHOWINT16_SIMSPI?SEEKFREE_18TFT
   *DEL*:           000082H   BYTE   INSEG    CODE           ?PR?LCD_SHOWINT32?SEEKFREE_18TFT
   *DEL*:           0000DDH   BYTE   INSEG    CODE           ?PR?LCD_SHOWINT16?SEEKFREE_18TFT
   *DEL*:           00002BH   BYTE   INSEG    CODE           ?PR?LCD_CLEAR_SIMSPI?SEEKFREE_18TFT
   *DEL*:           00002BH   BYTE   INSEG    CODE           ?PR?LCD_CLEAR?SEEKFREE_18TFT
   *DEL*:           00004EH   BYTE   INSEG    CODE           ?PR?LCD_SHOWSTR_SIMSPI?SEEKFREE_18TFT
   *DEL*:           00004EH   BYTE   INSEG    CODE           ?PR?LCD_SHOWSTR?SEEKFREE_18TFT
   *DEL*:           0001EFH   BYTE   INSEG    CODE           ?PR?LCD_INIT_SIMSPI?SEEKFREE_18TFT
   *DEL*:           00009AH   BYTE   INSEG    CODE           ?PR?SHOWIMAGE?SEEKFREE_18TFT
   *DEL*:           0001EEH   BYTE   INSEG    CODE           ?PR?LCD_INIT?SEEKFREE_18TFT
   *DEL*:           00007BH   BYTE   INSEG    CODE           ?PR?LCD_SHOWUINT8_SIMSPI?SEEKFREE_18TFT
   *DEL*:           00007BH   BYTE   INSEG    CODE           ?PR?LCD_SHOWUINT8?SEEKFREE_18TFT
   *DEL*:           0000B9H   BYTE   INSEG    CODE           ?PR?LCD_SHOWINT8_SIMSPI?SEEKFREE_18TFT
   *DEL*:           0000B9H   BYTE   INSEG    CODE           ?PR?LCD_SHOWINT8?SEEKFREE_18TFT
   *DEL*:           0000F8H   BYTE   INSEG    CODE           ?PR?LCD_SHOWFLOAT_SIMSPI?SEEKFREE_18TFT
   *DEL*:           000013H   BYTE   INSEG    CODE           ?PR?LCD_DRAWPOINT_SIMSPI?SEEKFREE_18TFT
   *DEL*:           0000F8H   BYTE   INSEG    CODE           ?PR?LCD_SHOWFLOAT?SEEKFREE_18TFT
   *DEL*:           000013H   BYTE   INSEG    CODE           ?PR?LCD_DRAWPOINT?SEEKFREE_18TFT
   *DEL*:           00008EH   BYTE   INSEG    CODE           ?PR?LCD_SHOWCHAR_SIMSPI?SEEKFREE_18TFT
   *DEL*:           00008EH   BYTE   INSEG    CODE           ?PR?LCD_SHOWCHAR?SEEKFREE_18TFT
   *DEL*:           00008BH   BYTE   INSEG    CODE           ?PR?LCD_SHOWUINT16_SIMSPI?SEEKFREE_18TFT
   *DEL*:           000004H   BYTE   UNIT     EDATA          ?ED?LCD_SHOWCHAR_SIMSPI?SEEKFREE_18TFT
   *DEL*:           000006H   BYTE   UNIT     EDATA          ?ED?LCD_SHOWSTR_SIMSPI?SEEKFREE_18TFT
   *DEL*:           000005H   BYTE   UNIT     EDATA          ?ED?LCD_SHOWINT8_SIMSPI?SEEKFREE_18TFT
   *DEL*:           000004H   BYTE   UNIT     EDATA          ?ED?LCD_SHOWUINT8_SIMSPI?SEEKFREE_18TFT
   *DEL*:           000008H   BYTE   UNIT     EDATA          ?ED?LCD_SHOWINT16_SIMSPI?SEEKFREE_18TFT
   *DEL*:           000006H   BYTE   UNIT     EDATA          ?ED?LCD_SHOWUINT16_SIMSPI?SEEKFREE_18TFT
   *DEL*:           000028H   BYTE   UNIT     EDATA          ?ED?LCD_SHOWINT32_SIMSPI?SEEKFREE_18TFT
   *DEL*:           00002BH   BYTE   UNIT     EDATA          ?ED?LCD_SHOWFLOAT_SIMSPI?SEEKFREE_18TFT
L251 LINKER/LOCATER V4.66.93.0                                                        04/13/2024  20:03:07  PAGE 7


   *DEL*:           000004H   BYTE   UNIT     EDATA          ?ED?LCD_SHOWCHAR?SEEKFREE_18TFT
   *DEL*:           000006H   BYTE   UNIT     EDATA          ?ED?LCD_SHOWSTR?SEEKFREE_18TFT
   *DEL*:           000005H   BYTE   UNIT     EDATA          ?ED?LCD_SHOWINT8?SEEKFREE_18TFT
   *DEL*:           000004H   BYTE   UNIT     EDATA          ?ED?LCD_SHOWUINT8?SEEKFREE_18TFT
   *DEL*:           000008H   BYTE   UNIT     EDATA          ?ED?LCD_SHOWINT16?SEEKFREE_18TFT
   *DEL*:           000006H   BYTE   UNIT     EDATA          ?ED?LCD_SHOWUINT16?SEEKFREE_18TFT
   *DEL*:           000028H   BYTE   UNIT     EDATA          ?ED?LCD_SHOWINT32?SEEKFREE_18TFT
   *DEL*:           00002BH   BYTE   UNIT     EDATA          ?ED?LCD_SHOWFLOAT?SEEKFREE_18TFT
   *DEL*:           000008H   BYTE   UNIT     EDATA          ?ED?SHOWIMAGE?SEEKFREE_18TFT
   *DEL*:           000011H   BYTE   INSEG    CODE           ?PR?ENCODER_SELF4_CHECK?SEEKFREE_ABSOLUTE_ENCODER
   *DEL*:           000011H   BYTE   INSEG    CODE           ?PR?ENCODER_SELF5_CHECK?SEEKFREE_ABSOLUTE_ENCODER
   *DEL*:           00002FH   BYTE   INSEG    CODE           ?PR?ENCODER_SPI_R_REG_BYTE?SEEKFREE_ABSOLUTE_ENCODER
   *DEL*:           000038H   BYTE   INSEG    CODE           ?PR?ENCODER_SPI_W_REG_BYTE?SEEKFREE_ABSOLUTE_ENCODER
   *DEL*:           00001CH   BYTE   INSEG    CODE           ?PR?SIMSPI_R_REG_BYTE?SEEKFREE_ABSOLUTE_ENCODER
   *DEL*:           00001AH   BYTE   INSEG    CODE           ?PR?SIMSPI_W_REG_BYTE?SEEKFREE_ABSOLUTE_ENCODER
   *DEL*:           000029H   BYTE   INSEG    CODE           ?PR?ENCODER_INIT_SPI?SEEKFREE_ABSOLUTE_ENCODER
   *DEL*:           000004H   BYTE   INSEG    CODE           ?PR?SPI_WR_BYTE?SEEKFREE_ABSOLUTE_ENCODER
   *DEL*:           000024H   BYTE   INSEG    CODE           ?PR?SET_ZERO_POSITION_SIMSPI?SEEKFREE_ABSOLUTE_ENCODER
   *DEL*:           000023H   BYTE   INSEG    CODE           ?PR?ENCODER_ANGLE_SIMSPI?SEEKFREE_ABSOLUTE_ENCODER
   *DEL*:           00001CH   BYTE   INSEG    CODE           ?PR?SPI_R_REG_BYTE?SEEKFREE_ABSOLUTE_ENCODER
   *DEL*:           00001AH   BYTE   INSEG    CODE           ?PR?SPI_W_REG_BYTE?SEEKFREE_ABSOLUTE_ENCODER
   *DEL*:           00002FH   BYTE   INSEG    CODE           ?PR?ENCODER_SIMSPI_R_REG_BYTE?SEEKFREE_ABSOLUTE_ENCODER
   *DEL*:           000038H   BYTE   INSEG    CODE           ?PR?ENCODER_SIMSPI_W_REG_BYTE?SEEKFREE_ABSOLUTE_ENCODER
   *DEL*:           00000FH   BYTE   INSEG    CODE           ?PR?ENCODER_INIT_SIMSPI?SEEKFREE_ABSOLUTE_ENCODER
   *DEL*:           000024H   BYTE   INSEG    CODE           ?PR?SET_ZERO_POSITION_SPI?SEEKFREE_ABSOLUTE_ENCODER
   *DEL*:           00001FH   BYTE   INSEG    CODE           ?PR?SIMSPI_WR_BYTE?SEEKFREE_ABSOLUTE_ENCODER
   *DEL*:           000023H   BYTE   INSEG    CODE           ?PR?ENCODER_ANGLE_SPI?SEEKFREE_ABSOLUTE_ENCODER
   *DEL*:           000001H   BYTE   UNIT     EDATA          ?ED?ENCODER_SELF4_CHECK?SEEKFREE_ABSOLUTE_ENCODER
   *DEL*:           000001H   BYTE   UNIT     EDATA          ?ED?ENCODER_SELF5_CHECK?SEEKFREE_ABSOLUTE_ENCODER
   *DEL*:           000075H   BYTE   INSEG    CODE           ?PR?ICM20602_INIT_SIMIIC?SEEKFREE_ICM20602
   *DEL*:           000040H   BYTE   INSEG    CODE           ?PR?ICM_SIMSPI_R_REG_BYTES?SEEKFREE_ICM20602
   *DEL*:           00001CH   BYTE   INSEG    CODE           ?PR?ICM_SIMSPI_R_REG_BYTE?SEEKFREE_ICM20602
   *DEL*:           000013H   BYTE   INSEG    CODE           ?PR?ICM_SIMSPI_W_REG_BYTE?SEEKFREE_ICM20602
   *DEL*:           000059H   BYTE   INSEG    CODE           ?PR?ICM20602_INIT_SIMSPI?SEEKFREE_ICM20602
   *DEL*:           00002BH   BYTE   INSEG    CODE           ?PR?ICM20602_SELF1_CHECK?SEEKFREE_ICM20602
   *DEL*:           000011H   BYTE   INSEG    CODE           ?PR?ICM20602_SELF4_CHECK?SEEKFREE_ICM20602
   *DEL*:           000044H   BYTE   INSEG    CODE           ?PR?GET_ICM20602_GYRO_SIMIIC?SEEKFREE_ICM20602
   *DEL*:           000044H   BYTE   INSEG    CODE           ?PR?GET_ICM20602_ACCDATA_SIMIIC?SEEKFREE_ICM20602
   *DEL*:           00003DH   BYTE   INSEG    CODE           ?PR?GET_ICM20602_GYRO_SIMSPI?SEEKFREE_ICM20602
   *DEL*:           00003DH   BYTE   INSEG    CODE           ?PR?GET_ICM20602_ACCDATA_SIMSPI?SEEKFREE_ICM20602
   *DEL*:           000006H   BYTE   UNIT     EDATA          ?ED?GET_ICM20602_ACCDATA_SIMIIC?SEEKFREE_ICM20602
   *DEL*:           000006H   BYTE   UNIT     EDATA          ?ED?GET_ICM20602_GYRO_SIMIIC?SEEKFREE_ICM20602
   *DEL*:           000003H   BYTE   UNIT     EDATA          ?ED?ICM_SIMSPI_R_REG_BYTES?SEEKFREE_ICM20602
   *DEL*:           000001H   BYTE   UNIT     EDATA          ?ED?ICM20602_SELF4_CHECK?SEEKFREE_ICM20602
   *DEL*:           000001H   BYTE   UNIT     EDATA          ?ED?ICM20602_INIT_SIMSPI?SEEKFREE_ICM20602
   *DEL*:           000006H   BYTE   UNIT     EDATA          ?ED?GET_ICM20602_ACCDATA_SIMSPI?SEEKFREE_ICM20602
   *DEL*:           000006H   BYTE   UNIT     EDATA          ?ED?GET_ICM20602_GYRO_SIMSPI?SEEKFREE_ICM20602
   *DEL*:           000066H   BYTE   INSEG    CODE           ?PR?SIMIIC_READ_REGS?SEEKFREE_IIC
   *DEL*:           000001H   BYTE   INSEG    CODE           ?PR?SIMIIC_INIT?SEEKFREE_IIC
   *DEL*:           000034H   BYTE   INSEG    CODE           ?PR?SIMIIC_READ_REG?SEEKFREE_IIC
   *DEL*:           000022H   BYTE   INSEG    CODE           ?PR?SIMIIC_WRITE_REG?SEEKFREE_IIC
   *DEL*:           00003BH   BYTE   INSEG    CODE           ?PR?READ_CH?SEEKFREE_IIC
   *DEL*:           00002EH   BYTE   INSEG    CODE           ?PR?SEND_CH?SEEKFREE_IIC
   *DEL*:           00001CH   BYTE   INSEG    CODE           ?PR?SCCB_WAITACK?SEEKFREE_IIC
   *DEL*:           000005H   BYTE   UNIT     EDATA          ?ED?SIMIIC_READ_REGS?SEEKFREE_IIC
   *DEL*:           00007BH   BYTE   INSEG    CODE           ?PR?IPS114_SHOWUINT8_SIMSPI?SEEKFREE_IPS114_SPI
   *DEL*:           000077H   BYTE   INSEG    CODE           ?PR?IPS114_SHOWUINT8?SEEKFREE_IPS114_SPI
   *DEL*:           0000B9H   BYTE   INSEG    CODE           ?PR?IPS114_SHOWINT8_SIMSPI?SEEKFREE_IPS114_SPI
   *DEL*:           0000B5H   BYTE   INSEG    CODE           ?PR?IPS114_SHOWINT8?SEEKFREE_IPS114_SPI
   *DEL*:           0000F8H   BYTE   INSEG    CODE           ?PR?IPS114_SHOWFLOAT_SIMSPI?SEEKFREE_IPS114_SPI
   *DEL*:           000013H   BYTE   INSEG    CODE           ?PR?IPS114_DRAWPOINT_SIMSPI?SEEKFREE_IPS114_SPI
   *DEL*:           0000F8H   BYTE   INSEG    CODE           ?PR?IPS114_SHOWFLOAT?SEEKFREE_IPS114_SPI
   *DEL*:           000013H   BYTE   INSEG    CODE           ?PR?IPS114_DRAWPOINT?SEEKFREE_IPS114_SPI
   *DEL*:           00008EH   BYTE   INSEG    CODE           ?PR?IPS114_SHOWCHAR_SIMSPI?SEEKFREE_IPS114_SPI
   *DEL*:           00008EH   BYTE   INSEG    CODE           ?PR?IPS114_SHOWCHAR?SEEKFREE_IPS114_SPI
L251 LINKER/LOCATER V4.66.93.0                                                        04/13/2024  20:03:07  PAGE 8


   *DEL*:           00008BH   BYTE   INSEG    CODE           ?PR?IPS114_SHOWUINT16_SIMSPI?SEEKFREE_IPS114_SPI
   *DEL*:           00008BH   BYTE   INSEG    CODE           ?PR?IPS114_SHOWUINT16?SEEKFREE_IPS114_SPI
   *DEL*:           000082H   BYTE   INSEG    CODE           ?PR?IPS114_SHOWINT32_SIMSPI?SEEKFREE_IPS114_SPI
   *DEL*:           0000DDH   BYTE   INSEG    CODE           ?PR?IPS114_SHOWINT16_SIMSPI?SEEKFREE_IPS114_SPI
   *DEL*:           000082H   BYTE   INSEG    CODE           ?PR?IPS114_SHOWINT32?SEEKFREE_IPS114_SPI
   *DEL*:           0000D9H   BYTE   INSEG    CODE           ?PR?IPS114_SHOWINT16?SEEKFREE_IPS114_SPI
   *DEL*:           00003CH   BYTE   INSEG    CODE           ?PR?IPS114_CLEAR_SIMSPI?SEEKFREE_IPS114_SPI
   *DEL*:           00003CH   BYTE   INSEG    CODE           ?PR?IPS114_CLEAR?SEEKFREE_IPS114_SPI
   *DEL*:           00004EH   BYTE   INSEG    CODE           ?PR?IPS114_SHOWSTR_SIMSPI?SEEKFREE_IPS114_SPI
   *DEL*:           00004EH   BYTE   INSEG    CODE           ?PR?IPS114_SHOWSTR?SEEKFREE_IPS114_SPI
   *DEL*:           000029H   BYTE   INSEG    CODE           ?PR?IPS114_WRITEDATA_SIMSPI?SEEKFREE_IPS114_SPI
   *DEL*:           00000AH   BYTE   INSEG    CODE           ?PR?IPS114_WRITEDATA?SEEKFREE_IPS114_SPI
   *DEL*:           000044H   BYTE   INSEG    CODE           ?PR?IPS114_SET_REGION_SIMSPI?SEEKFREE_IPS114_SPI
   *DEL*:           00014FH   BYTE   INSEG    CODE           ?PR?IPS114_INIT_SIMSPI?SEEKFREE_IPS114_SPI
   *DEL*:           000048H   BYTE   INSEG    CODE           ?PR?IPS114_SET_REGION?SEEKFREE_IPS114_SPI
   *DEL*:           00016DH   BYTE   INSEG    CODE           ?PR?IPS114_INIT?SEEKFREE_IPS114_SPI
   *DEL*:           000004H   BYTE   UNIT     EDATA          ?ED?IPS114_SET_REGION_SIMSPI?SEEKFREE_IPS114_SPI
   *DEL*:           000002H   BYTE   UNIT     EDATA          ?ED?IPS114_CLEAR_SIMSPI?SEEKFREE_IPS114_SPI
   *DEL*:           000004H   BYTE   UNIT     EDATA          ?ED?IPS114_SHOWCHAR_SIMSPI?SEEKFREE_IPS114_SPI
   *DEL*:           000006H   BYTE   UNIT     EDATA          ?ED?IPS114_SHOWSTR_SIMSPI?SEEKFREE_IPS114_SPI
   *DEL*:           000005H   BYTE   UNIT     EDATA          ?ED?IPS114_SHOWINT8_SIMSPI?SEEKFREE_IPS114_SPI
   *DEL*:           000004H   BYTE   UNIT     EDATA          ?ED?IPS114_SHOWUINT8_SIMSPI?SEEKFREE_IPS114_SPI
   *DEL*:           000008H   BYTE   UNIT     EDATA          ?ED?IPS114_SHOWINT16_SIMSPI?SEEKFREE_IPS114_SPI
   *DEL*:           000006H   BYTE   UNIT     EDATA          ?ED?IPS114_SHOWUINT16_SIMSPI?SEEKFREE_IPS114_SPI
   *DEL*:           000028H   BYTE   UNIT     EDATA          ?ED?IPS114_SHOWINT32_SIMSPI?SEEKFREE_IPS114_SPI
   *DEL*:           00002BH   BYTE   UNIT     EDATA          ?ED?IPS114_SHOWFLOAT_SIMSPI?SEEKFREE_IPS114_SPI
   *DEL*:           000004H   BYTE   UNIT     EDATA          ?ED?IPS114_SET_REGION?SEEKFREE_IPS114_SPI
   *DEL*:           000002H   BYTE   UNIT     EDATA          ?ED?IPS114_CLEAR?SEEKFREE_IPS114_SPI
   *DEL*:           000004H   BYTE   UNIT     EDATA          ?ED?IPS114_SHOWCHAR?SEEKFREE_IPS114_SPI
   *DEL*:           000006H   BYTE   UNIT     EDATA          ?ED?IPS114_SHOWSTR?SEEKFREE_IPS114_SPI
   *DEL*:           000005H   BYTE   UNIT     EDATA          ?ED?IPS114_SHOWINT8?SEEKFREE_IPS114_SPI
   *DEL*:           000004H   BYTE   UNIT     EDATA          ?ED?IPS114_SHOWUINT8?SEEKFREE_IPS114_SPI
   *DEL*:           000008H   BYTE   UNIT     EDATA          ?ED?IPS114_SHOWINT16?SEEKFREE_IPS114_SPI
   *DEL*:           000006H   BYTE   UNIT     EDATA          ?ED?IPS114_SHOWUINT16?SEEKFREE_IPS114_SPI
   *DEL*:           000028H   BYTE   UNIT     EDATA          ?ED?IPS114_SHOWINT32?SEEKFREE_IPS114_SPI
   *DEL*:           00002BH   BYTE   UNIT     EDATA          ?ED?IPS114_SHOWFLOAT?SEEKFREE_IPS114_SPI
   *DEL*:           000055H   BYTE   INSEG    CODE           ?PR?MPU6050_INIT?SEEKFREE_MPU6050
   *DEL*:           00002CH   BYTE   INSEG    CODE           ?PR?MPU6050_SELF1_CHECK?SEEKFREE_MPU6050
   *DEL*:           000044H   BYTE   INSEG    CODE           ?PR?MPU6050_GET_GYRO?SEEKFREE_MPU6050
   *DEL*:           000044H   BYTE   INSEG    CODE           ?PR?MPU6050_GET_ACCDATA?SEEKFREE_MPU6050
   *DEL*:           000006H   BYTE   UNIT     EDATA          ?ED?MPU6050_GET_ACCDATA?SEEKFREE_MPU6050
   *DEL*:           000006H   BYTE   UNIT     EDATA          ?ED?MPU6050_GET_GYRO?SEEKFREE_MPU6050
   *DEL*:           000033H   BYTE   INSEG    CODE           ?PR?OLED_PUTPIXEL?SEEKFREE_OLED
   *DEL*:           000032H   BYTE   INSEG    CODE           ?PR?OLED_HEXASCII_SPI?SEEKFREE_OLED
   *DEL*:           000325H   BYTE   INSEG    CODE           ?PR?OLED_DIS_BMP_SPI?SEEKFREE_OLED
   *DEL*:           0000F8H   BYTE   INSEG    CODE           ?PR?OLED_PRINTF_FLOAT?SEEKFREE_OLED
   *DEL*:           0000E8H   BYTE   INSEG    CODE           ?PR?OLED_P8X16STR_SPI?SEEKFREE_OLED
   *DEL*:           00002AH   BYTE   INSEG    CODE           ?PR?OLED_CLRPIXEL_SPI?SEEKFREE_OLED
   *DEL*:           000090H   BYTE   INSEG    CODE           ?PR?OLED_PRINT_CHINESE_SPI?SEEKFREE_OLED
   *DEL*:           000033H   BYTE   INSEG    CODE           ?PR?OLED_FILL?SEEKFREE_OLED
   *DEL*:           000082H   BYTE   INSEG    CODE           ?PR?OLED_PRINTF_INT32?SEEKFREE_OLED
   *DEL*:           00001DH   BYTE   INSEG    CODE           ?PR?OLED_UINT16?SEEKFREE_OLED
   *DEL*:           000031H   BYTE   INSEG    CODE           ?PR?OLED_PUTPIXEL_SPI?SEEKFREE_OLED
   *DEL*:           0000A9H   BYTE   INSEG    CODE           ?PR?OLED_P6X8STR?SEEKFREE_OLED
   *DEL*:           00004BH   BYTE   INSEG    CODE           ?PR?OLED_INT16?SEEKFREE_OLED
   *DEL*:           0000A3H   BYTE   INSEG    CODE           ?PR?OLED_INIT?SEEKFREE_OLED
   *DEL*:           0000F8H   BYTE   INSEG    CODE           ?PR?OLED_PRINTF_FLOAT_SPI?SEEKFREE_OLED
   *DEL*:           000032H   BYTE   INSEG    CODE           ?PR?OLED_HEXASCII?SEEKFREE_OLED
   *DEL*:           000033H   BYTE   INSEG    CODE           ?PR?OLED_FILL_SPI?SEEKFREE_OLED
   *DEL*:           000082H   BYTE   INSEG    CODE           ?PR?OLED_PRINTF_INT32_SPI?SEEKFREE_OLED
   *DEL*:           00001DH   BYTE   INSEG    CODE           ?PR?OLED_UINT16_SPI?SEEKFREE_OLED
   *DEL*:           0000A9H   BYTE   INSEG    CODE           ?PR?OLED_P6X8STR_SPI?SEEKFREE_OLED
   *DEL*:           00004BH   BYTE   INSEG    CODE           ?PR?OLED_INT16_SPI?SEEKFREE_OLED
   *DEL*:           00033BH   BYTE   INSEG    CODE           ?PR?OLED_DIS_BMP?SEEKFREE_OLED
   *DEL*:           0000BFH   BYTE   INSEG    CODE           ?PR?OLED_INIT_SPI?SEEKFREE_OLED
L251 LINKER/LOCATER V4.66.93.0                                                        04/13/2024  20:03:07  PAGE 9


   *DEL*:           0000E8H   BYTE   INSEG    CODE           ?PR?OLED_P8X16STR?SEEKFREE_OLED
   *DEL*:           00002CH   BYTE   INSEG    CODE           ?PR?OLED_CLRPIXEL?SEEKFREE_OLED
   *DEL*:           000090H   BYTE   INSEG    CODE           ?PR?OLED_PRINT_CHINESE?SEEKFREE_OLED
   *DEL*:           000005H   BYTE   UNIT     EDATA          ?ED?OLED_P6X8STR?SEEKFREE_OLED
   *DEL*:           000005H   BYTE   UNIT     EDATA          ?ED?OLED_P8X16STR?SEEKFREE_OLED
   *DEL*:           000007H   BYTE   UNIT     EDATA          ?ED?OLED_UINT16?SEEKFREE_OLED
   *DEL*:           000007H   BYTE   UNIT     EDATA          ?ED?OLED_INT16?SEEKFREE_OLED
   *DEL*:           000028H   BYTE   UNIT     EDATA          ?ED?OLED_PRINTF_INT32?SEEKFREE_OLED
   *DEL*:           00002BH   BYTE   UNIT     EDATA          ?ED?OLED_PRINTF_FLOAT?SEEKFREE_OLED
   *DEL*:           00000CH   BYTE   UNIT     EDATA          ?ED?OLED_DIS_BMP?SEEKFREE_OLED
   *DEL*:           00000AH   BYTE   UNIT     EDATA          ?ED?OLED_PRINT_CHINESE?SEEKFREE_OLED
   *DEL*:           000005H   BYTE   UNIT     EDATA          ?ED?OLED_P6X8STR_SPI?SEEKFREE_OLED
   *DEL*:           000005H   BYTE   UNIT     EDATA          ?ED?OLED_P8X16STR_SPI?SEEKFREE_OLED
   *DEL*:           000007H   BYTE   UNIT     EDATA          ?ED?OLED_UINT16_SPI?SEEKFREE_OLED
   *DEL*:           000007H   BYTE   UNIT     EDATA          ?ED?OLED_INT16_SPI?SEEKFREE_OLED
   *DEL*:           000028H   BYTE   UNIT     EDATA          ?ED?OLED_PRINTF_INT32_SPI?SEEKFREE_OLED
   *DEL*:           00002BH   BYTE   UNIT     EDATA          ?ED?OLED_PRINTF_FLOAT_SPI?SEEKFREE_OLED
   *DEL*:           00000CH   BYTE   UNIT     EDATA          ?ED?OLED_DIS_BMP_SPI?SEEKFREE_OLED
   *DEL*:           00000AH   BYTE   UNIT     EDATA          ?ED?OLED_PRINT_CHINESE_SPI?SEEKFREE_OLED
   *DEL*:           000070H   BYTE   INSEG    CODE           ?PR?CCD_SEND_DATA?SEEKFREE_TSL1401
   *DEL*:           000016H   BYTE   INSEG    CODE           ?PR?CCD_INIT?SEEKFREE_TSL1401
   *DEL*:           000035H   BYTE   INSEG    CODE           ?PR?CCD_COLLECT?SEEKFREE_TSL1401
   *DEL*:           000003H   BYTE   UNIT     EDATA          ?ED?CCD_SEND_DATA?SEEKFREE_TSL1401
   *DEL*:           00003AH   BYTE   INSEG    CODE           ?PR?CRC_CHECK?SEEKFREE_VIRSCO
   *DEL*:           000069H   BYTE   INSEG    CODE           ?PR?DATA_CONVERSION?SEEKFREE_VIRSCO
   *DEL*:           000004H   BYTE   UNIT     EDATA          ?ED?DATA_CONVERSION?SEEKFREE_VIRSCO
   *DEL*:           000022H   BYTE   INSEG    CODE           ?PR?WIRELESS_UART_READ_BUFF?SEEKFREE_WIRELESS
   *DEL*:           00005DH   BYTE   INSEG    CODE           ?PR?WIRELESS_UART_SEND_BUFF?SEEKFREE_WIRELESS
   *DEL*:           00003CH   BYTE   INSEG    CODE           ?PR?WIRELESS_UART_INIT?SEEKFREE_WIRELESS
   *DEL*:           000002H   BYTE   UNIT     EDATA          ?ED?WIRELESS_UART_SEND_BUFF?SEEKFREE_WIRELESS
   *DEL*:           000004H   BYTE   UNIT     EDATA          ?ED?WIRELESS_UART_READ_BUFF?SEEKFREE_WIRELESS
   *DEL*:           00005EH   BYTE   INSEG    CODE           ?PR?AT24C02_READ_BYTES?SEEKFREE_AT24C02
   *DEL*:           000017H   BYTE   INSEG    CODE           ?PR?AT24C02_READ_BYTE?SEEKFREE_AT24C02
   *DEL*:           00005BH   BYTE   INSEG    CODE           ?PR?AT24C02_WRITE_BYTES?SEEKFREE_AT24C02
   *DEL*:           000019H   BYTE   INSEG    CODE           ?PR?AT24C02_WRITE_BYTE?SEEKFREE_AT24C02
   *DEL*:           000002H   BYTE   UNIT     EDATA          ?ED?AT24C02_WRITE_BYTES?SEEKFREE_AT24C02
   *DEL*:           000002H   BYTE   UNIT     EDATA          ?ED?AT24C02_READ_BYTES?SEEKFREE_AT24C02
   *DEL*:           000022H   BYTE   INSEG    CODE           ?PR?BLUETOOTH_CH9141_READ_BUFF?SEEKFREE_BLUETOOTH_CH9141
   *DEL*:           0000ABH   BYTE   INSEG    CODE           ?PR?BLUETOOTH_CH9141_SEND_BUFF?SEEKFREE_BLUETOOTH_CH9141
   *DEL*:           00003CH   BYTE   INSEG    CODE           ?PR?BLUETOOTH_CH9141_INIT?SEEKFREE_BLUETOOTH_CH9141
   *DEL*:           000006H   BYTE   UNIT     EDATA          ?ED?BLUETOOTH_CH9141_SEND_BUFF?SEEKFREE_BLUETOOTH_CH9141
   *DEL*:           000004H   BYTE   UNIT     EDATA          ?ED?BLUETOOTH_CH9141_READ_BUFF?SEEKFREE_BLUETOOTH_CH9141
   *DEL*:           000022H   BYTE   INSEG    CODE           ?PR?WIRELESS_CH573_READ_BUFF?SEEKFREE_WIRELESS_CH573
   *DEL*:           00005DH   BYTE   INSEG    CODE           ?PR?WIRELESS_CH573_SEND_BUFF?SEEKFREE_WIRELESS_CH573
   *DEL*:           00003CH   BYTE   INSEG    CODE           ?PR?WIRELESS_CH573_INIT?SEEKFREE_WIRELESS_CH573
   *DEL*:           000002H   BYTE   UNIT     EDATA          ?ED?WIRELESS_CH573_SEND_BUFF?SEEKFREE_WIRELESS_CH573
   *DEL*:           000004H   BYTE   UNIT     EDATA          ?ED?WIRELESS_CH573_READ_BUFF?SEEKFREE_WIRELESS_CH573
   *DEL*:           000027H   BYTE   INSEG    CODE           ?PR?VL53L0X_SET_SIGNAL_RATE_LIMIT?SEEKFREE_VL53L0X
   *DEL*:           00017CH   BYTE   INSEG    CODE           ?PR?VL53L0X_GET_SPAD_INFO?SEEKFREE_VL53L0X
   *DEL*:           00005DH   BYTE   INSEG    CODE           ?PR?VL53L0X_GET_DISTANCE?SEEKFREE_VL53L0X
   *DEL*:           000077H   BYTE   INSEG    CODE           ?PR?VL53L0X_PERFORM_SINGLE_REF_CALIBRATION?SEEKFREE_VL53L0
                                                             -X
   *DEL*:           000073H   BYTE   INSEG    CODE           ?PR?VL53L0X_GET_MEASUREMENT_TIMING_BUDGET?SEEKFREE_VL53L0X
   *DEL*:           000029H   BYTE   INSEG    CODE           ?PR?VL53L0X_SIMIIC_READ_REG?SEEKFREE_VL53L0X
   *DEL*:           000054H   BYTE   INSEG    CODE           ?PR?VL53L0X_SIMIIC_READ_REGS_1?SEEKFREE_VL53L0X
   *DEL*:           0000E4H   BYTE   INSEG    CODE           ?PR?VL53L0X_SET_MEASUREMENT_TIMING_BUDGET?SEEKFREE_VL53L0X
   *DEL*:           000022H   BYTE   INSEG    CODE           ?PR?VL53L0X_SIMIIC_WRITE_REG?SEEKFREE_VL53L0X
   *DEL*:           00061BH   BYTE   INSEG    CODE           ?PR?VL53L0X_INIT?SEEKFREE_VL53L0X
   *DEL*:           000006H   BYTE   UNIT     EDATA          ?ED?VL53L0X_SIMIIC_READ_REGS_1?SEEKFREE_VL53L0X
   *DEL*:           000008H   BYTE   UNIT     EDATA          ?ED?VL53L0X_GET_SPAD_INFO?SEEKFREE_VL53L0X
   *DEL*:           000003H   BYTE   UNIT     EDATA          ?ED?VL53L0X_PERFORM_SINGLE_REF_CALIBRATION?SEEKFREE_VL53L0
                                                             -X
   *DEL*:           000023H   BYTE   UNIT     EDATA          ?ED?VL53L0X_SET_MEASUREMENT_TIMING_BUDGET?SEEKFREE_VL53L0X
   *DEL*:           00001BH   BYTE   UNIT     EDATA          ?ED?VL53L0X_GET_MEASUREMENT_TIMING_BUDGET?SEEKFREE_VL53L0X
   *DEL*:           000003H   BYTE   UNIT     EDATA          ?ED?VL53L0X_SET_SIGNAL_RATE_LIMIT?SEEKFREE_VL53L0X
L251 LINKER/LOCATER V4.66.93.0                                                        04/13/2024  20:03:07  PAGE 10


   *DEL*:           000003H   BYTE   UNIT     EDATA          ?ED?VL53L0X_GET_DISTANCE?SEEKFREE_VL53L0X
   *DEL*:           000012H   BYTE   UNIT     EDATA          ?ED?VL53L0X_INIT?SEEKFREE_VL53L0X
   *DEL*:           00002BH   BYTE   INSEG    CODE           ?PR?LIMIT?PID
   *DEL*:           000189H   BYTE   INSEG    CODE           ?PR?PID_CALC_INCREMENTAL?PID
   *DEL*:           000107H   BYTE   INSEG    CODE           ?PR?PID_CALC_POSITIONAL?PID
   *DEL*:           000004H   BYTE   UNIT     EDATA          ?ED?PID_CALC_POSITIONAL?PID
   *DEL*:           000028H   BYTE   UNIT     EDATA          ?ED?PRINTF
   *DEL*:           00001AH   BYTE   INSEG    CODE           ?PR?MEMSET?_?MEMSET



OVERLAY MAP OF MODULE:   .\Out_File\SEEKFREE (board)


FUNCTION/MODULE                               EDATA_GROUP
--> CALLED FUNCTION/MODULE                    START  STOP
=========================================================
UART1_Isr/isr                                 ----- -----

*** NEW ROOT ********************************

UART2_Isr/isr                                 ----- -----

*** NEW ROOT ********************************

UART3_Isr/isr                                 ----- -----

*** NEW ROOT ********************************

UART4_Isr/isr                                 ----- -----
  +--> wireless_uart_callback/SEEKFREE_WIRELESS
  +--> bluetooth_ch9141_uart_callback/SEEKFREE_BLUETOOTH_CH9141
  +--> wireless_ch573_callback/SEEKFREE_WIRELESS_CH573

wireless_uart_callback/SEEKFREE_WIRELESS      ----- -----
  +--> fifo_write_buffer/zf_fifo

fifo_write_buffer/zf_fifo                     0326H 0331H
  +--> memcpy?_/memcpy
  +--> fifo_head_offset/zf_fifo

memcpy?_/memcpy                               ----- -----

fifo_head_offset/zf_fifo                      ----- -----

bluetooth_ch9141_uart_callback/SEEKFREE_+     ----- -----
... BLUETOOTH_CH9141
  +--> fifo_write_buffer/zf_fifo

wireless_ch573_callback/SEEKFREE_WIRELES+     ----- -----
... S_CH573
  +--> fifo_write_buffer/zf_fifo

*** NEW ROOT ********************************

INT0_Isr/isr                                  ----- -----

*** NEW ROOT ********************************

INT1_Isr/isr                                  ----- -----

*** NEW ROOT ********************************

INT2_Isr/isr                                  ----- -----

L251 LINKER/LOCATER V4.66.93.0                                                        04/13/2024  20:03:07  PAGE 11


*** NEW ROOT ********************************

INT3_Isr/isr                                  ----- -----

*** NEW ROOT ********************************

INT4_Isr/isr                                  ----- -----

*** NEW ROOT ********************************

TM0_Isr/isr                                   ----- -----

*** NEW ROOT ********************************

TM1_Isr/isr                                   ----- -----

*** NEW ROOT ********************************

TM2_Isr/isr                                   ----- -----

*** NEW ROOT ********************************

TM3_Isr/isr                                   ----- -----

*** NEW ROOT ********************************

TM4_Isr/isr                                   ----- -----

*** NEW ROOT ********************************

?C_C51STARTUP?1                               ----- -----

*** NEW ROOT ********************************

?C_C51STARTUP                                 ----- -----

*** NEW ROOT ********************************

?C_C51STARTUP?3                               ----- -----
  +--> main/main

main/main                                     ----- -----
  +--> Init_all/init

Init_all/init                                 ----- -----
  +--> DisableGlobalIRQ/board
  +--> board_init/board
  +--> pit_timer_ms/zf_tim
  +--> PID_Init/pid
  +--> delay_ms/zf_delay
  +--> EnableGlobalIRQ/board

DisableGlobalIRQ/board                        ----- -----

board_init/board                              ----- -----
  +--> delay_init/zf_delay
  +--> uart_init/zf_uart

delay_init/zf_delay                           ----- -----
  +--> ?C?SLDIV/?C?SLDIV

?C?SLDIV/?C?SLDIV                             ----- -----
  +--> ?C?ULIDIV/?C?ULDIV

?C?ULIDIV/?C?ULDIV                            ----- -----
L251 LINKER/LOCATER V4.66.93.0                                                        04/13/2024  20:03:07  PAGE 12



uart_init/zf_uart                             0332H 0337H
  +--> ?C?ULIDIV/?C?ULDIV

pit_timer_ms/zf_tim                           ----- -----
  +--> ?C?SLDIV/?C?SLDIV

PID_Init/pid                                  0332H 0341H

delay_ms/zf_delay                             ----- -----

EnableGlobalIRQ/board                         ----- -----

*** NEW ROOT ********************************

?C_C51STARTUP?2                               ----- -----



PUBLIC SYMBOLS OF MODULE:  .\Out_File\SEEKFREE (board)


      VALUE       CLASS    TYPE      PUBLIC SYMBOL NAME
      =================================================
      00FF111EH   CODE     NEAR LAB  ?C?CASTF
      000000FFH   NUMBER   ---       ?C?CODESEG
      00FF10EBH   CODE     NEAR LAB  ?C?FCASTC
      00FF10E6H   CODE     NEAR LAB  ?C?FCASTI
      00FF10E1H   CODE     NEAR LAB  ?C?FCASTL
      00FF0EB4H   CODE     ---       ?C?FPADD
      00FF108FH   CODE     ---       ?C?FPCMP
      00FF108DH   CODE     ---       ?C?FPCMP3
      00FF1622H   CODE     ---       ?C?FPCONVERT
      00FF100CH   CODE     ---       ?C?FPDIV
      00FF1187H   CODE     ---       ?C?FPGETOPN2
      00FF0F6CH   CODE     ---       ?C?FPMUL
      00FF11C4H   CODE     ---       ?C?FPNANRESULT
      00FF10D3H   CODE     ---       ?C?FPNEG
      00FF11CCH   CODE     ---       ?C?FPOVERFLOW
      00FF11A0H   CODE     ---       ?C?FPRESULT
      00FF11B6H   CODE     ---       ?C?FPRESULT2
      00FF16DAH   CODE     ---       ?C?FPROUND
      00FF0EB1H   CODE     ---       ?C?FPSUB
      00FF11C9H   CODE     ---       ?C?FPUNDERFLOW
      00FF174DH   CODE     ---       ?C?FTNPWR
      00FF2503H   CODE     ---       ?C?INITEDATA
      00FF2B46H   HCONST   WORD      ?C?INITEDATA_END
      00FF17C7H   CODE     ---       ?C?LIMUL
      00FF17B6H   CODE     ---       ?C?LMUL
      00FF1205H   CODE     ---       ?C?PRNFMT
      00FF1784H   CODE     ---       ?C?SIDIV
      00FF1823H   CODE     NEAR LAB  ?C?SLDIV
      00FF0000H   CODE     ---       ?C?STARTUP
      00FF17D2H   CODE     NEAR LAB  ?C?ULDIV
      00FF17D0H   CODE     NEAR LAB  ?C?ULIDIV
      00000001H   NUMBER   ---       ?C?XDATASEG
      00FF0000H   CODE     ---       ?C_STARTUP
*DEL*:1FFFFFF8H   EDATA    BYTE      ?data_conversion?BYTE
*DEL*:1FFFFFF8H   EDATA    BYTE      ?fifo_init?BYTE
*DEL*:1FFFFFFCH   EDATA    BYTE      ?fifo_read_buffer?BYTE
      00000322H   EDATA    BYTE      ?fifo_write_buffer?BYTE
*DEL*:1FFFFFFAH   EDATA    BYTE      ?iic_init?BYTE
*DEL*:1FFFFFFCH   EDATA    BYTE      ?ips114_showfloat?BYTE
*DEL*:1FFFFFFCH   EDATA    BYTE      ?ips114_showfloat_simspi?BYTE
*DEL*:1FFFFFFCH   EDATA    BYTE      ?lcd_showfloat?BYTE
L251 LINKER/LOCATER V4.66.93.0                                                        04/13/2024  20:03:07  PAGE 13


*DEL*:1FFFFFFCH   EDATA    BYTE      ?lcd_showfloat_simspi?BYTE
      00000378H   EDATA    BYTE      ?number_conversion_ascii?BYTE
*DEL*:1FFFFFFCH   EDATA    BYTE      ?oled_printf_float?BYTE
*DEL*:1FFFFFFCH   EDATA    BYTE      ?oled_printf_float_spi?BYTE
*DEL*:1FFFFFF8H   EDATA    BYTE      ?PID_Calc_Positional?BYTE
      0000032AH   EDATA    BYTE      ?PID_Init?BYTE
*DEL*:00000028H   EDATA    ---       ?printf?BYTE
*DEL*:1FFFFFFAH   EDATA    BYTE      ?pwm_freq?BYTE
*DEL*:1FFFFFFEH   EDATA    BYTE      ?pwm_init?BYTE
*DEL*:1FFFFFF7H   EDATA    BYTE      ?spi_init?BYTE
      0000032CH   EDATA    BYTE      ?uart_init?BYTE
*DEL*:00000028H   EDATA    BYTE      ?zf_sprintf?BYTE
*SFR* 000000BCH   DATA     BYTE      ADC_CONTR
*DEL*:00000000H   CODE     ---       adc_init
*DEL*:00000000H   CODE     ---       adc_once
*SFR* 000000BDH   DATA     BYTE      ADC_RES
*SFR* 000000BEH   DATA     BYTE      ADC_RESL
*SFR* 000000DEH   DATA     BYTE      ADCCFG
*DEL*:00000000H   CODE     ---       at24c02_read_byte
*DEL*:00000000H   CODE     ---       at24c02_read_bytes
*DEL*:00000000H   CODE     ---       at24c02_write_byte
*DEL*:00000000H   CODE     ---       at24c02_write_bytes
*SFR* 000000EFH   DATA     BYTE      AUXINTIF
*SFR* 0000008EH   DATA     BYTE      AUXR
*DEL*:00000000H   CODE     ---       bluetooth_ch9141_init
*DEL*:00000000H   CODE     ---       bluetooth_ch9141_read_buff
*DEL*:00000000H   CODE     ---       bluetooth_ch9141_send_buff
      00FF2971H   CODE     ---       bluetooth_ch9141_uart_callback
      00FF20EEH   CODE     ---       board_init
      000001EAH   EDATA    ---       busy
*DEL*:00000000H   CODE     ---       ccd_collect
      00000022H   EDATA    ---       ccd_data
*DEL*:00000000H   CODE     ---       ccd_init
*DEL*:00000000H   CODE     ---       ccd_send_data
*DEL*:00000000H   CODE     ---       CRC_CHECK
*DEL*:00000000H   CODE     ---       ctimer_count_clean
*DEL*:00000000H   CODE     ---       ctimer_count_init
*DEL*:00000000H   CODE     ---       ctimer_count_read
*DEL*:00000000H   CODE     ---       data_conversion
      00FF2621H   CODE     ---       delay_init
      00FF29A3H   CODE     ---       delay_ms
      00FF0066H   CODE     ---       delay_us
      00FF0016H   CODE     ---       DisableGlobalIRQ
*SFR* 000000A8H.7 DATA     BIT       EA
      00FF29BAH   CODE     ---       eeprom_trig
      00FF000EH   CODE     ---       EnableGlobalIRQ
*DEL*:00000000H   CODE     ---       encoder_angle_simspi
*DEL*:00000000H   CODE     ---       encoder_angle_spi
      00FF0006H   CODE     ---       encoder_delay_us
*DEL*:00000000H   CODE     ---       encoder_init_simspi
*DEL*:00000000H   CODE     ---       encoder_init_spi
*DEL*:00000000H   CODE     ---       encoder_self4_check
*DEL*:00000000H   CODE     ---       encoder_self5_check
*DEL*:00000000H   CODE     ---       encoder_simspi_r_reg_byte
*DEL*:00000000H   CODE     ---       encoder_simspi_w_reg_byte
*DEL*:00000000H   CODE     ---       encoder_spi_r_reg_byte
*DEL*:00000000H   CODE     ---       encoder_spi_w_reg_byte
      00000374H   EDATA    FLOAT     err_add
*SFR* 000000A8H.4 DATA     BIT       ES
*SFR* 000000A8H.1 DATA     BIT       ET0
*SFR* 000000A8H.3 DATA     BIT       ET1
*SFR* 000000A8H.0 DATA     BIT       EX0
*SFR* 000000A8H.2 DATA     BIT       EX1
*DEL*:00000000H   CODE     ---       exit_init
*DEL*:00000000H   CODE     ---       extern_iap_write_bytes
L251 LINKER/LOCATER V4.66.93.0                                                        04/13/2024  20:03:07  PAGE 14


*SFR* 000000D0H.5 DATA     BIT       F0
*DEL*:00000000H   CODE     ---       fifo_clear
*DEL*:00000000H   CODE     ---       fifo_end_offset
      00FF24ACH   CODE     ---       fifo_head_offset
*DEL*:00000000H   CODE     ---       fifo_init
*DEL*:00000000H   CODE     ---       fifo_read_buffer
*DEL*:00000000H   CODE     ---       fifo_used
      00FF1E0DH   CODE     ---       fifo_write_buffer
      00000020H.0 BIT      BIT       flag
*DEL*:00000000H   CODE     ---       get_icm20602_accdata_simiic
*DEL*:00000000H   CODE     ---       get_icm20602_accdata_simspi
*DEL*:00000000H   CODE     ---       get_icm20602_gyro_simiic
*DEL*:00000000H   CODE     ---       get_icm20602_gyro_simspi
      00FF1857H   CODE     ---       gpio_mode
*DEL*:00000000H   CODE     ---       gpio_pull_set
*SFR* 000000F6H   DATA     BYTE      IAP_ADDRE
*SFR* 000000C3H   DATA     BYTE      IAP_ADDRH
*SFR* 000000C4H   DATA     BYTE      IAP_ADDRL
*SFR* 000000C5H   DATA     BYTE      IAP_CMD
*SFR* 000000C7H   DATA     BYTE      IAP_CONTR
*SFR* 000000C2H   DATA     BYTE      IAP_DATA
*DEL*:00000000H   CODE     ---       iap_erase_page
*DEL*:00000000H   CODE     ---       iap_get_cmd_state
*DEL*:00000000H   CODE     ---       iap_idle
*DEL*:00000000H   CODE     ---       iap_init
*DEL*:00000000H   CODE     ---       iap_read_bytes
*DEL*:00000000H   CODE     ---       iap_set_tps
*SFR* 000000F5H   DATA     BYTE      IAP_TPS
*SFR* 000000C6H   DATA     BYTE      IAP_TRIG
*DEL*:00000000H   CODE     ---       iap_write_bytes
*DEL*:00000000H   CODE     ---       icm20602_init_simiic
*DEL*:00000000H   CODE     ---       icm20602_init_simspi
*DEL*:00000000H   CODE     ---       icm20602_self1_check
*DEL*:00000000H   CODE     ---       icm20602_self4_check
      00000008H   EDATA    INT       icm_acc_x
      0000000AH   EDATA    INT       icm_acc_y
      0000000CH   EDATA    INT       icm_acc_z
      0000000EH   EDATA    INT       icm_gyro_x
      00000010H   EDATA    INT       icm_gyro_y
      00000012H   EDATA    INT       icm_gyro_z
*DEL*:00000000H   CODE     ---       icm_simspi_r_reg_byte
*DEL*:00000000H   CODE     ---       icm_simspi_r_reg_bytes
*DEL*:00000000H   CODE     ---       icm_simspi_w_reg_byte
      00FF28DEH   CODE     ---       icm_simspi_wr_byte
*SFR* 000000A8H   DATA     BYTE      IE
*SFR* 000000AFH   DATA     BYTE      IE2
      0000034CH   EDATA    BYTE      IIC_ad_main
      0000034EH   EDATA    BYTE      IIC_ad_sub
      0000034FH   EDATA    ---       IIC_buf
*DEL*:00000000H   CODE     ---       iic_change_pin
      00FF29CFH   CODE     ---       iic_delay_us
*DEL*:00000000H   CODE     ---       iic_init
      0000034DH   EDATA    BYTE      IIC_num
*DEL*:00000000H   CODE     ---       iic_read_reg
*DEL*:00000000H   CODE     ---       iic_read_reg_bytes
*DEL*:00000000H   CODE     ---       iic_write_reg
      00FF241EH   CODE     ---       Init_all
      00FF0011H   CODE     ---       INT0_Isr
      00FF0012H   CODE     ---       INT1_Isr
      00FF2AA4H   CODE     ---       INT2_Isr
      00FF2AACH   CODE     ---       INT3_Isr
      00FF2AB4H   CODE     ---       INT4_Isr
*SFR* 0000008FH   DATA     BYTE      INTCLKO
*SFR* 000000B8H   DATA     BYTE      IP
*SFR* 000000B5H   DATA     BYTE      IP2
L251 LINKER/LOCATER V4.66.93.0                                                        04/13/2024  20:03:07  PAGE 15


*SFR* 000000B6H   DATA     BYTE      IP2H
*SFR* 000000B7H   DATA     BYTE      IPH
*DEL*:00000000H   CODE     ---       ips114_clear
*DEL*:00000000H   CODE     ---       ips114_clear_simspi
*DEL*:00000000H   CODE     ---       ips114_drawpoint
*DEL*:00000000H   CODE     ---       ips114_drawpoint_simspi
*DEL*:00000000H   CODE     ---       ips114_init
*DEL*:00000000H   CODE     ---       ips114_init_simspi
*DEL*:00000000H   CODE     ---       ips114_set_region
*DEL*:00000000H   CODE     ---       ips114_set_region_simspi
*DEL*:00000000H   CODE     ---       ips114_showchar
*DEL*:00000000H   CODE     ---       ips114_showchar_simspi
*DEL*:00000000H   CODE     ---       ips114_showfloat
*DEL*:00000000H   CODE     ---       ips114_showfloat_simspi
*DEL*:00000000H   CODE     ---       ips114_showint16
*DEL*:00000000H   CODE     ---       ips114_showint16_simspi
*DEL*:00000000H   CODE     ---       ips114_showint32
*DEL*:00000000H   CODE     ---       ips114_showint32_simspi
*DEL*:00000000H   CODE     ---       ips114_showint8
*DEL*:00000000H   CODE     ---       ips114_showint8_simspi
*DEL*:00000000H   CODE     ---       ips114_showstr
*DEL*:00000000H   CODE     ---       ips114_showstr_simspi
*DEL*:00000000H   CODE     ---       ips114_showuint16
*DEL*:00000000H   CODE     ---       ips114_showuint16_simspi
*DEL*:00000000H   CODE     ---       ips114_showuint8
*DEL*:00000000H   CODE     ---       ips114_showuint8_simspi
*DEL*:00000000H   CODE     ---       ips114_writeData
      00FF28FDH   CODE     ---       ips114_writedata_16bit
*DEL*:00000000H   CODE     ---       ips114_writeData_simspi
      00FF271DH   CODE     ---       ips114_writeDatai_16bit_simspi
      00FF2A7CH   CODE     ---       ips114_writeIndex
      00FF279BH   CODE     ---       ips114_writeIndex_simspi
*SFR* 00000088H.0 DATA     BIT       IT0
*SFR* 00000088H.2 DATA     BIT       IT1
*DEL*:00000000H   CODE     ---       lcd_clear
*DEL*:00000000H   CODE     ---       lcd_clear_simspi
*DEL*:00000000H   CODE     ---       lcd_drawpoint
*DEL*:00000000H   CODE     ---       lcd_drawpoint_simspi
*DEL*:00000000H   CODE     ---       lcd_init
*DEL*:00000000H   CODE     ---       lcd_init_simspi
      00FF2335H   CODE     ---       lcd_set_region
      00FF23D2H   CODE     ---       lcd_set_region_simspi
*DEL*:00000000H   CODE     ---       lcd_showchar
*DEL*:00000000H   CODE     ---       lcd_showchar_simspi
*DEL*:00000000H   CODE     ---       lcd_showfloat
*DEL*:00000000H   CODE     ---       lcd_showfloat_simspi
*DEL*:00000000H   CODE     ---       lcd_showint16
*DEL*:00000000H   CODE     ---       lcd_showint16_simspi
*DEL*:00000000H   CODE     ---       lcd_showint32
*DEL*:00000000H   CODE     ---       lcd_showint32_simspi
*DEL*:00000000H   CODE     ---       lcd_showint8
*DEL*:00000000H   CODE     ---       lcd_showint8_simspi
*DEL*:00000000H   CODE     ---       lcd_showstr
*DEL*:00000000H   CODE     ---       lcd_showstr_simspi
*DEL*:00000000H   CODE     ---       lcd_showuint16
*DEL*:00000000H   CODE     ---       lcd_showuint16_simspi
*DEL*:00000000H   CODE     ---       lcd_showuint8
*DEL*:00000000H   CODE     ---       lcd_showuint8_simspi
      00FF2A72H   CODE     ---       lcd_writeData
      00FF28BFH   CODE     ---       lcd_writedata_16bit
      00FF26F1H   CODE     ---       lcd_writeData_16bit_simspi
      00FF2772H   CODE     ---       lcd_writeData_simspi
      00FF2A68H   CODE     ---       lcd_writeIndex
      00FF2749H   CODE     ---       lcd_writeIndex_simspi
*DEL*:00000000H   CODE     ---       Limit
L251 LINKER/LOCATER V4.66.93.0                                                        04/13/2024  20:03:07  PAGE 16


      00FF2A50H   CODE     ---       main
      00FF2816H   CODE     ---       memcpy?_
*DEL*:00000000H   CODE     ---       memset?_
*DEL*:00000000H   CODE     ---       mpu6050_get_accdata
*DEL*:00000000H   CODE     ---       mpu6050_get_gyro
*DEL*:00000000H   CODE     ---       mpu6050_init
*DEL*:00000000H   CODE     ---       mpu6050_self1_check
      00000014H   EDATA    INT       mpu_acc_x
      00000016H   EDATA    INT       mpu_acc_y
      00000018H   EDATA    INT       mpu_acc_z
      0000001AH   EDATA    INT       mpu_gyro_x
      0000001CH   EDATA    INT       mpu_gyro_y
      0000001EH   EDATA    INT       mpu_gyro_z
      00FF205CH   CODE     ---       number_conversion_ascii
*DEL*:00000000H   CODE     ---       NVIC_SetPriority
      00FF0C86H   CODE     ---       oled_6x8
      00FF00A6H   CODE     ---       oled_8x16
*DEL*:00000000H   CODE     ---       oled_clrpixel
*DEL*:00000000H   CODE     ---       oled_clrpixel_spi
*DEL*:00000000H   CODE     ---       oled_dis_bmp
*DEL*:00000000H   CODE     ---       oled_dis_bmp_spi
*DEL*:00000000H   CODE     ---       oled_fill
*DEL*:00000000H   CODE     ---       oled_fill_spi
*DEL*:00000000H   CODE     ---       oled_hexascii
*DEL*:00000000H   CODE     ---       oled_hexascii_spi
*DEL*:00000000H   CODE     ---       oled_init
*DEL*:00000000H   CODE     ---       oled_init_spi
*DEL*:00000000H   CODE     ---       oled_int16
*DEL*:00000000H   CODE     ---       oled_int16_spi
*DEL*:00000000H   CODE     ---       oled_p6x8str
*DEL*:00000000H   CODE     ---       oled_p6x8str_spi
*DEL*:00000000H   CODE     ---       oled_p8x16str
*DEL*:00000000H   CODE     ---       oled_p8x16str_spi
*DEL*:00000000H   CODE     ---       oled_print_chinese
*DEL*:00000000H   CODE     ---       oled_print_chinese_spi
*DEL*:00000000H   CODE     ---       oled_printf_float
*DEL*:00000000H   CODE     ---       oled_printf_float_spi
*DEL*:00000000H   CODE     ---       oled_printf_int32
*DEL*:00000000H   CODE     ---       oled_printf_int32_spi
*DEL*:00000000H   CODE     ---       oled_putpixel
*DEL*:00000000H   CODE     ---       oled_putpixel_spi
      00FF283BH   CODE     ---       oled_set_pos
      00FF285EH   CODE     ---       oled_set_pos_spi
*DEL*:00000000H   CODE     ---       oled_uint16
*DEL*:00000000H   CODE     ---       oled_uint16_spi
      00FF27C4H   CODE     ---       oled_wrcmd
      00FF2A86H   CODE     ---       oled_wrcmd_spi
      00FF27EDH   CODE     ---       oled_wrdat
      00FF2A90H   CODE     ---       oled_wrdat_spi
*SFR* 00000080H   DATA     BYTE      P0
*SFR* 00000080H.7 DATA     BIT       P07
*SFR* 00000094H   DATA     BYTE      P0M0
*SFR* 00000093H   DATA     BYTE      P0M1
*SFR* 00000090H   DATA     BYTE      P1
*SFR* 00000092H   DATA     BYTE      P1M0
*SFR* 00000091H   DATA     BYTE      P1M1
*SFR* 000000A0H   DATA     BYTE      P2
*SFR* 000000A0H.0 DATA     BIT       P20
*SFR* 000000A0H.1 DATA     BIT       P21
*SFR* 000000A0H.2 DATA     BIT       P22
*SFR* 000000A0H.3 DATA     BIT       P23
*SFR* 000000A0H.4 DATA     BIT       P24
*SFR* 000000A0H.5 DATA     BIT       P25
*SFR* 000000A0H.6 DATA     BIT       P26
*SFR* 000000A0H.7 DATA     BIT       P27
L251 LINKER/LOCATER V4.66.93.0                                                        04/13/2024  20:03:07  PAGE 17


*SFR* 00000096H   DATA     BYTE      P2M0
*SFR* 00000095H   DATA     BYTE      P2M1
*SFR* 000000B0H   DATA     BYTE      P3
*SFR* 000000B0H.2 DATA     BIT       P32
*SFR* 000000B0H.3 DATA     BIT       P33
*SFR* 000000B2H   DATA     BYTE      P3M0
*SFR* 000000B1H   DATA     BYTE      P3M1
*SFR* 000000C0H   DATA     BYTE      P4
*SFR* 000000C0H.0 DATA     BIT       P40
*SFR* 000000C0H.1 DATA     BIT       P41
*SFR* 000000C0H.2 DATA     BIT       P42
*SFR* 000000C0H.3 DATA     BIT       P43
*SFR* 000000C0H.7 DATA     BIT       P47
*SFR* 000000B4H   DATA     BYTE      P4M0
*SFR* 000000B3H   DATA     BYTE      P4M1
*SFR* 000000C8H   DATA     BYTE      P5
*SFR* 000000C8H.0 DATA     BIT       P50
*SFR* 000000C8H.1 DATA     BIT       P51
*SFR* 000000CAH   DATA     BYTE      P5M0
*SFR* 000000C9H   DATA     BYTE      P5M1
*SFR* 000000E8H   DATA     BYTE      P6
*SFR* 000000CCH   DATA     BYTE      P6M0
*SFR* 000000CBH   DATA     BYTE      P6M1
*SFR* 000000F8H   DATA     BYTE      P7
*SFR* 000000E2H   DATA     BYTE      P7M0
*SFR* 000000E1H   DATA     BYTE      P7M1
*SFR* 000000A2H   DATA     BYTE      P_SW1
*SFR* 000000BAH   DATA     BYTE      P_SW2
*DEL*:00000000H   CODE     ---       PID_Calc_Incremental
*DEL*:00000000H   CODE     ---       PID_Calc_Positional
      00FF21D8H   CODE     ---       PID_Init
      000002EEH   EDATA    ---       PID_Servos
      00FF1FC8H   CODE     ---       pit_timer_ms
      00FF115BH   CODE     NEAR LAB  printf
*DEL*:00000000H   CODE     ---       printf_reverse_order
*SFR* 000000D0H   DATA     BYTE      PSW
      00FF2A34H   CODE     ---       putchar
      00FF2AECH   HCONST   ---       PWM_ARR_ADDR
      00FF2AF4H   HCONST   ---       PWM_CCER_ADDR
      00FF2B04H   HCONST   ---       PWM_CCMR_ADDR
      00FF2ACCH   HCONST   ---       PWM_CCR_ADDR
*DEL*:00000000H   CODE     ---       pwm_duty
*DEL*:00000000H   CODE     ---       pwm_freq
*DEL*:00000000H   CODE     ---       pwm_init
*DEL*:00000000H   CODE     ---       pwm_set_gpio
*DEL*:00000000H   CODE     ---       read_ch
*DEL*:00000000H   CODE     ---       recv_ack
*DEL*:00000000H   CODE     ---       recv_data
*SFR* 000000FFH   DATA     BYTE      RSTCFG
*SFR* 0000009BH   DATA     BYTE      S2BUF
*SFR* 0000009AH   DATA     BYTE      S2CON
*SFR* 000000ADH   DATA     BYTE      S3BUF
*SFR* 000000ACH   DATA     BYTE      S3CON
*SFR* 000000FEH   DATA     BYTE      S4BUF
*SFR* 000000FDH   DATA     BYTE      S4CON
*SFR* 00000099H   DATA     BYTE      SBUF
*SFR* 00000098H   DATA     BYTE      SCON
*DEL*:00000000H   CODE     ---       send_ack
*DEL*:00000000H   CODE     ---       send_ch
*DEL*:00000000H   CODE     ---       send_data
*DEL*:00000000H   CODE     ---       send_nak
*DEL*:00000000H   CODE     ---       set_zero_position_simspi
*DEL*:00000000H   CODE     ---       set_zero_position_spi
*DEL*:00000000H   CODE     ---       showimage
      00FF2A5DH   CODE     ---       simiic_delay
L251 LINKER/LOCATER V4.66.93.0                                                        04/13/2024  20:03:07  PAGE 18


*DEL*:00000000H   CODE     ---       simiic_init
*DEL*:00000000H   CODE     ---       simiic_read_reg
*DEL*:00000000H   CODE     ---       simiic_read_regs
      00FF287FH   CODE     ---       simiic_sendack
      00FF2A16H   CODE     ---       simiic_start
      00FF29E4H   CODE     ---       simiic_stop
*DEL*:00000000H   CODE     ---       simiic_write_reg
*DEL*:00000000H   CODE     ---       simspi_r_reg_byte
*DEL*:00000000H   CODE     ---       simspi_w_reg_byte
*DEL*:00000000H   CODE     ---       simspi_wr_byte
*SFR* 000000CEH   DATA     BYTE      SPCTL
*SFR* 000000CFH   DATA     BYTE      SPDAT
*DEL*:00000000H   CODE     ---       spi_change_mode
*DEL*:00000000H   CODE     ---       spi_change_pin
*DEL*:00000000H   CODE     ---       spi_init
      00FF2A42H   CODE     ---       spi_mosi
*DEL*:00000000H   CODE     ---       spi_r_reg_byte
*DEL*:00000000H   CODE     ---       spi_w_reg_byte
*DEL*:00000000H   CODE     ---       spi_wr_byte
*SFR* 000000CDH   DATA     BYTE      SPSTAT
*DEL*:00000000H   CODE     ---       start
*DEL*:00000000H   CODE     ---       stop
      00000364H   EDATA    LONG      sys_clk
*SFR* 000000D6H   DATA     BYTE      T2H
*SFR* 000000D7H   DATA     BYTE      T2L
*SFR* 000000D4H   DATA     BYTE      T3H
*SFR* 000000D5H   DATA     BYTE      T3L
*SFR* 000000D2H   DATA     BYTE      T4H
*SFR* 000000D3H   DATA     BYTE      T4L
*SFR* 000000DDH   DATA     BYTE      T4T3M
*SFR* 00000088H   DATA     BYTE      TCON
      00FF0696H   CODE     ---       tft_ascii
*SFR* 0000008CH   DATA     BYTE      TH0
*SFR* 0000008DH   DATA     BYTE      TH1
*SFR* 0000008AH   DATA     BYTE      TL0
*SFR* 0000008BH   DATA     BYTE      TL1
      00FF0019H   CODE     ---       TM0_Isr
      00FF001AH   CODE     ---       TM1_Isr
      00FF2ABCH   CODE     ---       TM2_Isr
      00FF2AC4H   CODE     ---       TM3_Isr
      00FF2A9AH   CODE     ---       TM4_Isr
*SFR* 00000089H   DATA     BYTE      TMOD
*SFR* 00000088H.4 DATA     BIT       TR0
*SFR* 00000088H.6 DATA     BIT       TR1
      00000021H   EDATA    BYTE      tsl1401_finish_flag
      00FF256DH   CODE     ---       UART1_Isr
      00000122H   EDATA    ---       uart1_rx_buff
      00000186H   EDATA    ---       uart1_tx_buff
      00FF291CH   CODE     ---       UART2_Isr
      00FF293AH   CODE     ---       UART3_Isr
      00FF216FH   CODE     ---       UART4_Isr
      00FF1C4EH   CODE     ---       uart_init
*DEL*:00000000H   CODE     ---       uart_putbuff
      00FF228DH   CODE     ---       uart_putchar
*DEL*:00000000H   CODE     ---       uart_putstr
      00000342H   EDATA    ---       virtual_scope_data
      00000378H   EDATA    WORD      vl53l0x_distance_mm
      0000037AH   EDATA    BYTE      vl53l0x_finsh_flag
*DEL*:00000000H   CODE     ---       vl53l0x_get_distance
*DEL*:00000000H   CODE     ---       vl53l0x_init
      00FF2467H   CODE     ---       wait
      00FF298AH   CODE     ---       wireless_ch573_callback
*DEL*:00000000H   CODE     ---       wireless_ch573_init
*DEL*:00000000H   CODE     ---       wireless_ch573_read_buff
*DEL*:00000000H   CODE     ---       wireless_ch573_send_buff
L251 LINKER/LOCATER V4.66.93.0                                                        04/13/2024  20:03:07  PAGE 19


      0000037BH   EDATA    INT       wireless_type
      00FF2958H   CODE     ---       wireless_uart_callback
*DEL*:00000000H   CODE     ---       wireless_uart_init
*DEL*:00000000H   CODE     ---       wireless_uart_read_buff
*DEL*:00000000H   CODE     ---       wireless_uart_send_buff
*SFR* 000000E9H   DATA     BYTE      WTST
      00000368H   EDATA    WORD      zf_delay_ms
      0000036AH   EDATA    WORD      zf_delay_us
*DEL*:00000000H   CODE     ---       zf_sprintf



SYMBOL TABLE OF MODULE:  .\Out_File\SEEKFREE (board)

      VALUE       REP       CLASS    TYPE      SYMBOL NAME
      ====================================================
      ---         MODULE    ---      ---       board
      00FF000EH   PUBLIC    CODE     ---       EnableGlobalIRQ
      00FF20EEH   PUBLIC    CODE     ---       board_init
      00FF0016H   PUBLIC    CODE     ---       DisableGlobalIRQ
      00FF2A34H   PUBLIC    CODE     ---       putchar
      00000364H   PUBLIC    EDATA    LONG      sys_clk
      00000094H   SFRSYM    DATA     BYTE      P0M0
      000000D0H   SFRSYM    DATA     BYTE      PSW
      000000FDH   SFRSYM    DATA     BYTE      S4CON
      000000ACH   SFRSYM    DATA     BYTE      S3CON
      0000009AH   SFRSYM    DATA     BYTE      S2CON
      000000E9H   SFRSYM    DATA     BYTE      WTST
      000000FFH   SFRSYM    DATA     BYTE      RSTCFG
      0000008EH   SFRSYM    DATA     BYTE      AUXR
      000000AFH   SFRSYM    DATA     BYTE      IE2
      00000088H   SFRSYM    DATA     BYTE      TCON
      00000089H   SFRSYM    DATA     BYTE      TMOD
      00000098H   SFRSYM    DATA     BYTE      SCON
      000000DEH   SFRSYM    DATA     BYTE      ADCCFG
      000000B8H   SFRSYM    DATA     BYTE      IP
      000000A8H   SFRSYM    DATA     BYTE      IE
      000000BAH   SFRSYM    DATA     BYTE      P_SW2
      000000A2H   SFRSYM    DATA     BYTE      P_SW1
      000000F8H   SFRSYM    DATA     BYTE      P7
      000000A8H.7 SFRSYM    DATA     BIT       EA
      000000E1H   SFRSYM    DATA     BYTE      P7M1
      000000E8H   SFRSYM    DATA     BYTE      P6
      000000C8H   SFRSYM    DATA     BYTE      P5
      000000CBH   SFRSYM    DATA     BYTE      P6M1
      000000E2H   SFRSYM    DATA     BYTE      P7M0
      000000C0H   SFRSYM    DATA     BYTE      P4
      000000C9H   SFRSYM    DATA     BYTE      P5M1
      000000CCH   SFRSYM    DATA     BYTE      P6M0
      000000B0H   SFRSYM    DATA     BYTE      P3
      000000B3H   SFRSYM    DATA     BYTE      P4M1
      000000CAH   SFRSYM    DATA     BYTE      P5M0
      000000A0H   SFRSYM    DATA     BYTE      P2
      000000B1H   SFRSYM    DATA     BYTE      P3M1
      000000B4H   SFRSYM    DATA     BYTE      P4M0
      00000090H   SFRSYM    DATA     BYTE      P1
      00000095H   SFRSYM    DATA     BYTE      P2M1
      000000B2H   SFRSYM    DATA     BYTE      P3M0
      00000080H   SFRSYM    DATA     BYTE      P0
      00000091H   SFRSYM    DATA     BYTE      P1M1
      00000096H   SFRSYM    DATA     BYTE      P2M0
      00000092H   SFRSYM    DATA     BYTE      P1M0
      00000093H   SFRSYM    DATA     BYTE      P0M1

      00FF20EEH   BLOCK     CODE     ---       LVL=0
L251 LINKER/LOCATER V4.66.93.0                                                        04/13/2024  20:03:07  PAGE 20


      00FF20EEH   LINE      CODE     ---       #177
      00FF20EEH   LINE      CODE     ---       #179
      00FF20F1H   LINE      CODE     ---       #197
      00FF20F4H   LINE      CODE     ---       #199
      00FF20F7H   LINE      CODE     ---       #200
      00FF20FAH   LINE      CODE     ---       #201
      00FF2106H   LINE      CODE     ---       #203
      00FF2109H   LINE      CODE     ---       #204
      00FF210CH   LINE      CODE     ---       #205
      00FF210FH   LINE      CODE     ---       #206
      00FF2112H   LINE      CODE     ---       #207
      00FF2115H   LINE      CODE     ---       #208
      00FF2118H   LINE      CODE     ---       #209
      00FF211BH   LINE      CODE     ---       #210
      00FF211EH   LINE      CODE     ---       #211
      00FF2121H   LINE      CODE     ---       #212
      00FF2124H   LINE      CODE     ---       #213
      00FF2127H   LINE      CODE     ---       #214
      00FF212AH   LINE      CODE     ---       #215
      00FF212DH   LINE      CODE     ---       #216
      00FF2130H   LINE      CODE     ---       #217
      00FF2133H   LINE      CODE     ---       #218
      00FF2136H   LINE      CODE     ---       #220
      00FF2139H   LINE      CODE     ---       #221
      00FF213CH   LINE      CODE     ---       #222
      00FF213FH   LINE      CODE     ---       #223
      00FF2142H   LINE      CODE     ---       #224
      00FF2145H   LINE      CODE     ---       #225
      00FF2148H   LINE      CODE     ---       #226
      00FF214BH   LINE      CODE     ---       #227
      00FF214EH   LINE      CODE     ---       #228
      00FF2151H   LINE      CODE     ---       #229
      00FF2154H   LINE      CODE     ---       #231
      ---         BLOCKEND  ---      ---       LVL=0

      00FF2A34H   BLOCK     CODE     ---       LVL=0
      R15         REGSYM    ---      CHAR      c
      00FF2A34H   LINE      CODE     ---       #237
      00FF2A38H   LINE      CODE     ---       #239
      00FF2A3DH   LINE      CODE     ---       #241
      00FF2A3FH   LINE      CODE     ---       #242
      ---         BLOCKEND  ---      ---       LVL=0

      00FF0016H   BLOCK     CODE     ---       LVL=0
      00FF0016H   LINE      CODE     ---       #245
      00FF0016H   LINE      CODE     ---       #247
      00FF0018H   LINE      CODE     ---       #248
      ---         BLOCKEND  ---      ---       LVL=0

      00FF000EH   BLOCK     CODE     ---       LVL=0
      00FF000EH   LINE      CODE     ---       #251
      00FF000EH   LINE      CODE     ---       #253
      00FF0010H   LINE      CODE     ---       #254
      ---         BLOCKEND  ---      ---       LVL=0

      ---         MODULE    ---      ---       common
      0000037BH   PUBLIC    EDATA    INT       wireless_type
      000000D0H   SFRSYM    DATA     BYTE      PSW
      00000088H   SFRSYM    DATA     BYTE      TCON
      00000098H   SFRSYM    DATA     BYTE      SCON
      000000B8H   SFRSYM    DATA     BYTE      IP
      000000A8H   SFRSYM    DATA     BYTE      IE
      000000F8H   SFRSYM    DATA     BYTE      P7
      000000E8H   SFRSYM    DATA     BYTE      P6
      000000C8H   SFRSYM    DATA     BYTE      P5
L251 LINKER/LOCATER V4.66.93.0                                                        04/13/2024  20:03:07  PAGE 21


      000000C0H   SFRSYM    DATA     BYTE      P4
      000000B0H   SFRSYM    DATA     BYTE      P3
      000000A0H   SFRSYM    DATA     BYTE      P2
      00000090H   SFRSYM    DATA     BYTE      P1
      00000080H   SFRSYM    DATA     BYTE      P0

      ---         MODULE    ---      ---       SEEKFREE_PRINTF
      00FF205CH   PUBLIC    CODE     ---       number_conversion_ascii
      00000378H   PUBLIC    EDATA    BYTE      ?number_conversion_ascii?BYTE
      000000D0H   SFRSYM    DATA     BYTE      PSW
      00000088H   SFRSYM    DATA     BYTE      TCON
      00000098H   SFRSYM    DATA     BYTE      SCON
      000000B8H   SFRSYM    DATA     BYTE      IP
      000000A8H   SFRSYM    DATA     BYTE      IE
      000000F8H   SFRSYM    DATA     BYTE      P7
      000000E8H   SFRSYM    DATA     BYTE      P6
      000000C8H   SFRSYM    DATA     BYTE      P5
      000000C0H   SFRSYM    DATA     BYTE      P4
      000000B0H   SFRSYM    DATA     BYTE      P3
      000000A0H   SFRSYM    DATA     BYTE      P2
      00000090H   SFRSYM    DATA     BYTE      P1
      00000080H   SFRSYM    DATA     BYTE      P0

      00FF205CH   BLOCK     CODE     ---       LVL=0
      DR24        REGSYM    ---      DWORD     dat
      REG=7       REGSYM    ---      ---       p
      R10         REGSYM    ---      BYTE      neg_type
      00000381H   SYMBOL    EDATA    BYTE      radix
      00FF2064H   BLOCK     CODE     NEAR LAB  LVL=1
      DR20        REGSYM    ---      LONG      neg_dat
      DR24        REGSYM    ---      DWORD     pos_dat
      R14         REGSYM    ---      BYTE      temp_data
      R15         REGSYM    ---      BYTE      valid_num
      ---         BLOCKEND  ---      ---       LVL=1
      00FF205CH   LINE      CODE     ---       #25
      00FF2064H   LINE      CODE     ---       #26
      00FF2064H   LINE      CODE     ---       #29
      00FF2064H   LINE      CODE     ---       #30
      00FF2066H   LINE      CODE     ---       #32
      00FF206AH   LINE      CODE     ---       #34
      00FF206CH   LINE      CODE     ---       #35
      00FF207CH   LINE      CODE     ---       #36
      00FF207CH   LINE      CODE     ---       #38
      00FF2092H   LINE      CODE     ---       #39
      00FF20A1H   LINE      CODE     ---       #40
      00FF20A3H   LINE      CODE     ---       #42
      00FF20A9H   LINE      CODE     ---       #43
      00FF20ABH   LINE      CODE     ---       #44
      00FF20ADH   LINE      CODE     ---       #45
      00FF20AFH   LINE      CODE     ---       #48
      00FF20AFH   LINE      CODE     ---       #49
      00FF20AFH   LINE      CODE     ---       #51
      00FF20BEH   LINE      CODE     ---       #52
      00FF20C8H   LINE      CODE     ---       #53
      00FF20CBH   LINE      CODE     ---       #55
      00FF20CEH   LINE      CODE     ---       #57
      00FF20DDH   LINE      CODE     ---       #58
      00FF20DFH   LINE      CODE     ---       #60
      00FF20E5H   LINE      CODE     ---       #61
      00FF20E7H   LINE      CODE     ---       #62
      00FF20E9H   LINE      CODE     ---       #63
      00FF20E9H   LINE      CODE     ---       #64
      00FF20EBH   LINE      CODE     ---       #65
      ---         BLOCKEND  ---      ---       LVL=0
      REG=7       REGSYM    ---      ---       d_buff
L251 LINKER/LOCATER V4.66.93.0                                                        04/13/2024  20:03:07  PAGE 22


      DR24        REGSYM    ---      DWORD     len
      DR4         REGSYM    ---      DWORD     i
      R3          REGSYM    ---      CHAR      temp_data
      REG=3       REGSYM    ---      ---       buff

      ---         MODULE    ---      ---       zf_adc
      00000094H   SFRSYM    DATA     BYTE      P0M0
      000000D0H   SFRSYM    DATA     BYTE      PSW
      000000BEH   SFRSYM    DATA     BYTE      ADC_RESL
      00000088H   SFRSYM    DATA     BYTE      TCON
      00000098H   SFRSYM    DATA     BYTE      SCON
      000000BCH   SFRSYM    DATA     BYTE      ADC_CONTR
      000000DEH   SFRSYM    DATA     BYTE      ADCCFG
      000000B8H   SFRSYM    DATA     BYTE      IP
      000000BDH   SFRSYM    DATA     BYTE      ADC_RES
      000000A8H   SFRSYM    DATA     BYTE      IE
      000000F8H   SFRSYM    DATA     BYTE      P7
      000000E8H   SFRSYM    DATA     BYTE      P6
      000000C8H   SFRSYM    DATA     BYTE      P5
      000000C0H   SFRSYM    DATA     BYTE      P4
      000000B0H   SFRSYM    DATA     BYTE      P3
      000000A0H   SFRSYM    DATA     BYTE      P2
      00000090H   SFRSYM    DATA     BYTE      P1
      00000080H   SFRSYM    DATA     BYTE      P0
      00000091H   SFRSYM    DATA     BYTE      P1M1
      00000092H   SFRSYM    DATA     BYTE      P1M0
      00000093H   SFRSYM    DATA     BYTE      P0M1
      WR4         REGSYM    ---      INT       adcn
      WR2         REGSYM    ---      INT       speed
      WR6         REGSYM    ---      INT       adcn
      WR4         REGSYM    ---      INT       resolution
      WR6         REGSYM    ---      WORD      adc_value

      ---         MODULE    ---      ---       zf_delay
      00FF2621H   PUBLIC    CODE     ---       delay_init
      00FF29A3H   PUBLIC    CODE     ---       delay_ms
      00FF0066H   PUBLIC    CODE     ---       delay_us
      00000368H   PUBLIC    EDATA    WORD      zf_delay_ms
      0000036AH   PUBLIC    EDATA    WORD      zf_delay_us
      000000D0H   SFRSYM    DATA     BYTE      PSW
      00000088H   SFRSYM    DATA     BYTE      TCON
      00000098H   SFRSYM    DATA     BYTE      SCON
      000000B8H   SFRSYM    DATA     BYTE      IP
      000000A8H   SFRSYM    DATA     BYTE      IE
      000000F8H   SFRSYM    DATA     BYTE      P7
      000000E8H   SFRSYM    DATA     BYTE      P6
      000000C8H   SFRSYM    DATA     BYTE      P5
      000000C0H   SFRSYM    DATA     BYTE      P4
      000000B0H   SFRSYM    DATA     BYTE      P3
      000000A0H   SFRSYM    DATA     BYTE      P2
      00000090H   SFRSYM    DATA     BYTE      P1
      00000080H   SFRSYM    DATA     BYTE      P0

      00FF2621H   BLOCK     CODE     ---       LVL=0
      00FF2621H   LINE      CODE     ---       #34
      00FF2621H   LINE      CODE     ---       #36
      00FF2632H   LINE      CODE     ---       #37
      00FF2643H   LINE      CODE     ---       #38
      00FF2659H   LINE      CODE     ---       #40
      ---         BLOCKEND  ---      ---       LVL=0

      00FF29A3H   BLOCK     CODE     ---       LVL=0
      WR4         REGSYM    ---      WORD      ms
      00FF29A5H   BLOCK     CODE     NEAR LAB  LVL=1
      WR6         REGSYM    ---      WORD      i
L251 LINKER/LOCATER V4.66.93.0                                                        04/13/2024  20:03:07  PAGE 23


      ---         BLOCKEND  ---      ---       LVL=1
      00FF29A3H   LINE      CODE     ---       #48
      00FF29A5H   LINE      CODE     ---       #49
      00FF29A5H   LINE      CODE     ---       #51
      00FF29A5H   LINE      CODE     ---       #52
      00FF29A9H   LINE      CODE     ---       #54
      00FF29B1H   LINE      CODE     ---       #55
      00FF29B9H   LINE      CODE     ---       #56
      ---         BLOCKEND  ---      ---       LVL=0

      00FF0066H   BLOCK     CODE     ---       LVL=0
      DR0         REGSYM    ---      DWORD     us
      00FF0068H   BLOCK     CODE     NEAR LAB  LVL=1
      WR6         REGSYM    ---      WORD      i
      ---         BLOCKEND  ---      ---       LVL=1
      00FF0066H   LINE      CODE     ---       #64
      00FF0068H   LINE      CODE     ---       #65
      00FF0068H   LINE      CODE     ---       #67
      00FF0068H   LINE      CODE     ---       #68
      00FF006CH   LINE      CODE     ---       #70
      00FF0074H   LINE      CODE     ---       #71
      00FF007EH   LINE      CODE     ---       #72
      ---         BLOCKEND  ---      ---       LVL=0

      ---         MODULE    ---      ---       zf_eeprom
      00FF29BAH   PUBLIC    CODE     ---       eeprom_trig
      000000D0H   SFRSYM    DATA     BYTE      PSW
      000000D0H.5 SFRSYM    DATA     BIT       F0
      000000C6H   SFRSYM    DATA     BYTE      IAP_TRIG
      000000C2H   SFRSYM    DATA     BYTE      IAP_DATA
      000000C7H   SFRSYM    DATA     BYTE      IAP_CONTR
      00000088H   SFRSYM    DATA     BYTE      TCON
      00000098H   SFRSYM    DATA     BYTE      SCON
      000000F5H   SFRSYM    DATA     BYTE      IAP_TPS
      000000C4H   SFRSYM    DATA     BYTE      IAP_ADDRL
      000000C3H   SFRSYM    DATA     BYTE      IAP_ADDRH
      000000F6H   SFRSYM    DATA     BYTE      IAP_ADDRE
      000000B8H   SFRSYM    DATA     BYTE      IP
      000000C5H   SFRSYM    DATA     BYTE      IAP_CMD
      000000A8H   SFRSYM    DATA     BYTE      IE
      000000F8H   SFRSYM    DATA     BYTE      P7
      000000A8H.7 SFRSYM    DATA     BIT       EA
      000000E8H   SFRSYM    DATA     BYTE      P6
      000000C8H   SFRSYM    DATA     BYTE      P5
      000000C0H   SFRSYM    DATA     BYTE      P4
      000000B0H   SFRSYM    DATA     BYTE      P3
      000000A0H   SFRSYM    DATA     BYTE      P2
      00000090H   SFRSYM    DATA     BYTE      P1
      00000080H   SFRSYM    DATA     BYTE      P0

      00FF29BAH   BLOCK     CODE     ---       LVL=0
      00FF29BAH   LINE      CODE     ---       #30
      00FF29BAH   LINE      CODE     ---       #32
      00FF29BEH   LINE      CODE     ---       #33
      00FF29C0H   LINE      CODE     ---       #34
      00FF29C3H   LINE      CODE     ---       #35
      00FF29C6H   LINE      CODE     ---       #38
      00FF29C7H   LINE      CODE     ---       #39
      00FF29C8H   LINE      CODE     ---       #40
      00FF29C9H   LINE      CODE     ---       #41
      00FF29CAH   LINE      CODE     ---       #42
      00FF29CEH   LINE      CODE     ---       #43
      ---         BLOCKEND  ---      ---       LVL=0
      R11         REGSYM    ---      BYTE      write_time
      REG=3       REGSYM    ---      ---       buf
L251 LINKER/LOCATER V4.66.93.0                                                        04/13/2024  20:03:07  PAGE 24


      REG=3       REGSYM    ---      ---       buf
      WR6         REGSYM    ---      WORD      addr
      REG=3       REGSYM    ---      ---       buf
      WR6         REGSYM    ---      WORD      i

      ---         MODULE    ---      ---       zf_exti
      000000D0H   SFRSYM    DATA     BYTE      PSW
      00000088H.2 SFRSYM    DATA     BIT       IT1
      000000A8H.2 SFRSYM    DATA     BIT       EX1
      00000088H.0 SFRSYM    DATA     BIT       IT0
      000000A8H.0 SFRSYM    DATA     BIT       EX0
      00000088H   SFRSYM    DATA     BYTE      TCON
      00000098H   SFRSYM    DATA     BYTE      SCON
      000000B8H   SFRSYM    DATA     BYTE      IP
      0000008FH   SFRSYM    DATA     BYTE      INTCLKO
      000000A8H   SFRSYM    DATA     BYTE      IE
      000000F8H   SFRSYM    DATA     BYTE      P7
      000000E8H   SFRSYM    DATA     BYTE      P6
      000000C8H   SFRSYM    DATA     BYTE      P5
      000000C0H   SFRSYM    DATA     BYTE      P4
      000000B0H   SFRSYM    DATA     BYTE      P3
      000000A0H   SFRSYM    DATA     BYTE      P2
      00000090H   SFRSYM    DATA     BYTE      P1
      00000080H   SFRSYM    DATA     BYTE      P0
      WR4         REGSYM    ---      INT       int_n
      WR2         REGSYM    ---      INT       mode

      ---         MODULE    ---      ---       zf_gpio
      00FF1857H   PUBLIC    CODE     ---       gpio_mode
      00000094H   SFRSYM    DATA     BYTE      P0M0
      000000D0H   SFRSYM    DATA     BYTE      PSW
      00000088H   SFRSYM    DATA     BYTE      TCON
      00000098H   SFRSYM    DATA     BYTE      SCON
      000000B8H   SFRSYM    DATA     BYTE      IP
      000000A8H   SFRSYM    DATA     BYTE      IE
      000000F8H   SFRSYM    DATA     BYTE      P7
      000000E1H   SFRSYM    DATA     BYTE      P7M1
      000000E8H   SFRSYM    DATA     BYTE      P6
      000000C8H   SFRSYM    DATA     BYTE      P5
      000000CBH   SFRSYM    DATA     BYTE      P6M1
      000000E2H   SFRSYM    DATA     BYTE      P7M0
      000000C0H   SFRSYM    DATA     BYTE      P4
      000000C9H   SFRSYM    DATA     BYTE      P5M1
      000000CCH   SFRSYM    DATA     BYTE      P6M0
      000000B0H   SFRSYM    DATA     BYTE      P3
      000000B3H   SFRSYM    DATA     BYTE      P4M1
      000000CAH   SFRSYM    DATA     BYTE      P5M0
      000000A0H   SFRSYM    DATA     BYTE      P2
      000000B1H   SFRSYM    DATA     BYTE      P3M1
      000000B4H   SFRSYM    DATA     BYTE      P4M0
      00000090H   SFRSYM    DATA     BYTE      P1
      00000095H   SFRSYM    DATA     BYTE      P2M1
      000000B2H   SFRSYM    DATA     BYTE      P3M0
      00000080H   SFRSYM    DATA     BYTE      P0
      00000091H   SFRSYM    DATA     BYTE      P1M1
      00000096H   SFRSYM    DATA     BYTE      P2M0
      00000092H   SFRSYM    DATA     BYTE      P1M0
      00000093H   SFRSYM    DATA     BYTE      P0M1
      WR4         REGSYM    ---      INT       pin
      WR2         REGSYM    ---      INT       pull

      00FF1857H   BLOCK     CODE     ---       LVL=0
      WR4         REGSYM    ---      INT       pin
      WR2         REGSYM    ---      INT       mode
      00FF1857H   LINE      CODE     ---       #54
L251 LINKER/LOCATER V4.66.93.0                                                        04/13/2024  20:03:07  PAGE 25


      00FF185BH   LINE      CODE     ---       #56
      00FF1862H   LINE      CODE     ---       #58
      00FF186AH   LINE      CODE     ---       #60
      00FF1882H   LINE      CODE     ---       #61
      00FF1884H   LINE      CODE     ---       #62
      00FF1884H   LINE      CODE     ---       #63
      00FF188AH   LINE      CODE     ---       #65
      00FF18A2H   LINE      CODE     ---       #66
      00FF18A4H   LINE      CODE     ---       #67
      00FF18A4H   LINE      CODE     ---       #68
      00FF18AAH   LINE      CODE     ---       #70
      00FF18C2H   LINE      CODE     ---       #71
      00FF18C4H   LINE      CODE     ---       #72
      00FF18C4H   LINE      CODE     ---       #74
      00FF18CAH   LINE      CODE     ---       #76
      00FF18E2H   LINE      CODE     ---       #77
      00FF18E4H   LINE      CODE     ---       #78
      00FF18E4H   LINE      CODE     ---       #79
      00FF18EAH   LINE      CODE     ---       #81
      00FF1902H   LINE      CODE     ---       #82
      00FF1904H   LINE      CODE     ---       #83
      00FF1904H   LINE      CODE     ---       #84
      00FF190AH   LINE      CODE     ---       #86
      00FF1922H   LINE      CODE     ---       #87
      00FF1924H   LINE      CODE     ---       #88
      00FF1924H   LINE      CODE     ---       #89
      00FF192AH   LINE      CODE     ---       #91
      00FF1942H   LINE      CODE     ---       #92
      00FF1944H   LINE      CODE     ---       #93
      00FF1944H   LINE      CODE     ---       #94
      00FF194DH   LINE      CODE     ---       #96
      00FF1965H   LINE      CODE     ---       #97
      00FF1967H   LINE      CODE     ---       #98
      00FF1968H   LINE      CODE     ---       #100
      00FF1971H   LINE      CODE     ---       #102
      00FF1979H   LINE      CODE     ---       #104
      00FF198EH   LINE      CODE     ---       #105
      00FF1992H   LINE      CODE     ---       #106
      00FF1992H   LINE      CODE     ---       #107
      00FF1998H   LINE      CODE     ---       #109
      00FF19ADH   LINE      CODE     ---       #110
      00FF19B1H   LINE      CODE     ---       #111
      00FF19B1H   LINE      CODE     ---       #112
      00FF19B7H   LINE      CODE     ---       #114
      00FF19CCH   LINE      CODE     ---       #115
      00FF19D0H   LINE      CODE     ---       #116
      00FF19D0H   LINE      CODE     ---       #118
      00FF19D6H   LINE      CODE     ---       #120
      00FF19EBH   LINE      CODE     ---       #121
      00FF19EFH   LINE      CODE     ---       #122
      00FF19EFH   LINE      CODE     ---       #123
      00FF19F5H   LINE      CODE     ---       #125
      00FF1A0AH   LINE      CODE     ---       #126
      00FF1A0EH   LINE      CODE     ---       #127
      00FF1A0EH   LINE      CODE     ---       #128
      00FF1A14H   LINE      CODE     ---       #130
      00FF1A29H   LINE      CODE     ---       #131
      00FF1A2DH   LINE      CODE     ---       #132
      00FF1A2DH   LINE      CODE     ---       #133
      00FF1A33H   LINE      CODE     ---       #135
      00FF1A48H   LINE      CODE     ---       #136
      00FF1A4CH   LINE      CODE     ---       #137
      00FF1A4CH   LINE      CODE     ---       #138
      00FF1A55H   LINE      CODE     ---       #140
      00FF1A6CH   LINE      CODE     ---       #141
L251 LINKER/LOCATER V4.66.93.0                                                        04/13/2024  20:03:07  PAGE 26


      00FF1A6CH   LINE      CODE     ---       #142
      00FF1A6FH   LINE      CODE     ---       #145
      00FF1A78H   LINE      CODE     ---       #147
      00FF1A80H   LINE      CODE     ---       #149
      00FF1A93H   LINE      CODE     ---       #150
      00FF1A97H   LINE      CODE     ---       #151
      00FF1A97H   LINE      CODE     ---       #152
      00FF1A9DH   LINE      CODE     ---       #154
      00FF1AB0H   LINE      CODE     ---       #155
      00FF1AB4H   LINE      CODE     ---       #156
      00FF1AB4H   LINE      CODE     ---       #157
      00FF1ABAH   LINE      CODE     ---       #159
      00FF1ACDH   LINE      CODE     ---       #160
      00FF1AD1H   LINE      CODE     ---       #161
      00FF1AD1H   LINE      CODE     ---       #163
      00FF1AD7H   LINE      CODE     ---       #165
      00FF1AEAH   LINE      CODE     ---       #166
      00FF1AEEH   LINE      CODE     ---       #167
      00FF1AEEH   LINE      CODE     ---       #168
      00FF1AF4H   LINE      CODE     ---       #170
      00FF1B07H   LINE      CODE     ---       #171
      00FF1B0BH   LINE      CODE     ---       #172
      00FF1B0BH   LINE      CODE     ---       #173
      00FF1B11H   LINE      CODE     ---       #175
      00FF1B24H   LINE      CODE     ---       #176
      00FF1B28H   LINE      CODE     ---       #177
      00FF1B28H   LINE      CODE     ---       #178
      00FF1B2EH   LINE      CODE     ---       #180
      00FF1B41H   LINE      CODE     ---       #181
      00FF1B45H   LINE      CODE     ---       #182
      00FF1B45H   LINE      CODE     ---       #183
      00FF1B4EH   LINE      CODE     ---       #185
      00FF1B61H   LINE      CODE     ---       #186
      00FF1B65H   LINE      CODE     ---       #187
      00FF1B66H   LINE      CODE     ---       #189
      00FF1B6FH   LINE      CODE     ---       #191
      00FF1B77H   LINE      CODE     ---       #193
      00FF1B8AH   LINE      CODE     ---       #194
      00FF1B8CH   LINE      CODE     ---       #195
      00FF1B8CH   LINE      CODE     ---       #196
      00FF1B92H   LINE      CODE     ---       #198
      00FF1BA5H   LINE      CODE     ---       #199
      00FF1BA7H   LINE      CODE     ---       #200
      00FF1BA7H   LINE      CODE     ---       #201
      00FF1BADH   LINE      CODE     ---       #203
      00FF1BC0H   LINE      CODE     ---       #204
      00FF1BC2H   LINE      CODE     ---       #205
      00FF1BC2H   LINE      CODE     ---       #207
      00FF1BC8H   LINE      CODE     ---       #209
      00FF1BDBH   LINE      CODE     ---       #210
      00FF1BDDH   LINE      CODE     ---       #211
      00FF1BDDH   LINE      CODE     ---       #212
      00FF1BE3H   LINE      CODE     ---       #214
      00FF1BF6H   LINE      CODE     ---       #215
      00FF1BF8H   LINE      CODE     ---       #216
      00FF1BF8H   LINE      CODE     ---       #217
      00FF1BFEH   LINE      CODE     ---       #219
      00FF1C11H   LINE      CODE     ---       #220
      00FF1C13H   LINE      CODE     ---       #221
      00FF1C13H   LINE      CODE     ---       #222
      00FF1C19H   LINE      CODE     ---       #224
      00FF1C2CH   LINE      CODE     ---       #225
      00FF1C2EH   LINE      CODE     ---       #226
      00FF1C2EH   LINE      CODE     ---       #227
      00FF1C34H   LINE      CODE     ---       #229
L251 LINKER/LOCATER V4.66.93.0                                                        04/13/2024  20:03:07  PAGE 27


      00FF1C49H   LINE      CODE     ---       #230
      00FF1C4DH   LINE      CODE     ---       #231
      00FF1C4DH   LINE      CODE     ---       #233
      ---         BLOCKEND  ---      ---       LVL=0

      ---         MODULE    ---      ---       zf_iic
      00FF2467H   PUBLIC    CODE     ---       wait
      00FF29CFH   PUBLIC    CODE     ---       iic_delay_us
      000000D0H   SFRSYM    DATA     BYTE      PSW
      00000088H   SFRSYM    DATA     BYTE      TCON
      00000098H   SFRSYM    DATA     BYTE      SCON
      000000B8H   SFRSYM    DATA     BYTE      IP
      000000A8H   SFRSYM    DATA     BYTE      IE
      000000BAH   SFRSYM    DATA     BYTE      P_SW2
      000000F8H   SFRSYM    DATA     BYTE      P7
      000000E8H   SFRSYM    DATA     BYTE      P6
      000000C8H   SFRSYM    DATA     BYTE      P5
      000000C0H   SFRSYM    DATA     BYTE      P4
      000000B0H   SFRSYM    DATA     BYTE      P3
      000000A0H   SFRSYM    DATA     BYTE      P2
      00000090H   SFRSYM    DATA     BYTE      P1
      00000080H   SFRSYM    DATA     BYTE      P0

      00FF29CFH   BLOCK     CODE     ---       LVL=0
      WR6         REGSYM    ---      WORD      x
      R10         REGSYM    ---      BYTE      i
      00FF29CFH   LINE      CODE     ---       #30
      00FF29CFH   LINE      CODE     ---       #31
      00FF29CFH   LINE      CODE     ---       #33
      00FF29D1H   LINE      CODE     ---       #35
      00FF29D4H   LINE      CODE     ---       #36
      00FF29DBH   LINE      CODE     ---       #37
      00FF29E3H   LINE      CODE     ---       #38
      ---         BLOCKEND  ---      ---       LVL=0

      00FF2467H   BLOCK     CODE     ---       LVL=0
      00FF246BH   BLOCK     CODE     NEAR LAB  LVL=1
      WR12        REGSYM    ---      WORD      count
      R15         REGSYM    ---      BYTE      ret
      ---         BLOCKEND  ---      ---       LVL=1
      00FF2467H   LINE      CODE     ---       #47
      00FF246BH   LINE      CODE     ---       #48
      00FF246BH   LINE      CODE     ---       #49
      00FF246DH   LINE      CODE     ---       #50
      00FF246FH   LINE      CODE     ---       #51
      00FF2471H   LINE      CODE     ---       #53
      00FF2478H   LINE      CODE     ---       #54
      00FF2482H   LINE      CODE     ---       #56
      00FF2485H   LINE      CODE     ---       #57
      00FF2487H   LINE      CODE     ---       #58
      00FF2495H   LINE      CODE     ---       #60
      00FF24A5H   LINE      CODE     ---       #61
      00FF24A7H   LINE      CODE     ---       #62
      ---         BLOCKEND  ---      ---       LVL=0
      R11         REGSYM    ---      BYTE      ret
      R11         REGSYM    ---      CHAR      dat
      R11         REGSYM    ---      BYTE      ret
      R11         REGSYM    ---      BYTE      ret
      R11         REGSYM    ---      BYTE      ret
      R11         REGSYM    ---      BYTE      ret
      WR6         REGSYM    ---      INT       iic_n
      R13         REGSYM    ---      BYTE      dev_add
      R14         REGSYM    ---      BYTE      reg
      R15         REGSYM    ---      BYTE      dat
      R15         REGSYM    ---      BYTE      dev_add
L251 LINKER/LOCATER V4.66.93.0                                                        04/13/2024  20:03:07  PAGE 28


      R14         REGSYM    ---      BYTE      reg
      REG=3       REGSYM    ---      ---       dat
      WR6         REGSYM    ---      INT       iic_n

      ---         MODULE    ---      ---       zf_nvic
      000000D0H   SFRSYM    DATA     BYTE      PSW
      000000B7H   SFRSYM    DATA     BYTE      IPH
      000000B5H   SFRSYM    DATA     BYTE      IP2
      00000088H   SFRSYM    DATA     BYTE      TCON
      00000098H   SFRSYM    DATA     BYTE      SCON
      000000B8H   SFRSYM    DATA     BYTE      IP
      000000B6H   SFRSYM    DATA     BYTE      IP2H
      000000A8H   SFRSYM    DATA     BYTE      IE
      000000F8H   SFRSYM    DATA     BYTE      P7
      000000E8H   SFRSYM    DATA     BYTE      P6
      000000C8H   SFRSYM    DATA     BYTE      P5
      000000C0H   SFRSYM    DATA     BYTE      P4
      000000B0H   SFRSYM    DATA     BYTE      P3
      000000A0H   SFRSYM    DATA     BYTE      P2
      00000090H   SFRSYM    DATA     BYTE      P1
      00000080H   SFRSYM    DATA     BYTE      P0
      WR4         REGSYM    ---      INT       irqn
      R3          REGSYM    ---      BYTE      priority

      ---         MODULE    ---      ---       zf_pwm
      00FF2ACCH   PUBLIC    HCONST   ---       PWM_CCR_ADDR
      00FF2AECH   PUBLIC    HCONST   ---       PWM_ARR_ADDR
      00FF2AF4H   PUBLIC    HCONST   ---       PWM_CCER_ADDR
      00FF2B04H   PUBLIC    HCONST   ---       PWM_CCMR_ADDR
      000000D0H   SFRSYM    DATA     BYTE      PSW
      00000088H   SFRSYM    DATA     BYTE      TCON
      00000098H   SFRSYM    DATA     BYTE      SCON
      000000B8H   SFRSYM    DATA     BYTE      IP
      000000A8H   SFRSYM    DATA     BYTE      IE
      000000BAH   SFRSYM    DATA     BYTE      P_SW2
      000000F8H   SFRSYM    DATA     BYTE      P7
      000000E8H   SFRSYM    DATA     BYTE      P6
      000000C8H   SFRSYM    DATA     BYTE      P5
      000000C0H   SFRSYM    DATA     BYTE      P4
      000000B0H   SFRSYM    DATA     BYTE      P3
      000000A0H   SFRSYM    DATA     BYTE      P2
      00000090H   SFRSYM    DATA     BYTE      P1
      00000080H   SFRSYM    DATA     BYTE      P0
      WR6         REGSYM    ---      INT       pwmch
      WR14        REGSYM    ---      INT       pwmch
      DR4         REGSYM    ---      DWORD     match_temp
      DR28        REGSYM    ---      DWORD     period_temp
      WR26        REGSYM    ---      WORD      freq_div
      WR30        REGSYM    ---      INT       pwmch
      DR24        REGSYM    ---      DWORD     duty
      DR0         REGSYM    ---      DWORD     match_temp
      DR20        REGSYM    ---      DWORD     arr
      WR30        REGSYM    ---      INT       pwmch
      DR24        REGSYM    ---      DWORD     freq
      DR0         REGSYM    ---      DWORD     match_temp
      DR24        REGSYM    ---      DWORD     period_temp
      WR28        REGSYM    ---      WORD      freq_div

      ---         MODULE    ---      ---       zf_spi
      00FF2A42H   PUBLIC    CODE     ---       spi_mosi
      000000CFH   SFRSYM    DATA     BYTE      SPDAT
      000000D0H   SFRSYM    DATA     BYTE      PSW
      000000CDH   SFRSYM    DATA     BYTE      SPSTAT
      00000088H   SFRSYM    DATA     BYTE      TCON
      00000098H   SFRSYM    DATA     BYTE      SCON
L251 LINKER/LOCATER V4.66.93.0                                                        04/13/2024  20:03:07  PAGE 29


      000000B8H   SFRSYM    DATA     BYTE      IP
      000000A8H   SFRSYM    DATA     BYTE      IE
      000000A2H   SFRSYM    DATA     BYTE      P_SW1
      000000CEH   SFRSYM    DATA     BYTE      SPCTL
      000000F8H   SFRSYM    DATA     BYTE      P7
      000000E8H   SFRSYM    DATA     BYTE      P6
      000000C8H   SFRSYM    DATA     BYTE      P5
      000000C0H   SFRSYM    DATA     BYTE      P4
      000000B0H   SFRSYM    DATA     BYTE      P3
      000000A0H   SFRSYM    DATA     BYTE      P2
      00000090H   SFRSYM    DATA     BYTE      P1
      00000080H   SFRSYM    DATA     BYTE      P0
      WR14        REGSYM    ---      INT       spi_n
      R13         REGSYM    ---      BYTE      mode

      00FF2A42H   BLOCK     CODE     ---       LVL=0
      R11         REGSYM    ---      BYTE      dat
      00FF2A42H   LINE      CODE     ---       #129
      00FF2A42H   LINE      CODE     ---       #131
      00FF2A45H   LINE      CODE     ---       #132
      00FF2A4AH   LINE      CODE     ---       #133
      00FF2A4DH   LINE      CODE     ---       #134
      00FF2A4FH   LINE      CODE     ---       #135
      ---         BLOCKEND  ---      ---       LVL=0
      WR14        REGSYM    ---      INT       spi_n
      R7          REGSYM    ---      BYTE      mode

      ---         MODULE    ---      ---       zf_tim
      00FF1FC8H   PUBLIC    CODE     ---       pit_timer_ms
      000000D0H   SFRSYM    DATA     BYTE      PSW
      000000DDH   SFRSYM    DATA     BYTE      T4T3M
      00000088H.6 SFRSYM    DATA     BIT       TR1
      00000088H.4 SFRSYM    DATA     BIT       TR0
      000000D3H   SFRSYM    DATA     BYTE      T4L
      000000D5H   SFRSYM    DATA     BYTE      T3L
      000000D7H   SFRSYM    DATA     BYTE      T2L
      0000008BH   SFRSYM    DATA     BYTE      TL1
      0000008AH   SFRSYM    DATA     BYTE      TL0
      000000D2H   SFRSYM    DATA     BYTE      T4H
      000000D4H   SFRSYM    DATA     BYTE      T3H
      000000D6H   SFRSYM    DATA     BYTE      T2H
      0000008DH   SFRSYM    DATA     BYTE      TH1
      0000008CH   SFRSYM    DATA     BYTE      TH0
      000000A8H.3 SFRSYM    DATA     BIT       ET1
      000000A8H.1 SFRSYM    DATA     BIT       ET0
      0000008EH   SFRSYM    DATA     BYTE      AUXR
      000000AFH   SFRSYM    DATA     BYTE      IE2
      00000088H   SFRSYM    DATA     BYTE      TCON
      00000089H   SFRSYM    DATA     BYTE      TMOD
      00000098H   SFRSYM    DATA     BYTE      SCON
      000000B8H   SFRSYM    DATA     BYTE      IP
      000000A8H   SFRSYM    DATA     BYTE      IE
      000000F8H   SFRSYM    DATA     BYTE      P7
      000000E8H   SFRSYM    DATA     BYTE      P6
      000000C8H   SFRSYM    DATA     BYTE      P5
      000000C0H   SFRSYM    DATA     BYTE      P4
      000000B0H   SFRSYM    DATA     BYTE      P3
      000000A0H   SFRSYM    DATA     BYTE      P2
      00000090H   SFRSYM    DATA     BYTE      P1
      00000080H   SFRSYM    DATA     BYTE      P0
      WR6         REGSYM    ---      INT       tim_n
      WR4         REGSYM    ---      INT       tim_n
      WR6         REGSYM    ---      WORD      dat
      WR6         REGSYM    ---      INT       tim_n

L251 LINKER/LOCATER V4.66.93.0                                                        04/13/2024  20:03:07  PAGE 30


      00FF1FC8H   BLOCK     CODE     ---       LVL=0
      WR30        REGSYM    ---      INT       tim_n
      WR28        REGSYM    ---      WORD      time_ms
      00FF1FCAH   BLOCK     CODE     NEAR LAB  LVL=1
      WR28        REGSYM    ---      WORD      temp
      ---         BLOCKEND  ---      ---       LVL=1
      00FF1FC8H   LINE      CODE     ---       #198
      00FF1FCAH   LINE      CODE     ---       #199
      00FF1FCAH   LINE      CODE     ---       #201
      00FF1FE7H   LINE      CODE     ---       #203
      00FF1FEBH   LINE      CODE     ---       #205
      00FF1FEFH   LINE      CODE     ---       #206
      00FF1FF5H   LINE      CODE     ---       #207
      00FF1FF9H   LINE      CODE     ---       #208
      00FF1FFBH   LINE      CODE     ---       #209
      00FF1FFDH   LINE      CODE     ---       #210
      00FF1FFEH   LINE      CODE     ---       #211
      00FF2004H   LINE      CODE     ---       #213
      00FF2008H   LINE      CODE     ---       #214
      00FF200EH   LINE      CODE     ---       #215
      00FF2012H   LINE      CODE     ---       #216
      00FF2014H   LINE      CODE     ---       #217
      00FF2016H   LINE      CODE     ---       #218
      00FF2017H   LINE      CODE     ---       #219
      00FF201DH   LINE      CODE     ---       #221
      00FF2023H   LINE      CODE     ---       #222
      00FF2027H   LINE      CODE     ---       #223
      00FF202AH   LINE      CODE     ---       #224
      00FF202DH   LINE      CODE     ---       #225
      00FF202EH   LINE      CODE     ---       #226
      00FF2034H   LINE      CODE     ---       #228
      00FF203AH   LINE      CODE     ---       #229
      00FF203EH   LINE      CODE     ---       #230
      00FF2041H   LINE      CODE     ---       #231
      00FF2044H   LINE      CODE     ---       #232
      00FF2045H   LINE      CODE     ---       #233
      00FF204BH   LINE      CODE     ---       #235
      00FF2051H   LINE      CODE     ---       #236
      00FF2055H   LINE      CODE     ---       #237
      00FF2058H   LINE      CODE     ---       #238
      00FF205BH   LINE      CODE     ---       #239
      ---         BLOCKEND  ---      ---       LVL=0

      ---         MODULE    ---      ---       zf_uart
      00FF228DH   PUBLIC    CODE     ---       uart_putchar
      00FF1C4EH   PUBLIC    CODE     ---       uart_init
      00000122H   PUBLIC    EDATA    ---       uart1_rx_buff
      00000186H   PUBLIC    EDATA    ---       uart1_tx_buff
      000001EAH   PUBLIC    EDATA    ---       busy
      0000032CH   PUBLIC    EDATA    BYTE      ?uart_init?BYTE
      000000D0H   SFRSYM    DATA     BYTE      PSW
      000000FDH   SFRSYM    DATA     BYTE      S4CON
      000000ACH   SFRSYM    DATA     BYTE      S3CON
      0000009AH   SFRSYM    DATA     BYTE      S2CON
      000000FEH   SFRSYM    DATA     BYTE      S4BUF
      000000ADH   SFRSYM    DATA     BYTE      S3BUF
      0000009BH   SFRSYM    DATA     BYTE      S2BUF
      000000DDH   SFRSYM    DATA     BYTE      T4T3M
      00000088H.6 SFRSYM    DATA     BIT       TR1
      000000D3H   SFRSYM    DATA     BYTE      T4L
      000000D5H   SFRSYM    DATA     BYTE      T3L
      000000D7H   SFRSYM    DATA     BYTE      T2L
      0000008BH   SFRSYM    DATA     BYTE      TL1
      000000D2H   SFRSYM    DATA     BYTE      T4H
      000000D4H   SFRSYM    DATA     BYTE      T3H
L251 LINKER/LOCATER V4.66.93.0                                                        04/13/2024  20:03:07  PAGE 31


      000000D6H   SFRSYM    DATA     BYTE      T2H
      0000008DH   SFRSYM    DATA     BYTE      TH1
      0000008EH   SFRSYM    DATA     BYTE      AUXR
      000000AFH   SFRSYM    DATA     BYTE      IE2
      00000088H   SFRSYM    DATA     BYTE      TCON
      00000089H   SFRSYM    DATA     BYTE      TMOD
      00000098H   SFRSYM    DATA     BYTE      SCON
      00000099H   SFRSYM    DATA     BYTE      SBUF
      000000B8H   SFRSYM    DATA     BYTE      IP
      000000A8H.4 SFRSYM    DATA     BIT       ES
      000000A8H   SFRSYM    DATA     BYTE      IE
      000000BAH   SFRSYM    DATA     BYTE      P_SW2
      000000A2H   SFRSYM    DATA     BYTE      P_SW1
      000000F8H   SFRSYM    DATA     BYTE      P7
      000000E8H   SFRSYM    DATA     BYTE      P6
      000000C8H   SFRSYM    DATA     BYTE      P5
      000000C0H   SFRSYM    DATA     BYTE      P4
      000000C9H   SFRSYM    DATA     BYTE      P5M1
      000000B0H   SFRSYM    DATA     BYTE      P3
      000000CAH   SFRSYM    DATA     BYTE      P5M0
      000000A0H   SFRSYM    DATA     BYTE      P2
      00000090H   SFRSYM    DATA     BYTE      P1
      00000080H   SFRSYM    DATA     BYTE      P0

      00FF1C4EH   BLOCK     CODE     ---       LVL=0
      WR24        REGSYM    ---      INT       uart_n
      WR28        REGSYM    ---      INT       uart_rx_pin
      WR30        REGSYM    ---      INT       uart_tx_pin
      00000332H   SYMBOL    EDATA    DWORD     baud
      WR26        REGSYM    ---      INT       tim_n
      00FF1C56H   BLOCK     CODE     NEAR LAB  LVL=1
      WR6         REGSYM    ---      WORD      brt
      ---         BLOCKEND  ---      ---       LVL=1
      00FF1C4EH   LINE      CODE     ---       #48
      00FF1C56H   LINE      CODE     ---       #49
      00FF1C56H   LINE      CODE     ---       #52
      00FF1C79H   LINE      CODE     ---       #55
      00FF1C97H   LINE      CODE     ---       #57
      00FF1C97H   LINE      CODE     ---       #59
      00FF1C9DH   LINE      CODE     ---       #61
      00FF1CA0H   LINE      CODE     ---       #62
      00FF1CA4H   LINE      CODE     ---       #63
      00FF1CA8H   LINE      CODE     ---       #64
      00FF1CACH   LINE      CODE     ---       #65
      00FF1CAFH   LINE      CODE     ---       #66
      00FF1CB1H   LINE      CODE     ---       #67
      00FF1CB6H   LINE      CODE     ---       #68
      00FF1CB8H   LINE      CODE     ---       #69
      00FF1CBEH   LINE      CODE     ---       #71
      00FF1CC1H   LINE      CODE     ---       #72
      00FF1CC5H   LINE      CODE     ---       #73
      00FF1CC9H   LINE      CODE     ---       #74
      00FF1CCCH   LINE      CODE     ---       #75
      00FF1CCCH   LINE      CODE     ---       #76
      00FF1CCFH   LINE      CODE     ---       #77
      00FF1CD9H   LINE      CODE     ---       #79
      00FF1CDDH   LINE      CODE     ---       #80
      00FF1CDFH   LINE      CODE     ---       #81
      00FF1CEBH   LINE      CODE     ---       #83
      00FF1CEEH   LINE      CODE     ---       #84
      00FF1CF0H   LINE      CODE     ---       #85
      00FF1CFCH   LINE      CODE     ---       #87
      00FF1CFFH   LINE      CODE     ---       #88
      00FF1D01H   LINE      CODE     ---       #89
      00FF1D0DH   LINE      CODE     ---       #91
L251 LINKER/LOCATER V4.66.93.0                                                        04/13/2024  20:03:07  PAGE 32


      00FF1D10H   LINE      CODE     ---       #92
      00FF1D10H   LINE      CODE     ---       #93
      00FF1D15H   LINE      CODE     ---       #94
      00FF1D17H   LINE      CODE     ---       #95
      00FF1D18H   LINE      CODE     ---       #98
      00FF1D18H   LINE      CODE     ---       #100
      00FF1D1EH   LINE      CODE     ---       #102
      00FF1D21H   LINE      CODE     ---       #103
      00FF1D25H   LINE      CODE     ---       #104
      00FF1D29H   LINE      CODE     ---       #105
      00FF1D2CH   LINE      CODE     ---       #106
      00FF1D2CH   LINE      CODE     ---       #108
      00FF1D2FH   LINE      CODE     ---       #109
      00FF1D3BH   LINE      CODE     ---       #111
      00FF1D3FH   LINE      CODE     ---       #112
      00FF1D41H   LINE      CODE     ---       #113
      00FF1D4DH   LINE      CODE     ---       #115
      00FF1D50H   LINE      CODE     ---       #116
      00FF1D50H   LINE      CODE     ---       #118
      00FF1D53H   LINE      CODE     ---       #119
      00FF1D58H   LINE      CODE     ---       #120
      00FF1D59H   LINE      CODE     ---       #123
      00FF1D59H   LINE      CODE     ---       #125
      00FF1D5FH   LINE      CODE     ---       #127
      00FF1D62H   LINE      CODE     ---       #128
      00FF1D66H   LINE      CODE     ---       #129
      00FF1D6AH   LINE      CODE     ---       #130
      00FF1D6DH   LINE      CODE     ---       #131
      00FF1D6FH   LINE      CODE     ---       #132
      00FF1D75H   LINE      CODE     ---       #134
      00FF1D78H   LINE      CODE     ---       #135
      00FF1D7CH   LINE      CODE     ---       #136
      00FF1D80H   LINE      CODE     ---       #137
      00FF1D83H   LINE      CODE     ---       #138
      00FF1D83H   LINE      CODE     ---       #140
      00FF1D86H   LINE      CODE     ---       #141
      00FF1D92H   LINE      CODE     ---       #143
      00FF1D96H   LINE      CODE     ---       #144
      00FF1D98H   LINE      CODE     ---       #145
      00FF1DA4H   LINE      CODE     ---       #147
      00FF1DA7H   LINE      CODE     ---       #148
      00FF1DA7H   LINE      CODE     ---       #150
      00FF1DAAH   LINE      CODE     ---       #151
      00FF1DAFH   LINE      CODE     ---       #152
      00FF1DB0H   LINE      CODE     ---       #155
      00FF1DB0H   LINE      CODE     ---       #157
      00FF1DB6H   LINE      CODE     ---       #159
      00FF1DB9H   LINE      CODE     ---       #160
      00FF1DBDH   LINE      CODE     ---       #161
      00FF1DC1H   LINE      CODE     ---       #162
      00FF1DC4H   LINE      CODE     ---       #163
      00FF1DC6H   LINE      CODE     ---       #164
      00FF1DCCH   LINE      CODE     ---       #166
      00FF1DCFH   LINE      CODE     ---       #167
      00FF1DD3H   LINE      CODE     ---       #168
      00FF1DD7H   LINE      CODE     ---       #169
      00FF1DDAH   LINE      CODE     ---       #170
      00FF1DDAH   LINE      CODE     ---       #172
      00FF1DDDH   LINE      CODE     ---       #173
      00FF1DE9H   LINE      CODE     ---       #175
      00FF1DEDH   LINE      CODE     ---       #176
      00FF1DEFH   LINE      CODE     ---       #177
      00FF1DFBH   LINE      CODE     ---       #179
      00FF1DFEH   LINE      CODE     ---       #180
      00FF1E01H   LINE      CODE     ---       #181
L251 LINKER/LOCATER V4.66.93.0                                                        04/13/2024  20:03:07  PAGE 33


      00FF1E04H   LINE      CODE     ---       #182
      00FF1E04H   LINE      CODE     ---       #183
      00FF1E07H   LINE      CODE     ---       #184
      00FF1E0CH   LINE      CODE     ---       #185
      00FF1E0CH   LINE      CODE     ---       #188
      00FF1E0CH   LINE      CODE     ---       #190
      ---         BLOCKEND  ---      ---       LVL=0

      00FF228DH   BLOCK     CODE     ---       LVL=0
      WR6         REGSYM    ---      INT       uart_n
      R10         REGSYM    ---      BYTE      dat
      00FF228DH   LINE      CODE     ---       #199
      00FF228FH   LINE      CODE     ---       #201
      00FF22A1H   LINE      CODE     ---       #203
      00FF22A1H   LINE      CODE     ---       #204
      00FF22A7H   LINE      CODE     ---       #205
      00FF22ADH   LINE      CODE     ---       #206
      00FF22B0H   LINE      CODE     ---       #207
      00FF22B1H   LINE      CODE     ---       #208
      00FF22B1H   LINE      CODE     ---       #209
      00FF22B7H   LINE      CODE     ---       #210
      00FF22BDH   LINE      CODE     ---       #211
      00FF22C0H   LINE      CODE     ---       #212
      00FF22C1H   LINE      CODE     ---       #213
      00FF22C1H   LINE      CODE     ---       #214
      00FF22C7H   LINE      CODE     ---       #215
      00FF22CDH   LINE      CODE     ---       #216
      00FF22D0H   LINE      CODE     ---       #217
      00FF22D1H   LINE      CODE     ---       #218
      00FF22D1H   LINE      CODE     ---       #219
      00FF22D7H   LINE      CODE     ---       #220
      00FF22DDH   LINE      CODE     ---       #221
      00FF22E0H   LINE      CODE     ---       #222
      00FF22E0H   LINE      CODE     ---       #223
      00FF22E0H   LINE      CODE     ---       #224
      ---         BLOCKEND  ---      ---       LVL=0
      REG=3       REGSYM    ---      ---       p
      REG=3       REGSYM    ---      ---       str

      ---         MODULE    ---      ---       zf_fifo
      00FF24ACH   PUBLIC    CODE     ---       fifo_head_offset
      00FF1E0DH   PUBLIC    CODE     ---       fifo_write_buffer
      00000322H   PUBLIC    EDATA    BYTE      ?fifo_write_buffer?BYTE
      000000D0H   SFRSYM    DATA     BYTE      PSW
      00000088H   SFRSYM    DATA     BYTE      TCON
      00000098H   SFRSYM    DATA     BYTE      SCON
      000000B8H   SFRSYM    DATA     BYTE      IP
      000000A8H   SFRSYM    DATA     BYTE      IE
      000000F8H   SFRSYM    DATA     BYTE      P7
      000000E8H   SFRSYM    DATA     BYTE      P6
      000000C8H   SFRSYM    DATA     BYTE      P5
      000000C0H   SFRSYM    DATA     BYTE      P4
      000000B0H   SFRSYM    DATA     BYTE      P3
      000000A0H   SFRSYM    DATA     BYTE      P2
      00000090H   SFRSYM    DATA     BYTE      P1
      00000080H   SFRSYM    DATA     BYTE      P0
      REG=2       REGSYM    ---      ---       fifo
      REG=7       REGSYM    ---      ---       buffer_addr

      00FF24ACH   BLOCK     CODE     ---       LVL=0
      REG=7       REGSYM    ---      ---       fifo
      DR24        REGSYM    ---      DWORD     offset
      00FF24ACH   LINE      CODE     ---       #61
      00FF24B0H   LINE      CODE     ---       #63
      00FF24BBH   LINE      CODE     ---       #65
L251 LINKER/LOCATER V4.66.93.0                                                        04/13/2024  20:03:07  PAGE 34


      00FF24BDH   LINE      CODE     ---       #67
      00FF24D9H   LINE      CODE     ---       #68
      00FF24EDH   LINE      CODE     ---       #69
      ---         BLOCKEND  ---      ---       LVL=0
      REG=7       REGSYM    ---      ---       fifo
      DR24        REGSYM    ---      DWORD     offset
      REG=2       REGSYM    ---      ---       fifo
      REG=7       REGSYM    ---      ---       fifo

      00FF1E0DH   BLOCK     CODE     ---       LVL=0
      REG=3       REGSYM    ---      ---       fifo
      00000326H   SYMBOL    EDATA    ---       dat
      0000032AH   SYMBOL    EDATA    DWORD     length
      00FF1E15H   BLOCK     CODE     NEAR LAB  LVL=1
      0000032EH   SYMBOL    EDATA    DWORD     temp_length
      ---         BLOCKEND  ---      ---       LVL=1
      00FF1E0DH   LINE      CODE     ---       #120
      00FF1E15H   LINE      CODE     ---       #121
      00FF1E15H   LINE      CODE     ---       #124
      00FF1E28H   LINE      CODE     ---       #126
      00FF1E3EH   LINE      CODE     ---       #128
      00FF1E42H   LINE      CODE     ---       #130
      00FF1E5AH   LINE      CODE     ---       #131
      00FF1E63H   LINE      CODE     ---       #132
      00FF1E73H   LINE      CODE     ---       #133
      00FF1E93H   LINE      CODE     ---       #134
      00FF1E9FH   LINE      CODE     ---       #135
      00FF1EA1H   LINE      CODE     ---       #138
      00FF1EBDH   LINE      CODE     ---       #139
      00FF1EC6H   LINE      CODE     ---       #140
      00FF1EC6H   LINE      CODE     ---       #142
      00FF1EE0H   LINE      CODE     ---       #143
      00FF1EE2H   LINE      CODE     ---       #146
      00FF1EE8H   LINE      CODE     ---       #147
      00FF1EE8H   LINE      CODE     ---       #149
      00FF1EEAH   LINE      CODE     ---       #150
      ---         BLOCKEND  ---      ---       LVL=0
      REG=3       REGSYM    ---      ---       fifo

      ---         MODULE    ---      ---       SEEKFREE_18TFT
      00FF2749H   PUBLIC    CODE     ---       lcd_writeIndex_simspi
      00FF2772H   PUBLIC    CODE     ---       lcd_writeData_simspi
      00FF2A68H   PUBLIC    CODE     ---       lcd_writeIndex
      00FF2A72H   PUBLIC    CODE     ---       lcd_writeData
      00FF26F1H   PUBLIC    CODE     ---       lcd_writeData_16bit_simspi
      00FF23D2H   PUBLIC    CODE     ---       lcd_set_region_simspi
      00FF2335H   PUBLIC    CODE     ---       lcd_set_region
      00FF28BFH   PUBLIC    CODE     ---       lcd_writedata_16bit
      000000D0H   SFRSYM    DATA     BYTE      PSW
      000000A0H.5 SFRSYM    DATA     BIT       P25
      00000088H   SFRSYM    DATA     BYTE      TCON
      000000A0H.3 SFRSYM    DATA     BIT       P23
      00000098H   SFRSYM    DATA     BYTE      SCON
      000000A0H.2 SFRSYM    DATA     BIT       P22
      000000A0H.1 SFRSYM    DATA     BIT       P21
      000000A0H.0 SFRSYM    DATA     BIT       P20
      000000B8H   SFRSYM    DATA     BYTE      IP
      000000A8H   SFRSYM    DATA     BYTE      IE
      000000F8H   SFRSYM    DATA     BYTE      P7
      000000E8H   SFRSYM    DATA     BYTE      P6
      000000C8H   SFRSYM    DATA     BYTE      P5
      000000C0H   SFRSYM    DATA     BYTE      P4
      000000B0H   SFRSYM    DATA     BYTE      P3
      000000A0H   SFRSYM    DATA     BYTE      P2
      00000090H   SFRSYM    DATA     BYTE      P1
L251 LINKER/LOCATER V4.66.93.0                                                        04/13/2024  20:03:07  PAGE 35


      00000080H   SFRSYM    DATA     BYTE      P0

      00FF2749H   BLOCK     CODE     ---       LVL=0
      R7          REGSYM    ---      BYTE      dat
      00FF274BH   BLOCK     CODE     NEAR LAB  LVL=1
      R6          REGSYM    ---      BYTE      i
      ---         BLOCKEND  ---      ---       LVL=1
      00FF2749H   LINE      CODE     ---       #60
      00FF274BH   LINE      CODE     ---       #61
      00FF274BH   LINE      CODE     ---       #62
      00FF274EH   LINE      CODE     ---       #64
      00FF2750H   LINE      CODE     ---       #65
      00FF2752H   LINE      CODE     ---       #66
      00FF2754H   LINE      CODE     ---       #68
      00FF2756H   LINE      CODE     ---       #70
      00FF275FH   LINE      CODE     ---       #71
      00FF2761H   LINE      CODE     ---       #72
      00FF2763H   LINE      CODE     ---       #74
      00FF2765H   LINE      CODE     ---       #75
      00FF2767H   LINE      CODE     ---       #76
      00FF276FH   LINE      CODE     ---       #77
      00FF2771H   LINE      CODE     ---       #78
      ---         BLOCKEND  ---      ---       LVL=0

      00FF2772H   BLOCK     CODE     ---       LVL=0
      R7          REGSYM    ---      BYTE      dat
      00FF2774H   BLOCK     CODE     NEAR LAB  LVL=1
      R6          REGSYM    ---      BYTE      i
      ---         BLOCKEND  ---      ---       LVL=1
      00FF2772H   LINE      CODE     ---       #87
      00FF2774H   LINE      CODE     ---       #88
      00FF2774H   LINE      CODE     ---       #89
      00FF2777H   LINE      CODE     ---       #91
      00FF2779H   LINE      CODE     ---       #92
      00FF277BH   LINE      CODE     ---       #93
      00FF277DH   LINE      CODE     ---       #94
      00FF277FH   LINE      CODE     ---       #96
      00FF2788H   LINE      CODE     ---       #97
      00FF278AH   LINE      CODE     ---       #98
      00FF278CH   LINE      CODE     ---       #100
      00FF278EH   LINE      CODE     ---       #101
      00FF2790H   LINE      CODE     ---       #102
      00FF2798H   LINE      CODE     ---       #103
      00FF279AH   LINE      CODE     ---       #104
      ---         BLOCKEND  ---      ---       LVL=0

      00FF26F1H   BLOCK     CODE     ---       LVL=0
      WR4         REGSYM    ---      WORD      dat
      00FF26F3H   BLOCK     CODE     NEAR LAB  LVL=1
      R10         REGSYM    ---      BYTE      i
      ---         BLOCKEND  ---      ---       LVL=1
      00FF26F1H   LINE      CODE     ---       #113
      00FF26F3H   LINE      CODE     ---       #114
      00FF26F3H   LINE      CODE     ---       #115
      00FF26F6H   LINE      CODE     ---       #117
      00FF26F8H   LINE      CODE     ---       #118
      00FF26FAH   LINE      CODE     ---       #119
      00FF26FCH   LINE      CODE     ---       #121
      00FF26FEH   LINE      CODE     ---       #123
      00FF270AH   LINE      CODE     ---       #124
      00FF270CH   LINE      CODE     ---       #125
      00FF270EH   LINE      CODE     ---       #127
      00FF2710H   LINE      CODE     ---       #128
      00FF2712H   LINE      CODE     ---       #129
      00FF271AH   LINE      CODE     ---       #131
L251 LINKER/LOCATER V4.66.93.0                                                        04/13/2024  20:03:07  PAGE 36


      00FF271CH   LINE      CODE     ---       #133
      ---         BLOCKEND  ---      ---       LVL=0

      00FF23D2H   BLOCK     CODE     ---       LVL=0
      0000036CH   SYMBOL    EDATA    WORD      x_start
      0000036EH   SYMBOL    EDATA    WORD      y_start
      WR12        REGSYM    ---      WORD      x_end
      WR14        REGSYM    ---      WORD      y_end
      00FF23D2H   LINE      CODE     ---       #145
      00FF23DCH   LINE      CODE     ---       #150
      00FF23E1H   LINE      CODE     ---       #151
      00FF23E5H   LINE      CODE     ---       #152
      00FF23EEH   LINE      CODE     ---       #153
      00FF23F2H   LINE      CODE     ---       #154
      00FF23F9H   LINE      CODE     ---       #156
      00FF23FEH   LINE      CODE     ---       #157
      00FF2402H   LINE      CODE     ---       #158
      00FF240BH   LINE      CODE     ---       #159
      00FF240FH   LINE      CODE     ---       #160
      00FF2416H   LINE      CODE     ---       #177
      00FF241BH   LINE      CODE     ---       #178
      ---         BLOCKEND  ---      ---       LVL=0
      WR14        REGSYM    ---      INT       color
      R13         REGSYM    ---      BYTE      i
      R12         REGSYM    ---      BYTE      j
      WR2         REGSYM    ---      WORD      x
      WR0         REGSYM    ---      WORD      y
      WR14        REGSYM    ---      WORD      color
      WR12        REGSYM    ---      WORD      x
      WR14        REGSYM    ---      WORD      y
      REG=3       REGSYM    ---      ---       dat
      WR12        REGSYM    ---      WORD      x
      WR14        REGSYM    ---      WORD      y
      WR12        REGSYM    ---      WORD      x
      WR14        REGSYM    ---      WORD      y
      R10         REGSYM    ---      BYTE      dat
      WR12        REGSYM    ---      WORD      x
      WR14        REGSYM    ---      WORD      y
      WR12        REGSYM    ---      WORD      x
      WR14        REGSYM    ---      WORD      y
      WR2         REGSYM    ---      WORD      dat
      WR12        REGSYM    ---      WORD      y
      R15         REGSYM    ---      BYTE      num
      R14         REGSYM    ---      BYTE      length
      DR12        REGSYM    ---      FLOAT     dat
      R7          REGSYM    ---      CHAR      point

      00FF2A68H   BLOCK     CODE     ---       LVL=0
      R7          REGSYM    ---      BYTE      dat
      00FF2A68H   LINE      CODE     ---       #607
      00FF2A68H   LINE      CODE     ---       #610
      00FF2A6AH   LINE      CODE     ---       #611
      00FF2A6CH   LINE      CODE     ---       #612
      00FF2A6FH   LINE      CODE     ---       #613
      00FF2A71H   LINE      CODE     ---       #614
      ---         BLOCKEND  ---      ---       LVL=0

      00FF2A72H   BLOCK     CODE     ---       LVL=0
      R7          REGSYM    ---      BYTE      dat
      00FF2A72H   LINE      CODE     ---       #623
      00FF2A72H   LINE      CODE     ---       #625
      00FF2A74H   LINE      CODE     ---       #626
      00FF2A76H   LINE      CODE     ---       #627
      00FF2A79H   LINE      CODE     ---       #628
      00FF2A7BH   LINE      CODE     ---       #629
L251 LINKER/LOCATER V4.66.93.0                                                        04/13/2024  20:03:07  PAGE 37


      ---         BLOCKEND  ---      ---       LVL=0

      00FF28BFH   BLOCK     CODE     ---       LVL=0
      WR4         REGSYM    ---      WORD      dat
      00FF28C1H   BLOCK     CODE     NEAR LAB  LVL=1
      0000037DH   SYMBOL    EDATA    ---       dat1
      ---         BLOCKEND  ---      ---       LVL=1
      00FF28BFH   LINE      CODE     ---       #638
      00FF28C1H   LINE      CODE     ---       #639
      00FF28C1H   LINE      CODE     ---       #642
      00FF28C5H   LINE      CODE     ---       #643
      00FF28C9H   LINE      CODE     ---       #645
      00FF28CBH   LINE      CODE     ---       #646
      00FF28CDH   LINE      CODE     ---       #647
      00FF28D4H   LINE      CODE     ---       #648
      00FF28DBH   LINE      CODE     ---       #649
      00FF28DDH   LINE      CODE     ---       #651
      ---         BLOCKEND  ---      ---       LVL=0

      00FF2335H   BLOCK     CODE     ---       LVL=0
      00000370H   SYMBOL    EDATA    WORD      x_start
      00000372H   SYMBOL    EDATA    WORD      y_start
      WR12        REGSYM    ---      WORD      x_end
      WR14        REGSYM    ---      WORD      y_end
      00FF2335H   LINE      CODE     ---       #663
      00FF2343H   LINE      CODE     ---       #668
      00FF2348H   LINE      CODE     ---       #669
      00FF234CH   LINE      CODE     ---       #670
      00FF2355H   LINE      CODE     ---       #671
      00FF2359H   LINE      CODE     ---       #672
      00FF2360H   LINE      CODE     ---       #674
      00FF2365H   LINE      CODE     ---       #675
      00FF2369H   LINE      CODE     ---       #676
      00FF2372H   LINE      CODE     ---       #677
      00FF2376H   LINE      CODE     ---       #678
      00FF237DH   LINE      CODE     ---       #695
      00FF2382H   LINE      CODE     ---       #696
      ---         BLOCKEND  ---      ---       LVL=0
      WR14        REGSYM    ---      INT       color
      R13         REGSYM    ---      BYTE      i
      R12         REGSYM    ---      BYTE      j
      WR2         REGSYM    ---      WORD      x
      WR0         REGSYM    ---      WORD      y
      WR14        REGSYM    ---      WORD      color
      WR12        REGSYM    ---      WORD      x
      WR14        REGSYM    ---      WORD      y
      REG=3       REGSYM    ---      ---       dat
      WR12        REGSYM    ---      WORD      x
      WR14        REGSYM    ---      WORD      y
      WR12        REGSYM    ---      WORD      x
      WR14        REGSYM    ---      WORD      y
      R10         REGSYM    ---      BYTE      dat
      WR12        REGSYM    ---      WORD      x
      WR14        REGSYM    ---      WORD      y
      WR12        REGSYM    ---      WORD      x
      WR14        REGSYM    ---      WORD      y
      WR2         REGSYM    ---      WORD      dat
      WR12        REGSYM    ---      WORD      y
      R15         REGSYM    ---      BYTE      num
      R14         REGSYM    ---      BYTE      length
      DR12        REGSYM    ---      FLOAT     dat
      R7          REGSYM    ---      CHAR      point
      REG=3       REGSYM    ---      ---       p

      ---         MODULE    ---      ---       SEEKFREE_ABSOLUTE_ENCODER
L251 LINKER/LOCATER V4.66.93.0                                                        04/13/2024  20:03:07  PAGE 38


      00FF0006H   PUBLIC    CODE     ---       encoder_delay_us
      000000D0H   SFRSYM    DATA     BYTE      PSW
      000000A0H.7 SFRSYM    DATA     BIT       P27
      000000A0H.6 SFRSYM    DATA     BIT       P26
      000000A0H.5 SFRSYM    DATA     BIT       P25
      000000A0H.4 SFRSYM    DATA     BIT       P24
      00000088H   SFRSYM    DATA     BYTE      TCON
      00000098H   SFRSYM    DATA     BYTE      SCON
      000000A0H.2 SFRSYM    DATA     BIT       P22
      000000B8H   SFRSYM    DATA     BYTE      IP
      000000A8H   SFRSYM    DATA     BYTE      IE
      000000F8H   SFRSYM    DATA     BYTE      P7
      000000E8H   SFRSYM    DATA     BYTE      P6
      000000C8H   SFRSYM    DATA     BYTE      P5
      000000C0H   SFRSYM    DATA     BYTE      P4
      000000B0H   SFRSYM    DATA     BYTE      P3
      000000A0H   SFRSYM    DATA     BYTE      P2
      00000090H   SFRSYM    DATA     BYTE      P1
      00000080H   SFRSYM    DATA     BYTE      P0

      00FF0006H   BLOCK     CODE     ---       LVL=0
      WR6         REGSYM    ---      WORD      x
      00FF0006H   LINE      CODE     ---       #43
      00FF0006H   LINE      CODE     ---       #45
      ---         BLOCKEND  ---      ---       LVL=0
      R6          REGSYM    ---      BYTE      byte
      R7          REGSYM    ---      BYTE      i
      R7          REGSYM    ---      BYTE      cmd
      R15         REGSYM    ---      BYTE      val
      R7          REGSYM    ---      BYTE      cmd
      REG=3       REGSYM    ---      ---       val
      R7          REGSYM    ---      BYTE      cmd
      R15         REGSYM    ---      BYTE      val
      R14         REGSYM    ---      BYTE      dat
      R7          REGSYM    ---      BYTE      cmd
      REG=3       REGSYM    ---      ---       val
      WR14        REGSYM    ---      WORD      zero_position
      WR14        REGSYM    ---      WORD      angle
      R10         REGSYM    ---      BYTE      byte
      R7          REGSYM    ---      BYTE      cmd
      R15         REGSYM    ---      BYTE      val
      R7          REGSYM    ---      BYTE      cmd
      REG=3       REGSYM    ---      ---       val
      R7          REGSYM    ---      BYTE      cmd
      R15         REGSYM    ---      BYTE      val
      R14         REGSYM    ---      BYTE      dat
      R7          REGSYM    ---      BYTE      cmd
      REG=3       REGSYM    ---      ---       val
      WR14        REGSYM    ---      WORD      zero_position
      WR14        REGSYM    ---      WORD      angle

      ---         MODULE    ---      ---       SEEKFREE_FONT
      00FF00A6H   PUBLIC    CODE     ---       oled_8x16
      00FF0696H   PUBLIC    CODE     ---       tft_ascii
      00FF0C86H   PUBLIC    CODE     ---       oled_6x8
      000000D0H   SFRSYM    DATA     BYTE      PSW
      00000088H   SFRSYM    DATA     BYTE      TCON
      00000098H   SFRSYM    DATA     BYTE      SCON
      000000B8H   SFRSYM    DATA     BYTE      IP
      000000A8H   SFRSYM    DATA     BYTE      IE
      000000F8H   SFRSYM    DATA     BYTE      P7
      000000E8H   SFRSYM    DATA     BYTE      P6
      000000C8H   SFRSYM    DATA     BYTE      P5
      000000C0H   SFRSYM    DATA     BYTE      P4
      000000B0H   SFRSYM    DATA     BYTE      P3
L251 LINKER/LOCATER V4.66.93.0                                                        04/13/2024  20:03:07  PAGE 39


      000000A0H   SFRSYM    DATA     BYTE      P2
      00000090H   SFRSYM    DATA     BYTE      P1
      00000080H   SFRSYM    DATA     BYTE      P0

      ---         MODULE    ---      ---       SEEKFREE_ICM20602
      00FF28DEH   PUBLIC    CODE     ---       icm_simspi_wr_byte
      00000008H   PUBLIC    EDATA    INT       icm_acc_x
      0000000AH   PUBLIC    EDATA    INT       icm_acc_y
      0000000CH   PUBLIC    EDATA    INT       icm_acc_z
      0000000EH   PUBLIC    EDATA    INT       icm_gyro_x
      00000010H   PUBLIC    EDATA    INT       icm_gyro_y
      00000012H   PUBLIC    EDATA    INT       icm_gyro_z
      000000D0H   SFRSYM    DATA     BYTE      PSW
      000000C0H.3 SFRSYM    DATA     BIT       P43
      000000C0H.2 SFRSYM    DATA     BIT       P42
      00000088H   SFRSYM    DATA     BYTE      TCON
      000000C0H.1 SFRSYM    DATA     BIT       P41
      00000098H   SFRSYM    DATA     BYTE      SCON
      000000C0H.0 SFRSYM    DATA     BIT       P40
      000000B8H   SFRSYM    DATA     BYTE      IP
      000000A8H   SFRSYM    DATA     BYTE      IE
      000000F8H   SFRSYM    DATA     BYTE      P7
      000000E8H   SFRSYM    DATA     BYTE      P6
      000000C8H   SFRSYM    DATA     BYTE      P5
      000000C0H   SFRSYM    DATA     BYTE      P4
      000000B0H   SFRSYM    DATA     BYTE      P3
      000000A0H   SFRSYM    DATA     BYTE      P2
      00000090H   SFRSYM    DATA     BYTE      P1
      00000080H   SFRSYM    DATA     BYTE      P0
      R15         REGSYM    ---      BYTE      dat

      00FF28DEH   BLOCK     CODE     ---       LVL=0
      R6          REGSYM    ---      BYTE      byte
      00FF28E0H   BLOCK     CODE     NEAR LAB  LVL=1
      R7          REGSYM    ---      BYTE      i
      ---         BLOCKEND  ---      ---       LVL=1
      00FF28DEH   LINE      CODE     ---       #143
      00FF28E0H   LINE      CODE     ---       #144
      00FF28E0H   LINE      CODE     ---       #147
      00FF28E2H   LINE      CODE     ---       #149
      00FF28E7H   LINE      CODE     ---       #150
      00FF28E9H   LINE      CODE     ---       #151
      00FF28EBH   LINE      CODE     ---       #153
      00FF28EDH   LINE      CODE     ---       #154
      00FF28F3H   LINE      CODE     ---       #155
      00FF28FAH   LINE      CODE     ---       #156
      00FF28FCH   LINE      CODE     ---       #157
      ---         BLOCKEND  ---      ---       LVL=0
      R7          REGSYM    ---      BYTE      cmd
      R15         REGSYM    ---      BYTE      val
      R7          REGSYM    ---      BYTE      cmd
      REG=3       REGSYM    ---      ---       val
      R7          REGSYM    ---      BYTE      cmd
      REG=3       REGSYM    ---      ---       val

      ---         MODULE    ---      ---       SEEKFREE_IIC
      00FF2A16H   PUBLIC    CODE     ---       simiic_start
      00FF29E4H   PUBLIC    CODE     ---       simiic_stop
      00FF287FH   PUBLIC    CODE     ---       simiic_sendack
      00FF2A5DH   PUBLIC    CODE     ---       simiic_delay
      0000034CH   PUBLIC    EDATA    BYTE      IIC_ad_main
      0000034DH   PUBLIC    EDATA    BYTE      IIC_num
      0000034EH   PUBLIC    EDATA    BYTE      IIC_ad_sub
      0000034FH   PUBLIC    EDATA    ---       IIC_buf
      000000D0H   SFRSYM    DATA     BYTE      PSW
L251 LINKER/LOCATER V4.66.93.0                                                        04/13/2024  20:03:07  PAGE 40


      000000C8H.1 SFRSYM    DATA     BIT       P51
      00000088H   SFRSYM    DATA     BYTE      TCON
      000000C8H.0 SFRSYM    DATA     BIT       P50
      00000098H   SFRSYM    DATA     BYTE      SCON
      000000B8H   SFRSYM    DATA     BYTE      IP
      000000A8H   SFRSYM    DATA     BYTE      IE
      000000F8H   SFRSYM    DATA     BYTE      P7
      000000E8H   SFRSYM    DATA     BYTE      P6
      000000C8H   SFRSYM    DATA     BYTE      P5
      000000C0H   SFRSYM    DATA     BYTE      P4
      000000B0H   SFRSYM    DATA     BYTE      P3
      000000A0H   SFRSYM    DATA     BYTE      P2
      00000090H   SFRSYM    DATA     BYTE      P1
      00000080H   SFRSYM    DATA     BYTE      P0

      00FF2A5DH   BLOCK     CODE     ---       LVL=0
      WR6         REGSYM    ---      WORD      j
      00FF2A5DH   LINE      CODE     ---       #66
      00FF2A5DH   LINE      CODE     ---       #67
      00FF2A5DH   LINE      CODE     ---       #68
      00FF2A5FH   LINE      CODE     ---       #69
      00FF2A67H   LINE      CODE     ---       #70
      ---         BLOCKEND  ---      ---       LVL=0

      00FF2A16H   BLOCK     CODE     ---       LVL=0
      00FF2A16H   LINE      CODE     ---       #74
      00FF2A16H   LINE      CODE     ---       #76
      00FF2A18H   LINE      CODE     ---       #77
      00FF2A1AH   LINE      CODE     ---       #78
      00FF2A1DH   LINE      CODE     ---       #79
      00FF2A1FH   LINE      CODE     ---       #80
      00FF2A22H   LINE      CODE     ---       #81
      00FF2A24H   LINE      CODE     ---       #82
      ---         BLOCKEND  ---      ---       LVL=0

      00FF29E4H   BLOCK     CODE     ---       LVL=0
      00FF29E4H   LINE      CODE     ---       #85
      00FF29E4H   LINE      CODE     ---       #87
      00FF29E6H   LINE      CODE     ---       #88
      00FF29E8H   LINE      CODE     ---       #89
      00FF29EBH   LINE      CODE     ---       #90
      00FF29EDH   LINE      CODE     ---       #91
      00FF29F0H   LINE      CODE     ---       #92
      00FF29F2H   LINE      CODE     ---       #93
      ---         BLOCKEND  ---      ---       LVL=0

      00FF287FH   BLOCK     CODE     ---       LVL=0
      R15         REGSYM    ---      BYTE      ack_dat
      00FF287FH   LINE      CODE     ---       #98
      00FF2883H   LINE      CODE     ---       #100
      00FF2885H   LINE      CODE     ---       #101
      00FF2888H   LINE      CODE     ---       #102
      00FF2890H   LINE      CODE     ---       #103
      00FF2892H   LINE      CODE     ---       #105
      00FF2894H   LINE      CODE     ---       #106
      00FF2897H   LINE      CODE     ---       #107
      00FF2899H   LINE      CODE     ---       #108
      00FF289CH   LINE      CODE     ---       #109
      ---         BLOCKEND  ---      ---       LVL=0
      R15         REGSYM    ---      BYTE      c
      R14         REGSYM    ---      BYTE      i
      R15         REGSYM    ---      BYTE      ack_x
      R13         REGSYM    ---      BYTE      i
      R14         REGSYM    ---      BYTE      c
      R13         REGSYM    ---      BYTE      dev_add
L251 LINKER/LOCATER V4.66.93.0                                                        04/13/2024  20:03:07  PAGE 41


      R14         REGSYM    ---      BYTE      reg
      R15         REGSYM    ---      BYTE      dat
      R15         REGSYM    ---      BYTE      dev_add
      R14         REGSYM    ---      BYTE      reg
      WR12        REGSYM    ---      INT       type
      R15         REGSYM    ---      BYTE      dat
      REG=3       REGSYM    ---      ---       dat_add

      ---         MODULE    ---      ---       SEEKFREE_IPS114_SPI
      00FF28FDH   PUBLIC    CODE     ---       ips114_writedata_16bit
      00FF271DH   PUBLIC    CODE     ---       ips114_writeDatai_16bit_simspi
      00FF279BH   PUBLIC    CODE     ---       ips114_writeIndex_simspi
      00FF2A7CH   PUBLIC    CODE     ---       ips114_writeIndex
      000000D0H   SFRSYM    DATA     BYTE      PSW
      000000A0H.7 SFRSYM    DATA     BIT       P27
      000000A0H.5 SFRSYM    DATA     BIT       P25
      00000088H   SFRSYM    DATA     BYTE      TCON
      000000A0H.3 SFRSYM    DATA     BIT       P23
      00000098H   SFRSYM    DATA     BYTE      SCON
      000000A0H.2 SFRSYM    DATA     BIT       P22
      000000A0H.1 SFRSYM    DATA     BIT       P21
      000000A0H.0 SFRSYM    DATA     BIT       P20
      000000B8H   SFRSYM    DATA     BYTE      IP
      000000A8H   SFRSYM    DATA     BYTE      IE
      000000F8H   SFRSYM    DATA     BYTE      P7
      000000E8H   SFRSYM    DATA     BYTE      P6
      000000C8H   SFRSYM    DATA     BYTE      P5
      000000C0H   SFRSYM    DATA     BYTE      P4
      000000B0H   SFRSYM    DATA     BYTE      P3
      000000A0H   SFRSYM    DATA     BYTE      P2
      00000090H   SFRSYM    DATA     BYTE      P1
      00000080H   SFRSYM    DATA     BYTE      P0

      00FF279BH   BLOCK     CODE     ---       LVL=0
      R7          REGSYM    ---      BYTE      dat
      00FF279DH   BLOCK     CODE     NEAR LAB  LVL=1
      R6          REGSYM    ---      BYTE      i
      ---         BLOCKEND  ---      ---       LVL=1
      00FF279BH   LINE      CODE     ---       #61
      00FF279DH   LINE      CODE     ---       #62
      00FF279DH   LINE      CODE     ---       #63
      00FF27A0H   LINE      CODE     ---       #64
      00FF27A2H   LINE      CODE     ---       #65
      00FF27A4H   LINE      CODE     ---       #67
      00FF27A6H   LINE      CODE     ---       #69
      00FF27A8H   LINE      CODE     ---       #71
      00FF27B1H   LINE      CODE     ---       #72
      00FF27B3H   LINE      CODE     ---       #73
      00FF27B5H   LINE      CODE     ---       #75
      00FF27B7H   LINE      CODE     ---       #76
      00FF27B9H   LINE      CODE     ---       #77
      00FF27C1H   LINE      CODE     ---       #78
      00FF27C3H   LINE      CODE     ---       #79
      ---         BLOCKEND  ---      ---       LVL=0
      R7          REGSYM    ---      BYTE      dat
      R6          REGSYM    ---      BYTE      i

      00FF271DH   BLOCK     CODE     ---       LVL=0
      WR4         REGSYM    ---      WORD      dat
      00FF271FH   BLOCK     CODE     NEAR LAB  LVL=1
      R10         REGSYM    ---      BYTE      i
      ---         BLOCKEND  ---      ---       LVL=1
      00FF271DH   LINE      CODE     ---       #115
      00FF271FH   LINE      CODE     ---       #116
      00FF271FH   LINE      CODE     ---       #117
L251 LINKER/LOCATER V4.66.93.0                                                        04/13/2024  20:03:07  PAGE 42


      00FF2722H   LINE      CODE     ---       #118
      00FF2724H   LINE      CODE     ---       #119
      00FF2726H   LINE      CODE     ---       #120
      00FF2728H   LINE      CODE     ---       #121
      00FF272AH   LINE      CODE     ---       #123
      00FF2736H   LINE      CODE     ---       #124
      00FF2738H   LINE      CODE     ---       #125
      00FF273AH   LINE      CODE     ---       #127
      00FF273CH   LINE      CODE     ---       #128
      00FF273EH   LINE      CODE     ---       #129
      00FF2746H   LINE      CODE     ---       #130
      00FF2748H   LINE      CODE     ---       #131
      ---         BLOCKEND  ---      ---       LVL=0
      WR12        REGSYM    ---      WORD      x2
      WR14        REGSYM    ---      WORD      y2
      WR14        REGSYM    ---      WORD      color
      R13         REGSYM    ---      BYTE      i
      WR2         REGSYM    ---      WORD      x
      WR0         REGSYM    ---      WORD      y
      WR14        REGSYM    ---      WORD      color
      WR12        REGSYM    ---      WORD      x
      WR14        REGSYM    ---      WORD      y
      REG=3       REGSYM    ---      ---       dat
      WR12        REGSYM    ---      WORD      x
      WR14        REGSYM    ---      WORD      y
      WR12        REGSYM    ---      WORD      x
      WR14        REGSYM    ---      WORD      y
      R10         REGSYM    ---      BYTE      dat
      WR12        REGSYM    ---      WORD      x
      WR14        REGSYM    ---      WORD      y
      WR12        REGSYM    ---      WORD      x
      WR14        REGSYM    ---      WORD      y
      WR2         REGSYM    ---      WORD      dat
      WR12        REGSYM    ---      WORD      y
      R15         REGSYM    ---      BYTE      num
      R14         REGSYM    ---      BYTE      length
      DR12        REGSYM    ---      FLOAT     dat
      R7          REGSYM    ---      CHAR      point

      00FF2A7CH   BLOCK     CODE     ---       LVL=0
      R7          REGSYM    ---      BYTE      dat
      00FF2A7CH   LINE      CODE     ---       #594
      00FF2A7CH   LINE      CODE     ---       #596
      00FF2A7EH   LINE      CODE     ---       #597
      00FF2A80H   LINE      CODE     ---       #599
      00FF2A83H   LINE      CODE     ---       #600
      00FF2A85H   LINE      CODE     ---       #601
      ---         BLOCKEND  ---      ---       LVL=0
      R7          REGSYM    ---      BYTE      dat

      00FF28FDH   BLOCK     CODE     ---       LVL=0
      WR4         REGSYM    ---      WORD      dat
      00FF28FFH   BLOCK     CODE     NEAR LAB  LVL=1
      0000037FH   SYMBOL    EDATA    ---       dat1
      ---         BLOCKEND  ---      ---       LVL=1
      00FF28FDH   LINE      CODE     ---       #626
      00FF28FFH   LINE      CODE     ---       #627
      00FF28FFH   LINE      CODE     ---       #629
      00FF2903H   LINE      CODE     ---       #630
      00FF2907H   LINE      CODE     ---       #631
      00FF2909H   LINE      CODE     ---       #632
      00FF290BH   LINE      CODE     ---       #633
      00FF2912H   LINE      CODE     ---       #634
      00FF2919H   LINE      CODE     ---       #635
      00FF291BH   LINE      CODE     ---       #636
L251 LINKER/LOCATER V4.66.93.0                                                        04/13/2024  20:03:07  PAGE 43


      ---         BLOCKEND  ---      ---       LVL=0
      WR12        REGSYM    ---      WORD      x2
      WR14        REGSYM    ---      WORD      y2
      WR14        REGSYM    ---      WORD      color
      R13         REGSYM    ---      BYTE      i
      WR2         REGSYM    ---      WORD      x
      WR0         REGSYM    ---      WORD      y
      WR14        REGSYM    ---      WORD      color
      WR12        REGSYM    ---      WORD      x
      WR14        REGSYM    ---      WORD      y
      REG=3       REGSYM    ---      ---       dat
      WR12        REGSYM    ---      WORD      x
      WR14        REGSYM    ---      WORD      y
      WR12        REGSYM    ---      WORD      x
      WR14        REGSYM    ---      WORD      y
      R10         REGSYM    ---      BYTE      dat
      WR12        REGSYM    ---      WORD      x
      WR14        REGSYM    ---      WORD      y
      WR12        REGSYM    ---      WORD      x
      WR14        REGSYM    ---      WORD      y
      WR2         REGSYM    ---      WORD      dat
      WR12        REGSYM    ---      WORD      y
      R15         REGSYM    ---      BYTE      num
      R14         REGSYM    ---      BYTE      length
      DR12        REGSYM    ---      FLOAT     dat
      R7          REGSYM    ---      CHAR      point

      ---         MODULE    ---      ---       SEEKFREE_MPU6050
      00000014H   PUBLIC    EDATA    INT       mpu_acc_x
      00000016H   PUBLIC    EDATA    INT       mpu_acc_y
      00000018H   PUBLIC    EDATA    INT       mpu_acc_z
      0000001AH   PUBLIC    EDATA    INT       mpu_gyro_x
      0000001CH   PUBLIC    EDATA    INT       mpu_gyro_y
      0000001EH   PUBLIC    EDATA    INT       mpu_gyro_z
      000000D0H   SFRSYM    DATA     BYTE      PSW
      00000088H   SFRSYM    DATA     BYTE      TCON
      00000098H   SFRSYM    DATA     BYTE      SCON
      000000B8H   SFRSYM    DATA     BYTE      IP
      000000A8H   SFRSYM    DATA     BYTE      IE
      000000F8H   SFRSYM    DATA     BYTE      P7
      000000E8H   SFRSYM    DATA     BYTE      P6
      000000C8H   SFRSYM    DATA     BYTE      P5
      000000C0H   SFRSYM    DATA     BYTE      P4
      000000B0H   SFRSYM    DATA     BYTE      P3
      000000A0H   SFRSYM    DATA     BYTE      P2
      00000090H   SFRSYM    DATA     BYTE      P1
      00000080H   SFRSYM    DATA     BYTE      P0

      ---         MODULE    ---      ---       SEEKFREE_OLED
      00FF283BH   PUBLIC    CODE     ---       oled_set_pos
      00FF27C4H   PUBLIC    CODE     ---       oled_wrcmd
      00FF27EDH   PUBLIC    CODE     ---       oled_wrdat
      00FF285EH   PUBLIC    CODE     ---       oled_set_pos_spi
      00FF2A86H   PUBLIC    CODE     ---       oled_wrcmd_spi
      00FF2A90H   PUBLIC    CODE     ---       oled_wrdat_spi
      000000D0H   SFRSYM    DATA     BYTE      PSW
      000000A0H.5 SFRSYM    DATA     BIT       P25
      00000088H   SFRSYM    DATA     BYTE      TCON
      000000A0H.3 SFRSYM    DATA     BIT       P23
      00000098H   SFRSYM    DATA     BYTE      SCON
      000000A0H.2 SFRSYM    DATA     BIT       P22
      000000A0H.1 SFRSYM    DATA     BIT       P21
      000000A0H.0 SFRSYM    DATA     BIT       P20
      000000B8H   SFRSYM    DATA     BYTE      IP
      000000A8H   SFRSYM    DATA     BYTE      IE
L251 LINKER/LOCATER V4.66.93.0                                                        04/13/2024  20:03:07  PAGE 44


      000000F8H   SFRSYM    DATA     BYTE      P7
      000000E8H   SFRSYM    DATA     BYTE      P6
      000000C8H   SFRSYM    DATA     BYTE      P5
      000000C0H   SFRSYM    DATA     BYTE      P4
      000000B0H   SFRSYM    DATA     BYTE      P3
      000000A0H   SFRSYM    DATA     BYTE      P2
      00000090H   SFRSYM    DATA     BYTE      P1
      00000080H   SFRSYM    DATA     BYTE      P0

      00FF27EDH   BLOCK     CODE     ---       LVL=0
      R7          REGSYM    ---      BYTE      dat
      00FF27EFH   BLOCK     CODE     NEAR LAB  LVL=1
      R6          REGSYM    ---      BYTE      i
      ---         BLOCKEND  ---      ---       LVL=1
      00FF27EDH   LINE      CODE     ---       #47
      00FF27EFH   LINE      CODE     ---       #48
      00FF27EFH   LINE      CODE     ---       #49
      00FF27F2H   LINE      CODE     ---       #51
      00FF27F4H   LINE      CODE     ---       #52
      00FF27F6H   LINE      CODE     ---       #53
      00FF27F8H   LINE      CODE     ---       #54
      00FF27FAH   LINE      CODE     ---       #56
      00FF2803H   LINE      CODE     ---       #57
      00FF2805H   LINE      CODE     ---       #58
      00FF2807H   LINE      CODE     ---       #60
      00FF2809H   LINE      CODE     ---       #61
      00FF280BH   LINE      CODE     ---       #62
      00FF2813H   LINE      CODE     ---       #63
      00FF2815H   LINE      CODE     ---       #64
      ---         BLOCKEND  ---      ---       LVL=0

      00FF27C4H   BLOCK     CODE     ---       LVL=0
      R7          REGSYM    ---      BYTE      cmd
      00FF27C6H   BLOCK     CODE     NEAR LAB  LVL=1
      R6          REGSYM    ---      BYTE      i
      ---         BLOCKEND  ---      ---       LVL=1
      00FF27C4H   LINE      CODE     ---       #98
      00FF27C6H   LINE      CODE     ---       #99
      00FF27C6H   LINE      CODE     ---       #100
      00FF27C9H   LINE      CODE     ---       #102
      00FF27CBH   LINE      CODE     ---       #103
      00FF27CDH   LINE      CODE     ---       #104
      00FF27CFH   LINE      CODE     ---       #106
      00FF27D1H   LINE      CODE     ---       #108
      00FF27DAH   LINE      CODE     ---       #109
      00FF27DCH   LINE      CODE     ---       #110
      00FF27DEH   LINE      CODE     ---       #112
      00FF27E0H   LINE      CODE     ---       #113
      00FF27E2H   LINE      CODE     ---       #114
      00FF27EAH   LINE      CODE     ---       #115
      00FF27ECH   LINE      CODE     ---       #116
      ---         BLOCKEND  ---      ---       LVL=0
      WR8         REGSYM    ---      WORD      hex
      REG=7       REGSYM    ---      ---       Print
      R5          REGSYM    ---      BYTE      hexcheck
      R10         REGSYM    ---      BYTE      TEMP

      00FF283BH   BLOCK     CODE     ---       LVL=0
      R15         REGSYM    ---      BYTE      x
      R10         REGSYM    ---      BYTE      y
      00FF283BH   LINE      CODE     ---       #205
      00FF283FH   LINE      CODE     ---       #207
      00FF2846H   LINE      CODE     ---       #208
      00FF2854H   LINE      CODE     ---       #209
      00FF285BH   LINE      CODE     ---       #210
L251 LINKER/LOCATER V4.66.93.0                                                        04/13/2024  20:03:07  PAGE 45


      ---         BLOCKEND  ---      ---       LVL=0
      R15         REGSYM    ---      BYTE      bmp_data
      R14         REGSYM    ---      BYTE      y
      R13         REGSYM    ---      BYTE      x
      R15         REGSYM    ---      BYTE      x
      R14         REGSYM    ---      BYTE      y
      R13         REGSYM    ---      BYTE      data1
      R15         REGSYM    ---      BYTE      x
      R14         REGSYM    ---      BYTE      y
      REG=3       REGSYM    ---      ---       ch
      REG=3       REGSYM    ---      ---       ch
      R14         REGSYM    ---      BYTE      x
      R15         REGSYM    ---      BYTE      y
      WR4         REGSYM    ---      WORD      num
      R15         REGSYM    ---      BYTE      x
      R14         REGSYM    ---      BYTE      y
      WR12        REGSYM    ---      INT       num
      WR12        REGSYM    ---      WORD      y
      R15         REGSYM    ---      BYTE      num
      R14         REGSYM    ---      BYTE      length
      DR12        REGSYM    ---      FLOAT     dat
      R7          REGSYM    ---      CHAR      point
      WR4         REGSYM    ---      WORD      high
      REG=3       REGSYM    ---      ---       p
      REG=3       REGSYM    ---      ---       p

      00FF2A90H   BLOCK     CODE     ---       LVL=0
      R7          REGSYM    ---      BYTE      dat
      00FF2A90H   LINE      CODE     ---       #534
      00FF2A90H   LINE      CODE     ---       #536
      00FF2A92H   LINE      CODE     ---       #537
      00FF2A94H   LINE      CODE     ---       #538
      00FF2A97H   LINE      CODE     ---       #539
      00FF2A99H   LINE      CODE     ---       #542
      ---         BLOCKEND  ---      ---       LVL=0

      00FF2A86H   BLOCK     CODE     ---       LVL=0
      R7          REGSYM    ---      BYTE      cmd
      00FF2A86H   LINE      CODE     ---       #576
      00FF2A86H   LINE      CODE     ---       #578
      00FF2A88H   LINE      CODE     ---       #579
      00FF2A8AH   LINE      CODE     ---       #580
      00FF2A8DH   LINE      CODE     ---       #581
      00FF2A8FH   LINE      CODE     ---       #582
      ---         BLOCKEND  ---      ---       LVL=0
      WR8         REGSYM    ---      WORD      hex
      REG=7       REGSYM    ---      ---       Print
      R5          REGSYM    ---      BYTE      hexcheck
      R10         REGSYM    ---      BYTE      TEMP

      00FF285EH   BLOCK     CODE     ---       LVL=0
      R15         REGSYM    ---      BYTE      x
      R10         REGSYM    ---      BYTE      y
      00FF285EH   LINE      CODE     ---       #672
      00FF2862H   LINE      CODE     ---       #676
      00FF2869H   LINE      CODE     ---       #677
      00FF2875H   LINE      CODE     ---       #678
      00FF287CH   LINE      CODE     ---       #679
      ---         BLOCKEND  ---      ---       LVL=0
      R15         REGSYM    ---      BYTE      bmp_data
      R14         REGSYM    ---      BYTE      y
      R13         REGSYM    ---      BYTE      x
      R15         REGSYM    ---      BYTE      x
      R14         REGSYM    ---      BYTE      y
      R13         REGSYM    ---      BYTE      data1
L251 LINKER/LOCATER V4.66.93.0                                                        04/13/2024  20:03:07  PAGE 46


      R15         REGSYM    ---      BYTE      x
      R14         REGSYM    ---      BYTE      y
      REG=3       REGSYM    ---      ---       ch
      REG=3       REGSYM    ---      ---       ch
      R14         REGSYM    ---      BYTE      x
      R15         REGSYM    ---      BYTE      y
      WR4         REGSYM    ---      WORD      num
      R15         REGSYM    ---      BYTE      x
      R14         REGSYM    ---      BYTE      y
      WR12        REGSYM    ---      INT       num
      WR12        REGSYM    ---      WORD      y
      R15         REGSYM    ---      BYTE      num
      R14         REGSYM    ---      BYTE      length
      DR12        REGSYM    ---      FLOAT     dat
      R7          REGSYM    ---      CHAR      point
      WR4         REGSYM    ---      WORD      high
      REG=3       REGSYM    ---      ---       p
      REG=3       REGSYM    ---      ---       p

      ---         MODULE    ---      ---       SEEKFREE_TSL1401
      00000021H   PUBLIC    EDATA    BYTE      tsl1401_finish_flag
      00000022H   PUBLIC    EDATA    ---       ccd_data
      000000D0H   SFRSYM    DATA     BYTE      PSW
      000000B0H.3 SFRSYM    DATA     BIT       P33
      00000088H   SFRSYM    DATA     BYTE      TCON
      000000B0H.2 SFRSYM    DATA     BIT       P32
      00000098H   SFRSYM    DATA     BYTE      SCON
      000000B8H   SFRSYM    DATA     BYTE      IP
      000000A8H   SFRSYM    DATA     BYTE      IE
      000000F8H   SFRSYM    DATA     BYTE      P7
      000000E8H   SFRSYM    DATA     BYTE      P6
      000000C8H   SFRSYM    DATA     BYTE      P5
      000000C0H   SFRSYM    DATA     BYTE      P4
      000000B0H   SFRSYM    DATA     BYTE      P3
      000000A0H   SFRSYM    DATA     BYTE      P2
      00000090H   SFRSYM    DATA     BYTE      P1
      00000080H   SFRSYM    DATA     BYTE      P0
      REG=3       REGSYM    ---      ---       dat
      R15         REGSYM    ---      BYTE      i

      ---         MODULE    ---      ---       SEEKFREE_VIRSCO
      00000342H   PUBLIC    EDATA    ---       virtual_scope_data
      000000D0H   SFRSYM    DATA     BYTE      PSW
      00000088H   SFRSYM    DATA     BYTE      TCON
      00000098H   SFRSYM    DATA     BYTE      SCON
      000000B8H   SFRSYM    DATA     BYTE      IP
      000000A8H   SFRSYM    DATA     BYTE      IE
      000000F8H   SFRSYM    DATA     BYTE      P7
      000000E8H   SFRSYM    DATA     BYTE      P6
      000000C8H   SFRSYM    DATA     BYTE      P5
      000000C0H   SFRSYM    DATA     BYTE      P4
      000000B0H   SFRSYM    DATA     BYTE      P3
      000000A0H   SFRSYM    DATA     BYTE      P2
      00000090H   SFRSYM    DATA     BYTE      P1
      00000080H   SFRSYM    DATA     BYTE      P0
      REG=7       REGSYM    ---      ---       Buf
      R10         REGSYM    ---      BYTE      CRC_CNT
      WR6         REGSYM    ---      WORD      CRC_Temp
      R5          REGSYM    ---      BYTE      i
      R4          REGSYM    ---      BYTE      j
      WR0         REGSYM    ---      INT       data1
      WR30        REGSYM    ---      INT       data2
      WR8         REGSYM    ---      INT       data3
      WR10        REGSYM    ---      INT       data4
      WR6         REGSYM    ---      WORD      CRC16
L251 LINKER/LOCATER V4.66.93.0                                                        04/13/2024  20:03:07  PAGE 47



      ---         MODULE    ---      ---       SEEKFREE_WIRELESS
      00FF2958H   PUBLIC    CODE     ---       wireless_uart_callback
      000000D0H   SFRSYM    DATA     BYTE      PSW
      000000FEH   SFRSYM    DATA     BYTE      S4BUF
      00000080H.7 SFRSYM    DATA     BIT       P07
      00000088H   SFRSYM    DATA     BYTE      TCON
      00000098H   SFRSYM    DATA     BYTE      SCON
      000000B8H   SFRSYM    DATA     BYTE      IP
      000000A8H   SFRSYM    DATA     BYTE      IE
      000000F8H   SFRSYM    DATA     BYTE      P7
      000000E8H   SFRSYM    DATA     BYTE      P6
      000000C8H   SFRSYM    DATA     BYTE      P5
      000000C0H   SFRSYM    DATA     BYTE      P4
      000000B0H   SFRSYM    DATA     BYTE      P3
      000000A0H   SFRSYM    DATA     BYTE      P2
      00000090H   SFRSYM    DATA     BYTE      P1
      00000080H   SFRSYM    DATA     BYTE      P0
      000001EFH   SYMBOL    EDATA    BYTE      wireless_uart_data
      000001F0H   SYMBOL    EDATA    ---       wireless_uart_fifo
      00000204H   SYMBOL    EDATA    ---       wireless_uart_buffer

      00FF2958H   BLOCK     CODE     ---       LVL=0
      00FF2958H   LINE      CODE     ---       #48
      00FF2958H   LINE      CODE     ---       #51
      00FF295EH   LINE      CODE     ---       #52
      ---         BLOCKEND  ---      ---       LVL=0
      REG=3       REGSYM    ---      ---       buff
      REG=7       REGSYM    ---      ---       buff
      DR8         REGSYM    ---      DWORD     len

      ---         MODULE    ---      ---       SEEKFREE_AT24C02
      000000D0H   SFRSYM    DATA     BYTE      PSW
      00000088H   SFRSYM    DATA     BYTE      TCON
      00000098H   SFRSYM    DATA     BYTE      SCON
      000000B8H   SFRSYM    DATA     BYTE      IP
      000000A8H   SFRSYM    DATA     BYTE      IE
      000000F8H   SFRSYM    DATA     BYTE      P7
      000000E8H   SFRSYM    DATA     BYTE      P6
      000000C8H   SFRSYM    DATA     BYTE      P5
      000000C0H   SFRSYM    DATA     BYTE      P4
      000000B0H   SFRSYM    DATA     BYTE      P3
      000000A0H   SFRSYM    DATA     BYTE      P2
      00000090H   SFRSYM    DATA     BYTE      P1
      00000080H   SFRSYM    DATA     BYTE      P0
      R14         REGSYM    ---      BYTE      byte_reg
      R15         REGSYM    ---      BYTE      dat
      R15         REGSYM    ---      BYTE      byte_reg
      REG=3       REGSYM    ---      ---       dat_add
      REG=3       REGSYM    ---      ---       dat_add

      ---         MODULE    ---      ---       SEEKFREE_BLUETOOTH_CH9141
      00FF2971H   PUBLIC    CODE     ---       bluetooth_ch9141_uart_callback
      000000D0H   SFRSYM    DATA     BYTE      PSW
      000000FEH   SFRSYM    DATA     BYTE      S4BUF
      00000080H.7 SFRSYM    DATA     BIT       P07
      00000088H   SFRSYM    DATA     BYTE      TCON
      00000098H   SFRSYM    DATA     BYTE      SCON
      000000B8H   SFRSYM    DATA     BYTE      IP
      000000A8H   SFRSYM    DATA     BYTE      IE
      000000F8H   SFRSYM    DATA     BYTE      P7
      000000E8H   SFRSYM    DATA     BYTE      P6
      000000C8H   SFRSYM    DATA     BYTE      P5
      000000C0H   SFRSYM    DATA     BYTE      P4
      000000B0H   SFRSYM    DATA     BYTE      P3
L251 LINKER/LOCATER V4.66.93.0                                                        04/13/2024  20:03:07  PAGE 48


      000000A0H   SFRSYM    DATA     BYTE      P2
      00000090H   SFRSYM    DATA     BYTE      P1
      00000080H   SFRSYM    DATA     BYTE      P0
      00000244H   SYMBOL    EDATA    ---       bluetooth_ch9141_buffer
      00000284H   SYMBOL    EDATA    BYTE      bluetooth_ch9141_data
      00000285H   SYMBOL    EDATA    ---       bluetooth_ch9141_fifo

      00FF2971H   BLOCK     CODE     ---       LVL=0
      00FF2971H   LINE      CODE     ---       #67
      00FF2971H   LINE      CODE     ---       #70
      00FF2977H   LINE      CODE     ---       #71
      ---         BLOCKEND  ---      ---       LVL=0
      DR12        REGSYM    ---      DWORD     len
      REG=7       REGSYM    ---      ---       buff
      DR8         REGSYM    ---      DWORD     len

      ---         MODULE    ---      ---       SEEKFREE_WIRELESS_CH573
      00FF298AH   PUBLIC    CODE     ---       wireless_ch573_callback
      000000D0H   SFRSYM    DATA     BYTE      PSW
      000000FEH   SFRSYM    DATA     BYTE      S4BUF
      00000080H.7 SFRSYM    DATA     BIT       P07
      00000088H   SFRSYM    DATA     BYTE      TCON
      00000098H   SFRSYM    DATA     BYTE      SCON
      000000B8H   SFRSYM    DATA     BYTE      IP
      000000A8H   SFRSYM    DATA     BYTE      IE
      000000F8H   SFRSYM    DATA     BYTE      P7
      000000E8H   SFRSYM    DATA     BYTE      P6
      000000C8H   SFRSYM    DATA     BYTE      P5
      000000C0H   SFRSYM    DATA     BYTE      P4
      000000B0H   SFRSYM    DATA     BYTE      P3
      000000A0H   SFRSYM    DATA     BYTE      P2
      00000090H   SFRSYM    DATA     BYTE      P1
      00000080H   SFRSYM    DATA     BYTE      P0
      00000299H   SYMBOL    EDATA    ---       wireless_ch573_buffer
      000002D9H   SYMBOL    EDATA    BYTE      wireless_ch573_data
      000002DAH   SYMBOL    EDATA    ---       wireless_ch573_fifo

      00FF298AH   BLOCK     CODE     ---       LVL=0
      00FF298AH   LINE      CODE     ---       #39
      00FF298AH   LINE      CODE     ---       #42
      00FF2990H   LINE      CODE     ---       #43
      ---         BLOCKEND  ---      ---       LVL=0
      REG=3       REGSYM    ---      ---       buff
      REG=7       REGSYM    ---      ---       buff
      DR8         REGSYM    ---      DWORD     len

      ---         MODULE    ---      ---       SEEKFREE_VL53L0X
      00000378H   PUBLIC    EDATA    WORD      vl53l0x_distance_mm
      0000037AH   PUBLIC    EDATA    BYTE      vl53l0x_finsh_flag
      000000D0H   SFRSYM    DATA     BYTE      PSW
      000000C0H.7 SFRSYM    DATA     BIT       P47
      000000B0H.3 SFRSYM    DATA     BIT       P33
      00000088H   SFRSYM    DATA     BYTE      TCON
      000000B0H.2 SFRSYM    DATA     BIT       P32
      00000098H   SFRSYM    DATA     BYTE      SCON
      000000B8H   SFRSYM    DATA     BYTE      IP
      000000A8H   SFRSYM    DATA     BYTE      IE
      000000F8H   SFRSYM    DATA     BYTE      P7
      000000E8H   SFRSYM    DATA     BYTE      P6
      000000C8H   SFRSYM    DATA     BYTE      P5
      000000C0H   SFRSYM    DATA     BYTE      P4
      000000B0H   SFRSYM    DATA     BYTE      P3
      000000A0H   SFRSYM    DATA     BYTE      P2
      00000090H   SFRSYM    DATA     BYTE      P1
      00000080H   SFRSYM    DATA     BYTE      P0
L251 LINKER/LOCATER V4.66.93.0                                                        04/13/2024  20:03:07  PAGE 49


      00FF289FH   SYMBOL    CODE     ---       vl53l0x_simiic_sendack
      00FF25AAH   SYMBOL    CODE     ---       vl53l0x_timeout_microseconds_to_mclks
      00FF252FH   SYMBOL    CODE     ---       vl53l0x_timeout_mclks_to_microseconds
      00FF25E6H   SYMBOL    CODE     ---       vl53l0x_read_ch
      00FF2A06H   SYMBOL    CODE     ---       vl53l0x_decode_timeout
      00FF26C3H   SYMBOL    CODE     ---       vl53l0x_send_ch
      00FF268FH   SYMBOL    CODE     ---       vl53l0x_encode_timeout
      00FF2235H   SYMBOL    CODE     ---       vl53l0x_get_sequence_step_enables
      00FF0026H   SYMBOL    CODE     ---       vl53l0x_sccb_waitack
      00FF0046H   SYMBOL    CODE     ---       vl53l0x_simiic_delay
      00FF1EEDH   SYMBOL    CODE     ---       vl53l0x_get_sequence_step_timeouts
      00FF2A25H   SYMBOL    CODE     ---       vl53l0x_simiic_start
      00FF22E1H   SYMBOL    CODE     ---       vl53l0x_simiic_read_regs
      00FF265AH   SYMBOL    CODE     ---       vl53l0x_simiic_write_dats
      00FF29F5H   SYMBOL    CODE     ---       vl53l0x_simiic_stop
      00FF2385H   SYMBOL    CODE     ---       vl53l0x_get_vcsel_pulse_period

      00FF0046H   BLOCK     CODE     ---       LVL=0
      WR6         REGSYM    ---      WORD      j
      00FF0046H   LINE      CODE     ---       #77
      00FF0046H   LINE      CODE     ---       #78
      00FF0046H   LINE      CODE     ---       #79
      00FF004AH   LINE      CODE     ---       #80
      00FF0052H   LINE      CODE     ---       #81
      ---         BLOCKEND  ---      ---       LVL=0

      00FF2A25H   BLOCK     CODE     ---       LVL=0
      00FF2A25H   LINE      CODE     ---       #84
      00FF2A25H   LINE      CODE     ---       #86
      00FF2A27H   LINE      CODE     ---       #87
      00FF2A29H   LINE      CODE     ---       #88
      00FF2A2CH   LINE      CODE     ---       #89
      00FF2A2EH   LINE      CODE     ---       #90
      00FF2A31H   LINE      CODE     ---       #91
      00FF2A33H   LINE      CODE     ---       #92
      ---         BLOCKEND  ---      ---       LVL=0

      00FF29F5H   BLOCK     CODE     ---       LVL=0
      00FF29F5H   LINE      CODE     ---       #95
      00FF29F5H   LINE      CODE     ---       #97
      00FF29F7H   LINE      CODE     ---       #98
      00FF29F9H   LINE      CODE     ---       #99
      00FF29FCH   LINE      CODE     ---       #100
      00FF29FEH   LINE      CODE     ---       #101
      00FF2A01H   LINE      CODE     ---       #102
      00FF2A03H   LINE      CODE     ---       #103
      ---         BLOCKEND  ---      ---       LVL=0

      00FF289FH   BLOCK     CODE     ---       LVL=0
      R15         REGSYM    ---      BYTE      ack_dat
      00FF289FH   LINE      CODE     ---       #108
      00FF28A3H   LINE      CODE     ---       #110
      00FF28A5H   LINE      CODE     ---       #111
      00FF28A8H   LINE      CODE     ---       #112
      00FF28B0H   LINE      CODE     ---       #113
      00FF28B2H   LINE      CODE     ---       #115
      00FF28B4H   LINE      CODE     ---       #116
      00FF28B7H   LINE      CODE     ---       #117
      00FF28B9H   LINE      CODE     ---       #118
      00FF28BCH   LINE      CODE     ---       #119
      ---         BLOCKEND  ---      ---       LVL=0

      00FF0026H   BLOCK     CODE     ---       LVL=0
      00FF0026H   LINE      CODE     ---       #122
      00FF0026H   LINE      CODE     ---       #124
L251 LINKER/LOCATER V4.66.93.0                                                        04/13/2024  20:03:07  PAGE 50


      00FF0028H   LINE      CODE     ---       #126
      00FF002BH   LINE      CODE     ---       #128
      00FF002DH   LINE      CODE     ---       #129
      00FF0030H   LINE      CODE     ---       #131
      00FF0033H   LINE      CODE     ---       #134
      00FF0035H   LINE      CODE     ---       #135
      00FF0038H   LINE      CODE     ---       #136
      00FF0038H   LINE      CODE     ---       #138
      00FF003AH   LINE      CODE     ---       #139
      00FF003DH   LINE      CODE     ---       #140
      00FF0041H   LINE      CODE     ---       #141
      ---         BLOCKEND  ---      ---       LVL=0

      00FF26C3H   BLOCK     CODE     ---       LVL=0
      R15         REGSYM    ---      BYTE      c
      00FF26C7H   BLOCK     CODE     NEAR LAB  LVL=1
      R14         REGSYM    ---      BYTE      i
      ---         BLOCKEND  ---      ---       LVL=1
      00FF26C3H   LINE      CODE     ---       #147
      00FF26C7H   LINE      CODE     ---       #148
      00FF26C7H   LINE      CODE     ---       #149
      00FF26CAH   LINE      CODE     ---       #150
      00FF26CCH   LINE      CODE     ---       #152
      00FF26D5H   LINE      CODE     ---       #153
      00FF26D7H   LINE      CODE     ---       #154
      00FF26D9H   LINE      CODE     ---       #155
      00FF26DCH   LINE      CODE     ---       #156
      00FF26DEH   LINE      CODE     ---       #157
      00FF26E1H   LINE      CODE     ---       #158
      00FF26E3H   LINE      CODE     ---       #159
      00FF26EBH   LINE      CODE     ---       #160
      00FF26EEH   LINE      CODE     ---       #161
      ---         BLOCKEND  ---      ---       LVL=0

      00FF25E6H   BLOCK     CODE     ---       LVL=0
      R15         REGSYM    ---      BYTE      ack_x
      00FF25ECH   BLOCK     CODE     NEAR LAB  LVL=1
      R13         REGSYM    ---      BYTE      i
      R14         REGSYM    ---      BYTE      c
      ---         BLOCKEND  ---      ---       LVL=1
      00FF25E6H   LINE      CODE     ---       #167
      00FF25ECH   LINE      CODE     ---       #168
      00FF25ECH   LINE      CODE     ---       #171
      00FF25EEH   LINE      CODE     ---       #172
      00FF25F0H   LINE      CODE     ---       #173
      00FF25F3H   LINE      CODE     ---       #174
      00FF25F5H   LINE      CODE     ---       #176
      00FF25F8H   LINE      CODE     ---       #178
      00FF25FBH   LINE      CODE     ---       #179
      00FF25FDH   LINE      CODE     ---       #180
      00FF2600H   LINE      CODE     ---       #181
      00FF2602H   LINE      CODE     ---       #182
      00FF2605H   LINE      CODE     ---       #183
      00FF2607H   LINE      CODE     ---       #184
      00FF260AH   LINE      CODE     ---       #186
      00FF260CH   LINE      CODE     ---       #187
      00FF2610H   LINE      CODE     ---       #190
      00FF2612H   LINE      CODE     ---       #191
      00FF2615H   LINE      CODE     ---       #192
      00FF261AH   LINE      CODE     ---       #194
      00FF261CH   LINE      CODE     ---       #195
      ---         BLOCKEND  ---      ---       LVL=0

      00FF265AH   BLOCK     CODE     ---       LVL=0
      0000035FH   SYMBOL    EDATA    BYTE      dev_add
L251 LINKER/LOCATER V4.66.93.0                                                        04/13/2024  20:03:07  PAGE 51


      00000360H   SYMBOL    EDATA    ---       dat
      DR12        REGSYM    ---      DWORD     len
      00FF265AH   LINE      CODE     ---       #207
      00FF2666H   LINE      CODE     ---       #209
      00FF2669H   LINE      CODE     ---       #210
      00FF266FH   LINE      CODE     ---       #211
      00FF2671H   LINE      CODE     ---       #213
      00FF2681H   LINE      CODE     ---       #214
      00FF2689H   LINE      CODE     ---       #217
      00FF268CH   LINE      CODE     ---       #218
      ---         BLOCKEND  ---      ---       LVL=0
      R13         REGSYM    ---      BYTE      dev_add
      R14         REGSYM    ---      BYTE      reg
      R15         REGSYM    ---      BYTE      dat
      R15         REGSYM    ---      BYTE      dev_add
      R14         REGSYM    ---      BYTE      reg
      R15         REGSYM    ---      BYTE      dat

      00FF22E1H   BLOCK     CODE     ---       LVL=0
      00000353H   SYMBOL    EDATA    BYTE      dev_add
      00000354H   SYMBOL    EDATA    BYTE      reg
      REG=3       REGSYM    ---      ---       dat_add
      00000355H   SYMBOL    EDATA    DWORD     num
      00FF22E1H   LINE      CODE     ---       #275
      00FF22EDH   LINE      CODE     ---       #277
      00FF22F0H   LINE      CODE     ---       #278
      00FF22F9H   LINE      CODE     ---       #279
      00FF2300H   LINE      CODE     ---       #282
      00FF2303H   LINE      CODE     ---       #283
      00FF230EH   LINE      CODE     ---       #284
      00FF2310H   LINE      CODE     ---       #286
      00FF2318H   LINE      CODE     ---       #287
      00FF231AH   LINE      CODE     ---       #288
      00FF2328H   LINE      CODE     ---       #289
      00FF232FH   LINE      CODE     ---       #290
      00FF2332H   LINE      CODE     ---       #291
      ---         BLOCKEND  ---      ---       LVL=0
      REG=3       REGSYM    ---      ---       dat_add
      REG=3       REGSYM    ---      ---       type_is_aperture

      00FF252FH   BLOCK     CODE     ---       LVL=0
      WR30        REGSYM    ---      WORD      timeout_period_mclks
      R5          REGSYM    ---      BYTE      vcsel_period_pclks
      00FF2531H   BLOCK     CODE     NEAR LAB  LVL=1
      DR24        REGSYM    ---      DWORD     macro_period_ns
      ---         BLOCKEND  ---      ---       LVL=1
      00FF252FH   LINE      CODE     ---       #419
      00FF2531H   LINE      CODE     ---       #420
      00FF2531H   LINE      CODE     ---       #421
      00FF2552H   LINE      CODE     ---       #423
      ---         BLOCKEND  ---      ---       LVL=0

      00FF25AAH   BLOCK     CODE     ---       LVL=0
      DR28        REGSYM    ---      DWORD     timeout_period_us
      R3          REGSYM    ---      BYTE      vcsel_period_pclks
      00FF25ACH   BLOCK     CODE     NEAR LAB  LVL=1
      DR8         REGSYM    ---      DWORD     macro_period_ns
      ---         BLOCKEND  ---      ---       LVL=1
      00FF25AAH   LINE      CODE     ---       #434
      00FF25ACH   LINE      CODE     ---       #435
      00FF25ACH   LINE      CODE     ---       #436
      00FF25CDH   LINE      CODE     ---       #438
      ---         BLOCKEND  ---      ---       LVL=0

      00FF2A06H   BLOCK     CODE     ---       LVL=0
L251 LINKER/LOCATER V4.66.93.0                                                        04/13/2024  20:03:07  PAGE 52


      WR4         REGSYM    ---      WORD      reg_val
      00FF2A06H   LINE      CODE     ---       #448
      00FF2A08H   LINE      CODE     ---       #451
      00FF2A15H   LINE      CODE     ---       #453
      ---         BLOCKEND  ---      ---       LVL=0

      00FF268FH   BLOCK     CODE     ---       LVL=0
      WR2         REGSYM    ---      WORD      timeout_mclks
      00FF2691H   BLOCK     CODE     NEAR LAB  LVL=1
      DR8         REGSYM    ---      DWORD     ls_byte
      WR4         REGSYM    ---      WORD      ms_byte
      WR6         REGSYM    ---      WORD      return_data
      ---         BLOCKEND  ---      ---       LVL=1
      00FF268FH   LINE      CODE     ---       #462
      00FF2691H   LINE      CODE     ---       #463
      00FF2691H   LINE      CODE     ---       #464
      00FF2691H   LINE      CODE     ---       #465
      00FF2695H   LINE      CODE     ---       #466
      00FF2695H   LINE      CODE     ---       #468
      00FF269BH   LINE      CODE     ---       #471
      00FF26A1H   LINE      CODE     ---       #472
      00FF26A3H   LINE      CODE     ---       #474
      00FF26ACH   LINE      CODE     ---       #475
      00FF26AEH   LINE      CODE     ---       #476
      00FF26B8H   LINE      CODE     ---       #477
      00FF26C2H   LINE      CODE     ---       #478
      00FF26C2H   LINE      CODE     ---       #479
      00FF26C2H   LINE      CODE     ---       #480
      ---         BLOCKEND  ---      ---       LVL=0

      00FF2235H   BLOCK     CODE     ---       LVL=0
      REG=3       REGSYM    ---      ---       enables
      00FF2239H   BLOCK     CODE     NEAR LAB  LVL=1
      00000382H   SYMBOL    EDATA    BYTE      sequence_config
      ---         BLOCKEND  ---      ---       LVL=1
      00FF2235H   LINE      CODE     ---       #489
      00FF2239H   LINE      CODE     ---       #490
      00FF2239H   LINE      CODE     ---       #491
      00FF223EH   LINE      CODE     ---       #492
      00FF224FH   LINE      CODE     ---       #494
      00FF2259H   LINE      CODE     ---       #495
      00FF2265H   LINE      CODE     ---       #496
      00FF2273H   LINE      CODE     ---       #497
      00FF227FH   LINE      CODE     ---       #498
      00FF228AH   LINE      CODE     ---       #499
      ---         BLOCKEND  ---      ---       LVL=0

      00FF2385H   BLOCK     CODE     ---       LVL=0
      WR6         REGSYM    ---      INT       type
      00000383H   SYMBOL    EDATA    BYTE      data_buffer
      00FF2385H   LINE      CODE     ---       #508
      00FF2385H   LINE      CODE     ---       #509
      00FF2385H   LINE      CODE     ---       #510
      00FF238AH   LINE      CODE     ---       #511
      00FF238EH   LINE      CODE     ---       #513
      00FF239BH   LINE      CODE     ---       #514
      00FF239BH   LINE      CODE     ---       #515
      00FF239DH   LINE      CODE     ---       #516
      00FF23A3H   LINE      CODE     ---       #518
      00FF23B7H   LINE      CODE     ---       #519
      00FF23C5H   LINE      CODE     ---       #520
      00FF23C7H   LINE      CODE     ---       #523
      00FF23CDH   LINE      CODE     ---       #524
      00FF23CDH   LINE      CODE     ---       #525
      00FF23D1H   LINE      CODE     ---       #526
L251 LINKER/LOCATER V4.66.93.0                                                        04/13/2024  20:03:07  PAGE 53


      ---         BLOCKEND  ---      ---       LVL=0

      00FF1EEDH   BLOCK     CODE     ---       LVL=0
      00000359H   SYMBOL    EDATA    ---       enables
      REG=3       REGSYM    ---      ---       timeouts
      00FF1EF5H   BLOCK     CODE     NEAR LAB  LVL=1
      0000035DH   SYMBOL    EDATA    ---       reg_buffer
      WR6         REGSYM    ---      WORD      reg16_buffer
      ---         BLOCKEND  ---      ---       LVL=1
      00FF1EEDH   LINE      CODE     ---       #536
      00FF1EF5H   LINE      CODE     ---       #537
      00FF1EF5H   LINE      CODE     ---       #539
      00FF1EF5H   LINE      CODE     ---       #541
      00FF1EFFH   LINE      CODE     ---       #543
      00FF1F13H   LINE      CODE     ---       #544
      00FF1F1FH   LINE      CODE     ---       #545
      00FF1F2DH   LINE      CODE     ---       #547
      00FF1F41H   LINE      CODE     ---       #548
      00FF1F4DH   LINE      CODE     ---       #549
      00FF1F54H   LINE      CODE     ---       #550
      00FF1F62H   LINE      CODE     ---       #552
      00FF1F6FH   LINE      CODE     ---       #554
      00FF1F83H   LINE      CODE     ---       #555
      00FF1F8FH   LINE      CODE     ---       #556
      00FF1F96H   LINE      CODE     ---       #558
      00FF1FA0H   LINE      CODE     ---       #560
      00FF1FB2H   LINE      CODE     ---       #561
      00FF1FB2H   LINE      CODE     ---       #563
      00FF1FC5H   LINE      CODE     ---       #564
      ---         BLOCKEND  ---      ---       LVL=0
      R10         REGSYM    ---      BYTE      vhv_init_byte
      R15         REGSYM    ---      BYTE      return_state
      DR12        REGSYM    ---      DWORD     budget_us
      WR6         REGSYM    ---      WORD      dat
      DR4         REGSYM    ---      DWORD     final_range_timeout_us
      WR6         REGSYM    ---      WORD      final_range_timeout_mclks
      DR12        REGSYM    ---      DWORD     budget_us
      DR4         REGSYM    ---      FLOAT     limit_mcps
      WR6         REGSYM    ---      WORD      limit_mcps_16bit
      R15         REGSYM    ---      BYTE      return_state
      R14         REGSYM    ---      BYTE      reg_data_buffer
      R13         REGSYM    ---      BYTE      i

      ---         MODULE    ---      ---       isr
      00FF256DH   PUBLIC    CODE     ---       UART1_Isr
      00FF291CH   PUBLIC    CODE     ---       UART2_Isr
      00FF293AH   PUBLIC    CODE     ---       UART3_Isr
      00FF216FH   PUBLIC    CODE     ---       UART4_Isr
      00FF0011H   PUBLIC    CODE     ---       INT0_Isr
      00FF0012H   PUBLIC    CODE     ---       INT1_Isr
      00FF2AA4H   PUBLIC    CODE     ---       INT2_Isr
      00FF2AACH   PUBLIC    CODE     ---       INT3_Isr
      00FF2AB4H   PUBLIC    CODE     ---       INT4_Isr
      00FF0019H   PUBLIC    CODE     ---       TM0_Isr
      00FF001AH   PUBLIC    CODE     ---       TM1_Isr
      00FF2ABCH   PUBLIC    CODE     ---       TM2_Isr
      00FF2AC4H   PUBLIC    CODE     ---       TM3_Isr
      00FF2A9AH   PUBLIC    CODE     ---       TM4_Isr
      000000D0H   SFRSYM    DATA     BYTE      PSW
      000000EFH   SFRSYM    DATA     BYTE      AUXINTIF
      000000FDH   SFRSYM    DATA     BYTE      S4CON
      000000ACH   SFRSYM    DATA     BYTE      S3CON
      0000009AH   SFRSYM    DATA     BYTE      S2CON
      000000C7H   SFRSYM    DATA     BYTE      IAP_CONTR
      00000088H   SFRSYM    DATA     BYTE      TCON
L251 LINKER/LOCATER V4.66.93.0                                                        04/13/2024  20:03:07  PAGE 54


      00000098H   SFRSYM    DATA     BYTE      SCON
      00000099H   SFRSYM    DATA     BYTE      SBUF
      000000B8H   SFRSYM    DATA     BYTE      IP
      000000A8H   SFRSYM    DATA     BYTE      IE
      000000F8H   SFRSYM    DATA     BYTE      P7
      000000E8H   SFRSYM    DATA     BYTE      P6
      000000C8H   SFRSYM    DATA     BYTE      P5
      000000C0H   SFRSYM    DATA     BYTE      P4
      000000B0H   SFRSYM    DATA     BYTE      P3
      000000A0H   SFRSYM    DATA     BYTE      P2
      00000090H   SFRSYM    DATA     BYTE      P1
      00000080H   SFRSYM    DATA     BYTE      P0

      00FF256DH   BLOCK     CODE     ---       LVL=0
      00FF2571H   BLOCK     CODE     NEAR LAB  LVL=1
      R11         REGSYM    ---      BYTE      res
      00000384H   SYMBOL    EDATA    BYTE      dwon_count
      ---         BLOCKEND  ---      ---       LVL=1
      00FF256DH   LINE      CODE     ---       #22
      00FF2571H   LINE      CODE     ---       #23
      00FF2571H   LINE      CODE     ---       #26
      00FF2576H   LINE      CODE     ---       #28
      00FF2579H   LINE      CODE     ---       #29
      00FF257EH   LINE      CODE     ---       #30
      00FF257EH   LINE      CODE     ---       #31
      00FF2583H   LINE      CODE     ---       #33
      00FF2586H   LINE      CODE     ---       #34
      00FF2588H   LINE      CODE     ---       #36
      00FF258BH   LINE      CODE     ---       #38
      00FF259BH   LINE      CODE     ---       #39
      00FF259EH   LINE      CODE     ---       #40
      00FF25A0H   LINE      CODE     ---       #43
      00FF25A5H   LINE      CODE     ---       #44
      00FF25A5H   LINE      CODE     ---       #45
      ---         BLOCKEND  ---      ---       LVL=0

      00FF291CH   BLOCK     CODE     ---       LVL=0
      00FF291CH   LINE      CODE     ---       #49
      00FF2920H   LINE      CODE     ---       #51
      00FF2925H   LINE      CODE     ---       #53
      00FF2928H   LINE      CODE     ---       #54
      00FF292DH   LINE      CODE     ---       #55
      00FF292DH   LINE      CODE     ---       #56
      00FF2932H   LINE      CODE     ---       #58
      00FF2935H   LINE      CODE     ---       #61
      ---         BLOCKEND  ---      ---       LVL=0

      00FF293AH   BLOCK     CODE     ---       LVL=0
      00FF293AH   LINE      CODE     ---       #66
      00FF293EH   LINE      CODE     ---       #68
      00FF2943H   LINE      CODE     ---       #70
      00FF2946H   LINE      CODE     ---       #71
      00FF294BH   LINE      CODE     ---       #72
      00FF294BH   LINE      CODE     ---       #73
      00FF2950H   LINE      CODE     ---       #75
      00FF2953H   LINE      CODE     ---       #78
      ---         BLOCKEND  ---      ---       LVL=0

      00FF216FH   BLOCK     CODE     ---       LVL=0
      00FF216FH   LINE      CODE     ---       #83
      00FF2187H   LINE      CODE     ---       #85
      00FF218CH   LINE      CODE     ---       #87
      00FF218FH   LINE      CODE     ---       #88
      00FF2194H   LINE      CODE     ---       #89
      00FF2194H   LINE      CODE     ---       #90
L251 LINKER/LOCATER V4.66.93.0                                                        04/13/2024  20:03:07  PAGE 55


      00FF2199H   LINE      CODE     ---       #92
      00FF219CH   LINE      CODE     ---       #95
      00FF21A6H   LINE      CODE     ---       #97
      00FF21A9H   LINE      CODE     ---       #98
      00FF21ABH   LINE      CODE     ---       #99
      00FF21B1H   LINE      CODE     ---       #101
      00FF21B4H   LINE      CODE     ---       #102
      00FF21B6H   LINE      CODE     ---       #103
      00FF21BCH   LINE      CODE     ---       #105
      00FF21BFH   LINE      CODE     ---       #106
      00FF21BFH   LINE      CODE     ---       #108
      ---         BLOCKEND  ---      ---       LVL=0

      00FF0011H   BLOCK     CODE     ---       LVL=0
      00FF0011H   LINE      CODE     ---       #112
      00FF0011H   LINE      CODE     ---       #116
      ---         BLOCKEND  ---      ---       LVL=0

      00FF0012H   BLOCK     CODE     ---       LVL=0
      00FF0012H   LINE      CODE     ---       #117
      00FF0012H   LINE      CODE     ---       #120
      ---         BLOCKEND  ---      ---       LVL=0

      00FF2AA4H   BLOCK     CODE     ---       LVL=0
      00FF2AA4H   LINE      CODE     ---       #121
      00FF2AA6H   LINE      CODE     ---       #123
      00FF2AA9H   LINE      CODE     ---       #124
      ---         BLOCKEND  ---      ---       LVL=0

      00FF2AACH   BLOCK     CODE     ---       LVL=0
      00FF2AACH   LINE      CODE     ---       #125
      00FF2AAEH   LINE      CODE     ---       #127
      00FF2AB1H   LINE      CODE     ---       #128
      ---         BLOCKEND  ---      ---       LVL=0

      00FF2AB4H   BLOCK     CODE     ---       LVL=0
      00FF2AB4H   LINE      CODE     ---       #130
      00FF2AB6H   LINE      CODE     ---       #132
      00FF2AB9H   LINE      CODE     ---       #133
      ---         BLOCKEND  ---      ---       LVL=0

      00FF0019H   BLOCK     CODE     ---       LVL=0
      00FF0019H   LINE      CODE     ---       #135
      00FF0019H   LINE      CODE     ---       #138
      ---         BLOCKEND  ---      ---       LVL=0

      00FF001AH   BLOCK     CODE     ---       LVL=0
      00FF001AH   LINE      CODE     ---       #139
      00FF001AH   LINE      CODE     ---       #142
      ---         BLOCKEND  ---      ---       LVL=0

      00FF2ABCH   BLOCK     CODE     ---       LVL=0
      00FF2ABCH   LINE      CODE     ---       #143
      00FF2ABEH   LINE      CODE     ---       #145
      00FF2AC1H   LINE      CODE     ---       #147
      ---         BLOCKEND  ---      ---       LVL=0

      00FF2AC4H   BLOCK     CODE     ---       LVL=0
      00FF2AC4H   LINE      CODE     ---       #148
      00FF2AC6H   LINE      CODE     ---       #150
      00FF2AC9H   LINE      CODE     ---       #152
      ---         BLOCKEND  ---      ---       LVL=0

      00FF2A9AH   BLOCK     CODE     ---       LVL=0
      00FF2A9AH   LINE      CODE     ---       #156
L251 LINKER/LOCATER V4.66.93.0                                                        04/13/2024  20:03:07  PAGE 56


      00FF2A9CH   LINE      CODE     ---       #158
      00FF2A9FH   LINE      CODE     ---       #160
      00FF2AA1H   LINE      CODE     ---       #161
      ---         BLOCKEND  ---      ---       LVL=0

      ---         MODULE    ---      ---       main
      00FF2A50H   PUBLIC    CODE     ---       main
      00000020H.0 PUBLIC    BIT      BIT       flag
      000002EEH   PUBLIC    EDATA    ---       PID_Servos
      000000D0H   SFRSYM    DATA     BYTE      PSW
      00000088H   SFRSYM    DATA     BYTE      TCON
      00000098H   SFRSYM    DATA     BYTE      SCON
      000000B8H   SFRSYM    DATA     BYTE      IP
      000000A8H   SFRSYM    DATA     BYTE      IE
      000000F8H   SFRSYM    DATA     BYTE      P7
      000000E8H   SFRSYM    DATA     BYTE      P6
      000000C8H   SFRSYM    DATA     BYTE      P5
      000000C0H   SFRSYM    DATA     BYTE      P4
      000000B0H   SFRSYM    DATA     BYTE      P3
      000000A0H   SFRSYM    DATA     BYTE      P2
      00000090H   SFRSYM    DATA     BYTE      P1
      00000080H   SFRSYM    DATA     BYTE      P0

      00FF2A50H   BLOCK     CODE     ---       LVL=0
      00FF2A50H   LINE      CODE     ---       #33
      00FF2A50H   LINE      CODE     ---       #35
      00FF2A53H   LINE      CODE     ---       #36
      00FF2A53H   LINE      CODE     ---       #39
      00FF2A59H   LINE      CODE     ---       #43
      00FF2A5BH   LINE      CODE     ---       #44
      ---         BLOCKEND  ---      ---       LVL=0

      ---         MODULE    ---      ---       init
      00FF241EH   PUBLIC    CODE     ---       Init_all
      000000D0H   SFRSYM    DATA     BYTE      PSW
      000000E9H   SFRSYM    DATA     BYTE      WTST
      00000088H   SFRSYM    DATA     BYTE      TCON
      00000098H   SFRSYM    DATA     BYTE      SCON
      000000B8H   SFRSYM    DATA     BYTE      IP
      000000A8H   SFRSYM    DATA     BYTE      IE
      000000F8H   SFRSYM    DATA     BYTE      P7
      000000E8H   SFRSYM    DATA     BYTE      P6
      000000C8H   SFRSYM    DATA     BYTE      P5
      000000C0H   SFRSYM    DATA     BYTE      P4
      000000B0H   SFRSYM    DATA     BYTE      P3
      000000A0H   SFRSYM    DATA     BYTE      P2
      00000090H   SFRSYM    DATA     BYTE      P1
      00000080H   SFRSYM    DATA     BYTE      P0

      00FF241EH   BLOCK     CODE     ---       LVL=0
      00FF241EH   LINE      CODE     ---       #6
      00FF241EH   LINE      CODE     ---       #8
      00FF2421H   LINE      CODE     ---       #9
      00FF2424H   LINE      CODE     ---       #10
      00FF2430H   LINE      CODE     ---       #11
      00FF2433H   LINE      CODE     ---       #13
      00FF243EH   LINE      CODE     ---       #18
      00FF245DH   LINE      CODE     ---       #20
      00FF2464H   LINE      CODE     ---       #22
      ---         BLOCKEND  ---      ---       LVL=0

      ---         MODULE    ---      ---       pid
      00FF21D8H   PUBLIC    CODE     ---       PID_Init
      00000374H   PUBLIC    EDATA    FLOAT     err_add
      0000032AH   PUBLIC    EDATA    BYTE      ?PID_Init?BYTE
L251 LINKER/LOCATER V4.66.93.0                                                        04/13/2024  20:03:07  PAGE 57


      000000D0H   SFRSYM    DATA     BYTE      PSW
      00000088H   SFRSYM    DATA     BYTE      TCON
      00000098H   SFRSYM    DATA     BYTE      SCON
      000000B8H   SFRSYM    DATA     BYTE      IP
      000000A8H   SFRSYM    DATA     BYTE      IE
      000000F8H   SFRSYM    DATA     BYTE      P7
      000000E8H   SFRSYM    DATA     BYTE      P6
      000000C8H   SFRSYM    DATA     BYTE      P5
      000000C0H   SFRSYM    DATA     BYTE      P4
      000000B0H   SFRSYM    DATA     BYTE      P3
      000000A0H   SFRSYM    DATA     BYTE      P2
      00000090H   SFRSYM    DATA     BYTE      P1
      00000080H   SFRSYM    DATA     BYTE      P0

      00FF21D8H   BLOCK     CODE     ---       LVL=0
      REG=2       REGSYM    ---      ---       PID_InitStruct
      DR4         REGSYM    ---      FLOAT     kp
      00000332H   SYMBOL    EDATA    FLOAT     ki
      00000336H   SYMBOL    EDATA    FLOAT     kd
      0000033AH   SYMBOL    EDATA    FLOAT     out_limit
      0000033EH   SYMBOL    EDATA    FLOAT     integral_limit
      00FF21D8H   LINE      CODE     ---       #9
      00FF21DAH   LINE      CODE     ---       #11
      00FF21E2H   LINE      CODE     ---       #12
      00FF21EEH   LINE      CODE     ---       #13
      00FF21FAH   LINE      CODE     ---       #14
      00FF2204H   LINE      CODE     ---       #15
      00FF220CH   LINE      CODE     ---       #16
      00FF2214H   LINE      CODE     ---       #17
      00FF221CH   LINE      CODE     ---       #18
      00FF2228H   LINE      CODE     ---       #19
      00FF2234H   LINE      CODE     ---       #20
      ---         BLOCKEND  ---      ---       LVL=0
      DR28        REGSYM    ---      FLOAT     value
      DR24        REGSYM    ---      FLOAT     limit
      REG=3       REGSYM    ---      ---       PID_InitStruct
      DR4         REGSYM    ---      FLOAT     deviation_expected
      REG=3       REGSYM    ---      ---       PID_InitStruct
      WR30        REGSYM    ---      INT       speed_expected
      WR8         REGSYM    ---      INT       speed_now

      ---         MODULE    ---      ---       ?C?FPADD
      00FF0EB4H   PUBLIC    CODE     ---       ?C?FPADD
      00FF0EB1H   PUBLIC    CODE     ---       ?C?FPSUB

      ---         MODULE    ---      ---       ?C?FPMUL
      00FF0F6CH   PUBLIC    CODE     ---       ?C?FPMUL

      ---         MODULE    ---      ---       ?C?FPDIV
      00FF100CH   PUBLIC    CODE     ---       ?C?FPDIV

      ---         MODULE    ---      ---       ?C?FPCMP
      00FF108FH   PUBLIC    CODE     ---       ?C?FPCMP
      00FF108DH   PUBLIC    CODE     ---       ?C?FPCMP3

      ---         MODULE    ---      ---       ?C?FPNEG
      00FF10D3H   PUBLIC    CODE     ---       ?C?FPNEG

      ---         MODULE    ---      ---       ?C?FCAST
      00FF10EBH   PUBLIC    CODE     NEAR LAB  ?C?FCASTC
      00FF10E6H   PUBLIC    CODE     NEAR LAB  ?C?FCASTI
      00FF10E1H   PUBLIC    CODE     NEAR LAB  ?C?FCASTL

      ---         MODULE    ---      ---       ?C?CASTF
      00FF111EH   PUBLIC    CODE     NEAR LAB  ?C?CASTF
L251 LINKER/LOCATER V4.66.93.0                                                        04/13/2024  20:03:07  PAGE 58



      ---         MODULE    ---      ---       PRINTF
      00FF115BH   PUBLIC    CODE     NEAR LAB  PRINTF

      ---         MODULE    ---      ---       ?C?FPGETOPN
      00FF1187H   PUBLIC    CODE     ---       ?C?FPGETOPN2
      00FF11C4H   PUBLIC    CODE     ---       ?C?FPNANRESULT
      00FF11CCH   PUBLIC    CODE     ---       ?C?FPOVERFLOW
      00FF11A0H   PUBLIC    CODE     ---       ?C?FPRESULT
      00FF11B6H   PUBLIC    CODE     ---       ?C?FPRESULT2
      00FF11C9H   PUBLIC    CODE     ---       ?C?FPUNDERFLOW

      ---         MODULE    ---      ---       ?C?PRNFMT
      00FF1205H   PUBLIC    CODE     ---       ?C?PRNFMT

      ---         MODULE    ---      ---       ?C?FPCONVERT
      00FF1622H   PUBLIC    CODE     ---       ?C?FPCONVERT
      00FF16DAH   PUBLIC    CODE     ---       ?C?FPROUND

      ---         MODULE    ---      ---       ?C?FTNPWR
      00FF174DH   PUBLIC    CODE     ---       ?C?FTNPWR

      ---         MODULE    ---      ---       ?C_START
      00FF0000H   PUBLIC    CODE     ---       ?C?STARTUP
      00FF0000H   PUBLIC    CODE     ---       ?C_STARTUP

      ---         MODULE    ---      ---       ?C?INITEDATA
      00FF2503H   PUBLIC    CODE     ---       ?C?INITEDATA

      ---         MODULE    ---      ---       ?C?SIDIV
      00FF1784H   PUBLIC    CODE     ---       ?C?SIDIV

      ---         MODULE    ---      ---       ?C?LMUL
      00FF17B6H   PUBLIC    CODE     ---       ?C?LMUL

      ---         MODULE    ---      ---       ?C?LIMUL
      00FF17C7H   PUBLIC    CODE     ---       ?C?LIMUL

      ---         MODULE    ---      ---       ?C?ULDIV
      00FF17D2H   PUBLIC    CODE     NEAR LAB  ?C?ULDIV
      00FF17D0H   PUBLIC    CODE     NEAR LAB  ?C?ULIDIV

      ---         MODULE    ---      ---       ?C?SLDIV
      00FF1823H   PUBLIC    CODE     NEAR LAB  ?C?SLDIV

      ---         MODULE    ---      ---       memcpy
      00FF2816H   PUBLIC    CODE     ---       memcpy?_

      ---         MODULE    ---      ---       memset

      ---         MODULE    ---      ---       ?C?INITEDATA_END
      00FF2B46H   PUBLIC    HCONST   WORD      ?C?INITEDATA_END

Program Size: data=8.1 edata+hdata=1148 xdata=0 const=172 code=10916
L251 RUN COMPLETE.  0 WARNING(S),  0 ERROR(S)
