L251 LINKER/LOCATER V4.66.93.0                                                          07/16/2023  18:44:38  PAGE 1


L251 LINKER/LOCATER V4.66.93.0, INVOKED BY:
D:\KEIL5\C251\BIN\L251.EXE .\Out_File\board.obj, .\Out_File\common.obj, .\Out_File\SEEKFREE_PRINTF.obj, .\Out_File\zf_ad
>> c.obj, .\Out_File\zf_delay.obj, .\Out_File\zf_eeprom.obj, .\Out_File\zf_exti.obj, .\Out_File\zf_gpio.obj, .\Out_File\
>> zf_iic.obj, .\Out_File\zf_nvic.obj, .\Out_File\zf_pwm.obj, .\Out_File\zf_spi.obj, .\Out_File\zf_tim.obj, .\Out_File\z
>> f_uart.obj, .\Out_File\zf_fifo.obj, .\Out_File\SEEKFREE_18TFT.obj, .\Out_File\SEEKFREE_ABSOLUTE_ENCODER.obj, .\Out_Fi
>> le\SEEKFREE_FONT.obj, .\Out_File\SEEKFREE_ICM20602.obj, .\Out_File\SEEKFREE_IIC.obj, .\Out_File\SEEKFREE_IPS114_SPI.o
>> bj, .\Out_File\SEEKFREE_MPU6050.obj, .\Out_File\SEEKFREE_OLED.obj, .\Out_File\SEEKFREE_TSL1401.obj, .\Out_File\SEEKFR
>> EE_VIRSCO.obj, .\Out_File\SEEKFREE_WIRELESS.obj, .\Out_File\SEEKFREE_AT24C02.obj, .\Out_File\SEEKFREE_BLUETOOTH_CH914
>> 1.obj, .\Out_File\SEEKFREE_WIRELESS_CH573.obj, .\Out_File\SEEKFREE_VL53L0X.obj, .\Out_File\isr.obj, .\Out_File\main.o
>> bj, .\Out_File\init.obj, .\Out_File\move.obj, .\Out_File\pid.obj, .\Out_File\sensor.obj, .\Out_File\barrier.obj, .\Ou
>> t_File\garage.obj, .\Out_File\circle.obj TO .\Out_File\SEEKFREE PRINT (.\Out_File\SEEKFREE.map) CASE DISABLEWARNING (
>> 16, 57) REMOVEUNUSED CLASSES (EDATA (0X0-0XFFF), HDATA (0X0-0XFFF))


CPU MODE:     251 SOURCE MODE
INTR FRAME:   2 BYTES SAVED ON INTERRUPT
MEMORY MODEL: XSMALL WITH FLOATING POINT ARITHMETIC


INPUT MODULES INCLUDED:
  .\Out_File\board.obj (board)
         COMMENT TYPE 0: C251 V5.60.0
  .\Out_File\common.obj (common)
         COMMENT TYPE 0: C251 V5.60.0
  .\Out_File\SEEKFREE_PRINTF.obj (SEEKFREE_PRINTF)
         COMMENT TYPE 0: C251 V5.60.0
  .\Out_File\zf_adc.obj (zf_adc)
         COMMENT TYPE 0: C251 V5.60.0
  .\Out_File\zf_delay.obj (zf_delay)
         COMMENT TYPE 0: C251 V5.60.0
  .\Out_File\zf_eeprom.obj (zf_eeprom)
         COMMENT TYPE 0: C251 V5.60.0
  .\Out_File\zf_exti.obj (zf_exti)
         COMMENT TYPE 0: C251 V5.60.0
  .\Out_File\zf_gpio.obj (zf_gpio)
         COMMENT TYPE 0: C251 V5.60.0
  .\Out_File\zf_iic.obj (zf_iic)
         COMMENT TYPE 0: C251 V5.60.0
  .\Out_File\zf_nvic.obj (zf_nvic)
         COMMENT TYPE 0: C251 V5.60.0
  .\Out_File\zf_pwm.obj (zf_pwm)
         COMMENT TYPE 0: C251 V5.60.0
  .\Out_File\zf_spi.obj (zf_spi)
         COMMENT TYPE 0: C251 V5.60.0
  .\Out_File\zf_tim.obj (zf_tim)
         COMMENT TYPE 0: C251 V5.60.0
  .\Out_File\zf_uart.obj (zf_uart)
         COMMENT TYPE 0: C251 V5.60.0
  .\Out_File\zf_fifo.obj (zf_fifo)
         COMMENT TYPE 0: C251 V5.60.0
  .\Out_File\SEEKFREE_18TFT.obj (SEEKFREE_18TFT)
         COMMENT TYPE 0: C251 V5.60.0
  .\Out_File\SEEKFREE_ABSOLUTE_ENCODER.obj (SEEKFREE_ABSOLUTE_ENCODER)
         COMMENT TYPE 0: C251 V5.60.0
  .\Out_File\SEEKFREE_FONT.obj (SEEKFREE_FONT)
         COMMENT TYPE 0: C251 V5.60.0
  .\Out_File\SEEKFREE_ICM20602.obj (SEEKFREE_ICM20602)
         COMMENT TYPE 0: C251 V5.60.0
  .\Out_File\SEEKFREE_IIC.obj (SEEKFREE_IIC)
         COMMENT TYPE 0: C251 V5.60.0
  .\Out_File\SEEKFREE_IPS114_SPI.obj (SEEKFREE_IPS114_SPI)
         COMMENT TYPE 0: C251 V5.60.0
  .\Out_File\SEEKFREE_MPU6050.obj (SEEKFREE_MPU6050)
         COMMENT TYPE 0: C251 V5.60.0
  .\Out_File\SEEKFREE_OLED.obj (SEEKFREE_OLED)
         COMMENT TYPE 0: C251 V5.60.0
L251 LINKER/LOCATER V4.66.93.0                                                        07/16/2023  18:44:38  PAGE 2


  .\Out_File\SEEKFREE_TSL1401.obj (SEEKFREE_TSL1401)
         COMMENT TYPE 0: C251 V5.60.0
  .\Out_File\SEEKFREE_VIRSCO.obj (SEEKFREE_VIRSCO)
         COMMENT TYPE 0: C251 V5.60.0
  .\Out_File\SEEKFREE_WIRELESS.obj (SEEKFREE_WIRELESS)
         COMMENT TYPE 0: C251 V5.60.0
  .\Out_File\SEEKFREE_AT24C02.obj (SEEKFREE_AT24C02)
         COMMENT TYPE 0: C251 V5.60.0
  .\Out_File\SEEKFREE_BLUETOOTH_CH9141.obj (SEEKFREE_BLUETOOTH_CH9141)
         COMMENT TYPE 0: C251 V5.60.0
  .\Out_File\SEEKFREE_WIRELESS_CH573.obj (SEEKFREE_WIRELESS_CH573)
         COMMENT TYPE 0: C251 V5.60.0
  .\Out_File\SEEKFREE_VL53L0X.obj (SEEKFREE_VL53L0X)
         COMMENT TYPE 0: C251 V5.60.0
  .\Out_File\isr.obj (isr)
         COMMENT TYPE 0: C251 V5.60.0
  .\Out_File\main.obj (main)
         COMMENT TYPE 0: C251 V5.60.0
  .\Out_File\init.obj (init)
         COMMENT TYPE 0: C251 V5.60.0
  .\Out_File\move.obj (move)
         COMMENT TYPE 0: C251 V5.60.0
  .\Out_File\pid.obj (pid)
         COMMENT TYPE 0: C251 V5.60.0
  .\Out_File\sensor.obj (sensor)
         COMMENT TYPE 0: C251 V5.60.0
  .\Out_File\barrier.obj (barrier)
         COMMENT TYPE 0: C251 V5.60.0
  .\Out_File\garage.obj (garage)
         COMMENT TYPE 0: C251 V5.60.0
  .\Out_File\circle.obj (circle)
         COMMENT TYPE 0: C251 V5.60.0
  D:\KEIL5\C251\LIB\C2SFPXS.LIB (?C?FPADD)
         COMMENT TYPE 0: A251 V4.69.6.0
  D:\KEIL5\C251\LIB\C2SFPXS.LIB (?C?FPMUL)
         COMMENT TYPE 0: A251 V4.69.6.0
  D:\KEIL5\C251\LIB\C2SFPXS.LIB (?C?FPDIV)
         COMMENT TYPE 0: A251 V4.69.6.0
  D:\KEIL5\C251\LIB\C2SFPXS.LIB (?C?FPCMP)
         COMMENT TYPE 0: A251 V4.69.6.0
  D:\KEIL5\C251\LIB\C2SFPXS.LIB (?C?FPNEG)
         COMMENT TYPE 0: A251 V4.69.6.0
  D:\KEIL5\C251\LIB\C2SFPXS.LIB (?C?FCAST)
         COMMENT TYPE 0: A251 V4.69.6.0
  D:\KEIL5\C251\LIB\C2SFPXS.LIB (?C?CASTF)
         COMMENT TYPE 0: A251 V4.69.6.0
  D:\KEIL5\C251\LIB\C2SFPXS.LIB (PRINTF)
         COMMENT TYPE 0: A251 V4.69.6.0
  D:\KEIL5\C251\LIB\C2SFPXS.LIB (?C?FPGETOPN)
         COMMENT TYPE 0: A251 V4.69.6.0
  D:\KEIL5\C251\LIB\C2SFPXS.LIB (?C?PRNFMT)
         COMMENT TYPE 0: A251 V4.69.6.0
  D:\KEIL5\C251\LIB\C2SFPXS.LIB (?C?FPCONVERT)
         COMMENT TYPE 0: A251 V4.69.6.0
  D:\KEIL5\C251\LIB\C2SFPXS.LIB (?C?FTNPWR)
         COMMENT TYPE 0: A251 V4.69.6.0
  D:\KEIL5\C251\LIB\C2SXS.LIB (?C_START)
         COMMENT TYPE 0: A251 V4.69.6.0
  D:\KEIL5\C251\LIB\C2SXS.LIB (?C?INITEDATA)
         COMMENT TYPE 0: A251 V4.69.6.0
  D:\KEIL5\C251\LIB\C2SXS.LIB (?C?SIDIV)
         COMMENT TYPE 0: A251 V4.69.6.0
  D:\KEIL5\C251\LIB\C2SXS.LIB (?C?LMUL)
         COMMENT TYPE 0: A251 V4.69.6.0
  D:\KEIL5\C251\LIB\C2SXS.LIB (?C?LIMUL)
L251 LINKER/LOCATER V4.66.93.0                                                        07/16/2023  18:44:38  PAGE 3


         COMMENT TYPE 0: A251 V4.69.6.0
  D:\KEIL5\C251\LIB\C2SXS.LIB (?C?ULDIV)
         COMMENT TYPE 0: A251 V4.69.6.0
  D:\KEIL5\C251\LIB\C2SXS.LIB (?C?SLDIV)
         COMMENT TYPE 0: A251 V4.69.6.0
  D:\KEIL5\C251\LIB\C2SXS.LIB (memcpy)
         COMMENT TYPE 0: C251 V5.58.7
  D:\KEIL5\C251\LIB\C2SXS.LIB (memset)
         COMMENT TYPE 0: C251 V5.58.7
  D:\KEIL5\C251\LIB\C2SXS.LIB (?C?INITEDATA_END)
         COMMENT TYPE 0: A251 V4.69.6.0


ACTIVE MEMORY CLASSES OF MODULE:  .\Out_File\SEEKFREE (board)

BASE        START       END         USED      MEMORY CLASS
==========================================================
000000H     000000H     000FFFH     00055FH   EDATA
000000H     000000H     000FFFH               HDATA
FF0000H     FF0000H     FFFFFFH     003FB3H   CODE
000000H     FF0000H     FFFFFFH     000125H   HCONST
000020H.0   000020H.0   00002FH.7   000001H.6 BIT
FF0000H     FF0000H     FFFFFFH     000004H   CONST
000000H     000000H     00007FH     000008H   DATA


MEMORY MAP OF MODULE:  .\Out_File\SEEKFREE (board)


START     STOP      LENGTH    ALIGN  RELOC    MEMORY CLASS   SEGMENT NAME
=========================================================================
000000H   000007H   000008H   ---    AT..     DATA           "REG BANK 0"
000008H   000013H   00000CH   BYTE   UNIT     EDATA          ?ED?SEEKFREE_ICM20602
000014H   00001FH   00000CH   BYTE   UNIT     EDATA          ?ED?SEEKFREE_MPU6050
000020H.0 000020H.6 000000H.7 BIT    UNIT     BIT            ?BI?MAIN
000020H.7 000021H.2 000000H.4 BIT    UNIT     BIT            ?BI?BARRIER
000021H.3 000021H.5 000000H.3 BIT    UNIT     BIT            ?BI?CIRCLE
000021H.6 000021H   000000H.2 ---    ---      **GAP**
000022H   000122H   000101H   BYTE   UNIT     EDATA          ?ED?SEEKFREE_TSL1401
000123H   0001EFH   0000CDH   BYTE   UNIT     EDATA          ?ED?ZF_UART
0001F0H   00029FH   0000B0H   BYTE   UNIT     EDATA          ?ED?MAIN
0002A0H   0002F9H   00005AH   BYTE   UNIT     EDATA          ?ED?SENSOR
0002FAH   00034EH   000055H   BYTE   UNIT     EDATA          ?ED?SEEKFREE_WIRELESS
00034FH   0003A3H   000055H   BYTE   UNIT     EDATA          ?ED?SEEKFREE_BLUETOOTH_CH9141
0003A4H   0003F8H   000055H   BYTE   UNIT     EDATA          ?ED?SEEKFREE_WIRELESS_CH573
0003F9H   000414H   00001CH   BYTE   UNIT     EDATA          _EDATA_GROUP_
000415H   00041EH   00000AH   BYTE   UNIT     EDATA          ?ED?SEEKFREE_VIRSCO
00041FH   000426H   000008H   BYTE   UNIT     EDATA          ?ED?BARRIER
000427H   00042DH   000007H   BYTE   UNIT     EDATA          ?ED?SEEKFREE_IIC
00042EH   000433H   000006H   BYTE   UNIT     EDATA          ?ED?VL53L0X_SIMIIC_READ_REGS?SEEKFREE_VL53L0X
000434H   000439H   000006H   BYTE   UNIT     EDATA          ?ED?VL53L0X_GET_SEQUENCE_STEP_TIMEOUTS?SEEKFREE_VL53L0X
00043AH   00043EH   000005H   BYTE   UNIT     EDATA          ?ED?SIMIIC_READ_REGS?SEEKFREE_IIC
00043FH   000443H   000005H   BYTE   UNIT     EDATA          ?ED?VL53L0X_SIMIIC_WRITE_DATS?SEEKFREE_VL53L0X
000444H   000447H   000004H   BYTE   UNIT     EDATA          ?ED?BOARD
000448H   00044BH   000004H   BYTE   UNIT     EDATA          ?ED?ZF_DELAY
00044CH   00044FH   000004H   BYTE   UNIT     EDATA          ?ED?LCD_SET_REGION_SIMSPI?SEEKFREE_18TFT
000450H   000453H   000004H   BYTE   UNIT     EDATA          ?ED?LCD_SET_REGION?SEEKFREE_18TFT
000454H   000457H   000004H   BYTE   UNIT     EDATA          ?ED?MOVE
000458H   00045BH   000004H   BYTE   UNIT     EDATA          ?ED?PID
00045CH   00045EH   000003H   BYTE   UNIT     EDATA          ?ED?SEEKFREE_VL53L0X
00045FH   000460H   000002H   BYTE   UNIT     EDATA          ?ED?COMMON
000461H   000462H   000002H   BYTE   UNIT     EDATA          ?ED?LCD_WRITEDATA_16BIT?SEEKFREE_18TFT
000463H   000464H   000002H   BYTE   UNIT     EDATA          ?ED?IPS114_WRITEDATA_16BIT?SEEKFREE_IPS114_SPI
000465H   000465H   000001H   BYTE   UNIT     EDATA          ?ED?NUMBER_CONVERSION_ASCII?SEEKFREE_PRINTF
000466H   000466H   000001H   BYTE   UNIT     EDATA          ?ED?VL53L0X_GET_SEQUENCE_STEP_ENABLES?SEEKFREE_VL53L0X
L251 LINKER/LOCATER V4.66.93.0                                                        07/16/2023  18:44:38  PAGE 4


000467H   000467H   000001H   BYTE   UNIT     EDATA          ?ED?VL53L0X_GET_VCSEL_PULSE_PERIOD?SEEKFREE_VL53L0X
000468H   000468H   000001H   BYTE   UNIT     EDATA          ?ED?ISR
000469H   000568H   000100H   BYTE   UNIT     EDATA          ?STACK
000569H   FEFFFFH   FEFA97H   ---    ---      **GAP**
FF0000H   FF0002H   000003H   ---    OFFS..   CODE           ?CO?start251?4
FF0003H   FF0005H   000003H   ---    OFFS..   CODE           ?PR?IV?0
FF0006H   FF000AH   000005H   BYTE   INSEG    CODE           ?PR?ENCODER_DELAY_US?SEEKFREE_ABSOLUTE_ENCODER
FF000BH   FF000DH   000003H   ---    OFFS..   CODE           ?PR?IV?1
FF000EH   FF0010H   000003H   BYTE   INSEG    CODE           ?PR?ENABLEGLOBALIRQ?BOARD
FF0011H   FF0011H   000001H   BYTE   INSEG    CODE           ?PR?INT0_ISR?ISR
FF0012H   FF0012H   000001H   BYTE   INSEG    CODE           ?PR?INT1_ISR?ISR
FF0013H   FF0015H   000003H   ---    OFFS..   CODE           ?PR?IV?2
FF0016H   FF0018H   000003H   BYTE   INSEG    CODE           ?PR?DISABLEGLOBALIRQ?BOARD
FF0019H   FF0019H   000001H   BYTE   INSEG    CODE           ?PR?TM0_ISR?ISR
FF001AH   FF001AH   000001H   BYTE   INSEG    CODE           ?PR?TM1_ISR?ISR
FF001BH   FF001DH   000003H   ---    OFFS..   CODE           ?PR?IV?3
FF001EH   FF0021H   000004H   BYTE   UNIT     CONST          ?CO?PRINTF
FF0022H   FF0022H   000001H   ---    ---      **GAP**
FF0023H   FF0025H   000003H   ---    OFFS..   CODE           ?PR?IV?4
FF0026H   FF0041H   00001CH   BYTE   INSEG    CODE           ?PR?SCCB_WAITACK?SEEKFREE_IIC
FF0042H   FF0042H   000001H   ---    ---      **GAP**
FF0043H   FF0045H   000003H   ---    OFFS..   CODE           ?PR?IV?8
FF0046H   FF0052H   00000DH   BYTE   INSEG    CODE           ?PR?VL53L0X_SIMIIC_DELAY?SEEKFREE_VL53L0X
FF0053H   FF0055H   000003H   ---    OFFS..   CODE           ?PR?IV?10
FF0056H   FF005AH   000005H   ---    ---      **GAP**
FF005BH   FF005DH   000003H   ---    OFFS..   CODE           ?PR?IV?11
FF005EH   FF0062H   000005H   ---    ---      **GAP**
FF0063H   FF0065H   000003H   ---    OFFS..   CODE           ?PR?IV?12
FF0066H   FF0081H   00001CH   BYTE   INSEG    CODE           ?PR?VL53L0X_SCCB_WAITACK?SEEKFREE_VL53L0X
FF0082H   FF0082H   000001H   ---    ---      **GAP**
FF0083H   FF0085H   000003H   ---    OFFS..   CODE           ?PR?IV?16
FF0086H   FF008AH   000005H   ---    ---      **GAP**
FF008BH   FF008DH   000003H   ---    OFFS..   CODE           ?PR?IV?17
FF008EH   FF0092H   000005H   ---    ---      **GAP**
FF0093H   FF0095H   000003H   ---    OFFS..   CODE           ?PR?IV?18
FF0096H   FF009AH   000005H   ---    ---      **GAP**
FF009BH   FF009DH   000003H   ---    OFFS..   CODE           ?PR?IV?19
FF009EH   FF00A2H   000005H   ---    ---      **GAP**
FF00A3H   FF00A5H   000003H   ---    OFFS..   CODE           ?PR?IV?20
FF00A6H   FF0EADH   000E08H   BYTE   UNIT     CODE           ?CO?SEEKFREE_FONT
FF0EAEH   FF1856H   0009A9H   BYTE   UNIT     CODE           ?C?LIB_CODE
FF1857H   FF1C4DH   0003F7H   BYTE   INSEG    CODE           ?PR?GPIO_MODE?ZF_GPIO
FF1C4EH   FF1F31H   0002E4H   BYTE   INSEG    CODE           ?PR?PWM_INIT?ZF_PWM
FF1F32H   FF21D2H   0002A1H   BYTE   INSEG    CODE           ?PR?PWM_SET_GPIO?ZF_PWM
FF21D3H   FF2391H   0001BFH   BYTE   INSEG    CODE           ?PR?UART_INIT?ZF_UART
FF2392H   FF251AH   000189H   BYTE   INSEG    CODE           ?PR?PID_CALC_INCREMENTAL?PID
FF251BH   FF2672H   000158H   BYTE   INSEG    CODE           ?PR?ADC_READ?SENSOR
FF2673H   FF27C9H   000157H   BYTE   INSEG    CODE           ?PR?POS_DEVIATION?SENSOR
FF27CAH   FF28FCH   000133H   BYTE   INSEG    CODE           ?PR?INIT_ALL?INIT
FF28FDH   FF2A22H   000126H   BYTE   INSEG    CODE           ?PR?SERVOS_CONTROL?SENSOR
FF2A23H   FF2B29H   000107H   BYTE   INSEG    CODE           ?PR?PID_CALC_POSITIONAL?PID
FF2B2AH   FF2C2EH   000105H   BYTE   INSEG    CODE           ?PR?CIRCLE_MOVE?CIRCLE
FF2C2FH   FF2D2EH   000100H   BYTE   INSEG    CODE           ?PR?GARAGE_IN?GARAGE
FF2D2FH   FF2E0EH   0000E0H   BYTE   INSEG    CODE           ?PR?FIFO_WRITE_BUFFER?ZF_FIFO
FF2E0FH   FF2EE9H   0000DBH   BYTE   INSEG    CODE           ?PR?VL53L0X_GET_SEQUENCE_STEP_TIMEOUTS?SEEKFREE_VL53L0X
FF2EEAH   FF2FA1H   0000B8H   BYTE   INSEG    CODE           ?PR?PWM_DUTY?ZF_PWM
FF2FA2H   FF3054H   0000B3H   BYTE   INSEG    CODE           ?PR?CIRCLE_JUDGE?CIRCLE
FF3055H   FF30E8H   000094H   BYTE   INSEG    CODE           ?PR?PIT_TIMER_MS?ZF_TIM
FF30E9H   FF317AH   000092H   BYTE   INSEG    CODE           ?PR?NUMBER_CONVERSION_ASCII?SEEKFREE_PRINTF
FF317BH   FF31FBH   000081H   BYTE   INSEG    CODE           ?PR?BOARD_INIT?BOARD
FF31FCH   FF3264H   000069H   BYTE   INSEG    CODE           ?PR?UART4_ISR?ISR
FF3265H   FF32CAH   000066H   BYTE   INSEG    CODE           ?PR?SIMIIC_READ_REGS?SEEKFREE_IIC
FF32CBH   FF3328H   00005EH   BYTE   INSEG    CODE           ?PR?ADC_INIT?ZF_ADC
FF3329H   FF3385H   00005DH   BYTE   INSEG    CODE           ?PR?PID_INIT?PID
FF3386H   FF3398H   000013H   BYTE   UNIT     CODE           ?C_C51STARTUP
L251 LINKER/LOCATER V4.66.93.0                                                        07/16/2023  18:44:38  PAGE 5


FF3399H   FF33B4H   00001CH   BYTE   UNIT     CODE           ?C_C51STARTUP?1
FF33B5H   FF33DDH   000029H   BYTE   UNIT     CODE           ?C_C51STARTUP?2
FF33DEH   FF33E0H   000003H   BYTE   UNIT     CODE           ?C_C51STARTUP?3
FF33E1H   FF3438H   000058H   BYTE   INSEG    CODE           ?PR?VL53L0X_GET_SEQUENCE_STEP_ENABLES?SEEKFREE_VL53L0X
FF3439H   FF3490H   000058H   BYTE   INSEG    CODE           ?PR?MAIN?MAIN
FF3491H   FF34E5H   000055H   BYTE   INSEG    CODE           ?PR?MPU6050_INIT?SEEKFREE_MPU6050
FF34E6H   FF3539H   000054H   BYTE   INSEG    CODE           ?PR?UART_PUTCHAR?ZF_UART
FF353AH   FF358DH   000054H   BYTE   INSEG    CODE           ?PR?VL53L0X_SIMIIC_READ_REGS?SEEKFREE_VL53L0X
FF358EH   FF35E0H   000053H   BYTE   INSEG    CODE           ?PR?GARAGE_OUT?GARAGE
FF35E1H   FF3631H   000051H   BYTE   INSEG    CODE           ?PR?CTIMER_COUNT_CLEAN?ZF_TIM
FF3632H   FF3681H   000050H   BYTE   INSEG    CODE           ?PR?LCD_SET_REGION?SEEKFREE_18TFT
FF3682H   FF36D0H   00004FH   BYTE   INSEG    CODE           ?PR?SPEEDCONTROL?MOVE
FF36D1H   FF371DH   00004DH   BYTE   INSEG    CODE           ?PR?CTIMER_COUNT_READ?ZF_TIM
FF371EH   FF376AH   00004DH   BYTE   INSEG    CODE           ?PR?VL53L0X_GET_VCSEL_PULSE_PERIOD?SEEKFREE_VL53L0X
FF376BH   FF37B6H   00004CH   BYTE   INSEG    CODE           ?PR?LCD_SET_REGION_SIMSPI?SEEKFREE_18TFT
FF37B7H   FF3800H   00004AH   BYTE   INSEG    CODE           ?PR?CTIMER_COUNT_INIT?ZF_TIM
FF3801H   FF3845H   000045H   BYTE   INSEG    CODE           ?PR?WAIT?ZF_IIC
FF3846H   FF3887H   000042H   BYTE   INSEG    CODE           ?PR?FIFO_HEAD_OFFSET?ZF_FIFO
FF3888H   FF38C5H   00003EH   BYTE   INSEG    CODE           ?PR?VL53L0X_TIMEOUT_MCLKS_TO_MICROSECONDS?SEEKFREE_VL53L0X
FF38C6H   FF3902H   00003DH   BYTE   INSEG    CODE           ?PR?UART1_ISR?ISR
FF3903H   FF393EH   00003CH   BYTE   INSEG    CODE           ?PR?VL53L0X_TIMEOUT_MICROSECONDS_TO_MCLKS?SEEKFREE_VL53L0X
FF393FH   FF3979H   00003BH   BYTE   INSEG    CODE           ?PR?READ_CH?SEEKFREE_IIC
FF397AH   FF39B4H   00003BH   BYTE   INSEG    CODE           ?PR?VL53L0X_READ_CH?SEEKFREE_VL53L0X
FF39B5H   FF39EDH   000039H   BYTE   INSEG    CODE           ?PR?DELAY_INIT?ZF_DELAY
FF39EEH   FF3A25H   000038H   BYTE   INSEG    CODE           ?PR?GETSPEED?MOVE
FF3A26H   FF3A5AH   000035H   BYTE   INSEG    CODE           ?PR?VL53L0X_SIMIIC_WRITE_DATS?SEEKFREE_VL53L0X
FF3A5BH   FF3A8FH   000035H   BYTE   INSEG    CODE           ?PR?TM4_ISR?ISR
FF3A90H   FF3AC3H   000034H   BYTE   INSEG    CODE           ?PR?SIMIIC_READ_REG?SEEKFREE_IIC
FF3AC4H   FF3AF7H   000034H   BYTE   INSEG    CODE           ?PR?VL53L0X_ENCODE_TIMEOUT?SEEKFREE_VL53L0X
FF3AF8H   FF3B25H   00002EH   BYTE   INSEG    CODE           ?PR?ADC_ONCE?ZF_ADC
FF3B26H   FF3B53H   00002EH   BYTE   INSEG    CODE           ?PR?SEND_CH?SEEKFREE_IIC
FF3B54H   FF3B81H   00002EH   BYTE   INSEG    CODE           ?PR?VL53L0X_SEND_CH?SEEKFREE_VL53L0X
FF3B82H   FF3BADH   00002CH   BYTE   INSEG    CODE           ?PR?LCD_WRITEDATA_16BIT_SIMSPI?SEEKFREE_18TFT
FF3BAEH   FF3BD9H   00002CH   BYTE   INSEG    CODE           ?PR?IPS114_WRITEDATAI_16BIT_SIMSPI?SEEKFREE_IPS114_SPI
FF3BDAH   FF3C05H   00002CH   BYTE   INSEG    CODE           ?PR?MPU6050_SELF1_CHECK?SEEKFREE_MPU6050
FF3C06H   FF3C30H   00002BH   BYTE   INSEG    CODE           ?PR?LIMIT?PID
FF3C31H   FF3C59H   000029H   BYTE   INSEG    CODE           ?PR?LCD_WRITEINDEX_SIMSPI?SEEKFREE_18TFT
FF3C5AH   FF3C82H   000029H   BYTE   INSEG    CODE           ?PR?LCD_WRITEDATA_SIMSPI?SEEKFREE_18TFT
FF3C83H   FF3CABH   000029H   BYTE   INSEG    CODE           ?PR?IPS114_WRITEINDEX_SIMSPI?SEEKFREE_IPS114_SPI
FF3CACH   FF3CD4H   000029H   BYTE   INSEG    CODE           ?PR?OLED_WRCMD?SEEKFREE_OLED
FF3CD5H   FF3CFDH   000029H   BYTE   INSEG    CODE           ?PR?OLED_WRDAT?SEEKFREE_OLED
FF3CFEH   FF3D22H   000025H   BYTE   INSEG    CODE           ?PR?MEMCPY?_?MEMCPY
FF3D23H   FF3D45H   000023H   BYTE   INSEG    CODE           ?PR?OLED_SET_POS?SEEKFREE_OLED
FF3D46H   FF3D67H   000022H   BYTE   INSEG    CODE           ?PR?SIMIIC_WRITE_REG?SEEKFREE_IIC
FF3D68H   FF3D88H   000021H   BYTE   INSEG    CODE           ?PR?OLED_SET_POS_SPI?SEEKFREE_OLED
FF3D89H   FF3DA8H   000020H   BYTE   INSEG    CODE           ?PR?SIMIIC_SENDACK?SEEKFREE_IIC
FF3DA9H   FF3DC8H   000020H   BYTE   INSEG    CODE           ?PR?VL53L0X_SIMIIC_SENDACK?SEEKFREE_VL53L0X
FF3DC9H   FF3DE7H   00001FH   BYTE   INSEG    CODE           ?PR?LCD_WRITEDATA_16BIT?SEEKFREE_18TFT
FF3DE8H   FF3E06H   00001FH   BYTE   INSEG    CODE           ?PR?ICM_SIMSPI_WR_BYTE?SEEKFREE_ICM20602
FF3E07H   FF3E25H   00001FH   BYTE   INSEG    CODE           ?PR?IPS114_WRITEDATA_16BIT?SEEKFREE_IPS114_SPI
FF3E26H   FF3E43H   00001EH   BYTE   INSEG    CODE           ?PR?UART2_ISR?ISR
FF3E44H   FF3E61H   00001EH   BYTE   INSEG    CODE           ?PR?UART3_ISR?ISR
FF3E62H   FF3E7AH   000019H   BYTE   INSEG    CODE           ?PR?DELAY_US?ZF_DELAY
FF3E7BH   FF3E93H   000019H   BYTE   INSEG    CODE           ?PR?WIRELESS_UART_CALLBACK?SEEKFREE_WIRELESS
FF3E94H   FF3EACH   000019H   BYTE   INSEG    CODE           ?PR?BLUETOOTH_CH9141_UART_CALLBACK?SEEKFREE_BLUETOOTH_CH91
                                                             -41
FF3EADH   FF3EC5H   000019H   BYTE   INSEG    CODE           ?PR?WIRELESS_CH573_CALLBACK?SEEKFREE_WIRELESS_CH573
FF3EC6H   FF3EDCH   000017H   BYTE   INSEG    CODE           ?PR?DELAY_MS?ZF_DELAY
FF3EDDH   FF3EF1H   000015H   BYTE   INSEG    CODE           ?PR?EEPROM_TRIG?ZF_EEPROM
FF3EF2H   FF3F06H   000015H   BYTE   INSEG    CODE           ?PR?IIC_DELAY_US?ZF_IIC
FF3F07H   FF3F17H   000011H   BYTE   INSEG    CODE           ?PR?SIMIIC_STOP?SEEKFREE_IIC
FF3F18H   FF3F28H   000011H   BYTE   INSEG    CODE           ?PR?VL53L0X_SIMIIC_STOP?SEEKFREE_VL53L0X
FF3F29H   FF3F38H   000010H   BYTE   INSEG    CODE           ?PR?VL53L0X_DECODE_TIMEOUT?SEEKFREE_VL53L0X
FF3F39H   FF3F47H   00000FH   BYTE   INSEG    CODE           ?PR?SIMIIC_START?SEEKFREE_IIC
FF3F48H   FF3F56H   00000FH   BYTE   INSEG    CODE           ?PR?VL53L0X_SIMIIC_START?SEEKFREE_VL53L0X
L251 LINKER/LOCATER V4.66.93.0                                                        07/16/2023  18:44:38  PAGE 6


FF3F57H   FF3F64H   00000EH   BYTE   INSEG    CODE           ?PR?PUTCHAR?BOARD
FF3F65H   FF3F72H   00000EH   BYTE   INSEG    CODE           ?PR?SPI_MOSI?ZF_SPI
FF3F73H   FF3F7DH   00000BH   BYTE   INSEG    CODE           ?PR?SIMIIC_DELAY?SEEKFREE_IIC
FF3F7EH   FF3F87H   00000AH   BYTE   INSEG    CODE           ?PR?LCD_WRITEINDEX?SEEKFREE_18TFT
FF3F88H   FF3F91H   00000AH   BYTE   INSEG    CODE           ?PR?LCD_WRITEDATA?SEEKFREE_18TFT
FF3F92H   FF3F9BH   00000AH   BYTE   INSEG    CODE           ?PR?IPS114_WRITEINDEX?SEEKFREE_IPS114_SPI
FF3F9CH   FF3FA5H   00000AH   BYTE   INSEG    CODE           ?PR?OLED_WRCMD_SPI?SEEKFREE_OLED
FF3FA6H   FF3FAFH   00000AH   BYTE   INSEG    CODE           ?PR?OLED_WRDAT_SPI?SEEKFREE_OLED
FF3FB0H   FF3FB7H   000008H   BYTE   INSEG    CODE           ?PR?INT2_ISR?ISR
FF3FB8H   FF3FBFH   000008H   BYTE   INSEG    CODE           ?PR?INT3_ISR?ISR
FF3FC0H   FF3FC7H   000008H   BYTE   INSEG    CODE           ?PR?INT4_ISR?ISR
FF3FC8H   FF3FCFH   000008H   BYTE   INSEG    CODE           ?PR?TM2_ISR?ISR
FF3FD0H   FF3FD7H   000008H   BYTE   INSEG    CODE           ?PR?TM3_ISR?ISR
FF3FD8H   FF406BH   000094H   BYTE   UNIT     HCONST         ?C_INITEDATA
FF406CH   FF40C3H   000058H   BYTE   UNIT     HCONST         ?HC?ZF_PWM
FF40C4H   FF40D9H   000016H   BYTE   UNIT     HCONST         ?HC?SEEKFREE_VL53L0X
FF40DAH   FF40E6H   00000DH   BYTE   UNIT     HCONST         ?HC?MOVE
FF40E7H   FF40F0H   00000AH   BYTE   UNIT     HCONST         ?HC?SEEKFREE_OLED
FF40F1H   FF40F6H   000006H   BYTE   UNIT     HCONST         ?HC?SEEKFREE_18TFT
FF40F7H   FF40FCH   000006H   BYTE   UNIT     HCONST         ?HC?SEEKFREE_IPS114_SPI

* * * * * * * * *   R E M O V E D     S E G M E N T S   * * * * * * * *
   *DEL*:           0004FAH   BYTE   INSEG    CODE           ?PR?ZF_SPRINTF?SEEKFREE_PRINTF
   *DEL*:           00003EH   BYTE   INSEG    CODE           ?PR?PRINTF_REVERSE_ORDER?SEEKFREE_PRINTF
   *DEL*:           00005FH   BYTE   UNIT     EDATA          ?ED?ZF_SPRINTF?SEEKFREE_PRINTF
   *DEL*:           000016H   BYTE   INSEG    CODE           ?PR?IAP_SET_TPS?ZF_EEPROM
   *DEL*:           00000EH   BYTE   INSEG    CODE           ?PR?IAP_ERASE_PAGE?ZF_EEPROM
   *DEL*:           000004H   BYTE   INSEG    CODE           ?PR?IAP_IDLE?ZF_EEPROM
   *DEL*:           000047H   BYTE   INSEG    CODE           ?PR?IAP_READ_BYTES?ZF_EEPROM
   *DEL*:           00006DH   BYTE   INSEG    CODE           ?PR?EXTERN_IAP_WRITE_BYTES?ZF_EEPROM
   *DEL*:           000006H   BYTE   INSEG    CODE           ?PR?IAP_INIT?ZF_EEPROM
   *DEL*:           000047H   BYTE   INSEG    CODE           ?PR?IAP_WRITE_BYTES?ZF_EEPROM
   *DEL*:           00000CH   BYTE   INSEG    CODE           ?PR?IAP_GET_CMD_STATE?ZF_EEPROM
   *DEL*:           000004H   BYTE   UNIT     EDATA          ?ED?IAP_READ_BYTES?ZF_EEPROM
   *DEL*:           000004H   BYTE   UNIT     EDATA          ?ED?IAP_WRITE_BYTES?ZF_EEPROM
   *DEL*:           000204H   BYTE   UNIT     EDATA          ?ED?EXTERN_IAP_WRITE_BYTES?ZF_EEPROM
   *DEL*:           00003EH   BYTE   INSEG    CODE           ?PR?EXIT_INIT?ZF_EXTI
   *DEL*:           00006EH   BYTE   INSEG    CODE           ?PR?GPIO_PULL_SET?ZF_GPIO
   *DEL*:           000017H   BYTE   INSEG    CODE           ?PR?SEND_DATA?ZF_IIC
   *DEL*:           00002FH   BYTE   INSEG    CODE           ?PR?IIC_CHANGE_PIN?ZF_IIC
   *DEL*:           00001CH   BYTE   INSEG    CODE           ?PR?RECV_DATA?ZF_IIC
   *DEL*:           000010H   BYTE   INSEG    CODE           ?PR?START?ZF_IIC
   *DEL*:           000018H   BYTE   INSEG    CODE           ?PR?SEND_ACK?ZF_IIC
   *DEL*:           000010H   BYTE   INSEG    CODE           ?PR?RECV_ACK?ZF_IIC
   *DEL*:           000010H   BYTE   INSEG    CODE           ?PR?STOP?ZF_IIC
   *DEL*:           000019H   BYTE   INSEG    CODE           ?PR?SEND_NAK?ZF_IIC
   *DEL*:           00005EH   BYTE   INSEG    CODE           ?PR?IIC_INIT?ZF_IIC
   *DEL*:           000075H   BYTE   INSEG    CODE           ?PR?IIC_READ_REG?ZF_IIC
   *DEL*:           00009CH   BYTE   INSEG    CODE           ?PR?IIC_READ_REG_BYTES?ZF_IIC
   *DEL*:           000060H   BYTE   INSEG    CODE           ?PR?IIC_WRITE_REG?ZF_IIC
   *DEL*:           000004H   BYTE   UNIT     EDATA          ?ED?IIC_INIT?ZF_IIC
   *DEL*:           000004H   BYTE   UNIT     EDATA          ?ED?IIC_READ_REG?ZF_IIC
   *DEL*:           000003H   BYTE   UNIT     EDATA          ?ED?IIC_READ_REG_BYTES?ZF_IIC
   *DEL*:           00006CH   BYTE   INSEG    CODE           ?PR?NVIC_SETPRIORITY?ZF_NVIC
   *DEL*:           000121H   BYTE   INSEG    CODE           ?PR?PWM_FREQ?ZF_PWM
   *DEL*:           000004H   BYTE   UNIT     EDATA          ?ED?PWM_FREQ?ZF_PWM
   *DEL*:           00001DH   BYTE   INSEG    CODE           ?PR?SPI_CHANGE_MODE?ZF_SPI
   *DEL*:           0000AEH   BYTE   INSEG    CODE           ?PR?SPI_CHANGE_PIN?ZF_SPI
   *DEL*:           0000DFH   BYTE   INSEG    CODE           ?PR?SPI_INIT?ZF_SPI
   *DEL*:           000004H   BYTE   UNIT     EDATA          ?ED?SPI_INIT?ZF_SPI
   *DEL*:           00002DH   BYTE   INSEG    CODE           ?PR?UART_PUTBUFF?ZF_UART
   *DEL*:           00001EH   BYTE   INSEG    CODE           ?PR?UART_PUTSTR?ZF_UART
   *DEL*:           000004H   BYTE   UNIT     EDATA          ?ED?UART_PUTBUFF?ZF_UART
   *DEL*:           000002H   BYTE   UNIT     EDATA          ?ED?UART_PUTSTR?ZF_UART
   *DEL*:           000113H   BYTE   INSEG    CODE           ?PR?FIFO_READ_BUFFER?ZF_FIFO
L251 LINKER/LOCATER V4.66.93.0                                                        07/16/2023  18:44:38  PAGE 7


   *DEL*:           000025H   BYTE   INSEG    CODE           ?PR?FIFO_CLEAR?ZF_FIFO
   *DEL*:           000046H   BYTE   INSEG    CODE           ?PR?FIFO_END_OFFSET?ZF_FIFO
   *DEL*:           000015H   BYTE   INSEG    CODE           ?PR?FIFO_USED?ZF_FIFO
   *DEL*:           000043H   BYTE   INSEG    CODE           ?PR?FIFO_INIT?ZF_FIFO
   *DEL*:           000004H   BYTE   UNIT     EDATA          ?ED?FIFO_INIT?ZF_FIFO
   *DEL*:           00000FH   BYTE   UNIT     EDATA          ?ED?FIFO_READ_BUFFER?ZF_FIFO
   *DEL*:           00008BH   BYTE   INSEG    CODE           ?PR?LCD_SHOWUINT16?SEEKFREE_18TFT
   *DEL*:           000082H   BYTE   INSEG    CODE           ?PR?LCD_SHOWINT32_SIMSPI?SEEKFREE_18TFT
   *DEL*:           0000DDH   BYTE   INSEG    CODE           ?PR?LCD_SHOWINT16_SIMSPI?SEEKFREE_18TFT
   *DEL*:           000082H   BYTE   INSEG    CODE           ?PR?LCD_SHOWINT32?SEEKFREE_18TFT
   *DEL*:           0000DDH   BYTE   INSEG    CODE           ?PR?LCD_SHOWINT16?SEEKFREE_18TFT
   *DEL*:           00002BH   BYTE   INSEG    CODE           ?PR?LCD_CLEAR_SIMSPI?SEEKFREE_18TFT
   *DEL*:           00002BH   BYTE   INSEG    CODE           ?PR?LCD_CLEAR?SEEKFREE_18TFT
   *DEL*:           00004EH   BYTE   INSEG    CODE           ?PR?LCD_SHOWSTR_SIMSPI?SEEKFREE_18TFT
   *DEL*:           00004EH   BYTE   INSEG    CODE           ?PR?LCD_SHOWSTR?SEEKFREE_18TFT
   *DEL*:           0001EFH   BYTE   INSEG    CODE           ?PR?LCD_INIT_SIMSPI?SEEKFREE_18TFT
   *DEL*:           00009AH   BYTE   INSEG    CODE           ?PR?SHOWIMAGE?SEEKFREE_18TFT
   *DEL*:           0001EEH   BYTE   INSEG    CODE           ?PR?LCD_INIT?SEEKFREE_18TFT
   *DEL*:           00007BH   BYTE   INSEG    CODE           ?PR?LCD_SHOWUINT8_SIMSPI?SEEKFREE_18TFT
   *DEL*:           00007BH   BYTE   INSEG    CODE           ?PR?LCD_SHOWUINT8?SEEKFREE_18TFT
   *DEL*:           0000B9H   BYTE   INSEG    CODE           ?PR?LCD_SHOWINT8_SIMSPI?SEEKFREE_18TFT
   *DEL*:           0000B9H   BYTE   INSEG    CODE           ?PR?LCD_SHOWINT8?SEEKFREE_18TFT
   *DEL*:           0000F8H   BYTE   INSEG    CODE           ?PR?LCD_SHOWFLOAT_SIMSPI?SEEKFREE_18TFT
   *DEL*:           000013H   BYTE   INSEG    CODE           ?PR?LCD_DRAWPOINT_SIMSPI?SEEKFREE_18TFT
   *DEL*:           0000F8H   BYTE   INSEG    CODE           ?PR?LCD_SHOWFLOAT?SEEKFREE_18TFT
   *DEL*:           000013H   BYTE   INSEG    CODE           ?PR?LCD_DRAWPOINT?SEEKFREE_18TFT
   *DEL*:           00008EH   BYTE   INSEG    CODE           ?PR?LCD_SHOWCHAR_SIMSPI?SEEKFREE_18TFT
   *DEL*:           00008EH   BYTE   INSEG    CODE           ?PR?LCD_SHOWCHAR?SEEKFREE_18TFT
   *DEL*:           00008BH   BYTE   INSEG    CODE           ?PR?LCD_SHOWUINT16_SIMSPI?SEEKFREE_18TFT
   *DEL*:           000004H   BYTE   UNIT     EDATA          ?ED?LCD_SHOWCHAR_SIMSPI?SEEKFREE_18TFT
   *DEL*:           000006H   BYTE   UNIT     EDATA          ?ED?LCD_SHOWSTR_SIMSPI?SEEKFREE_18TFT
   *DEL*:           000005H   BYTE   UNIT     EDATA          ?ED?LCD_SHOWINT8_SIMSPI?SEEKFREE_18TFT
   *DEL*:           000004H   BYTE   UNIT     EDATA          ?ED?LCD_SHOWUINT8_SIMSPI?SEEKFREE_18TFT
   *DEL*:           000008H   BYTE   UNIT     EDATA          ?ED?LCD_SHOWINT16_SIMSPI?SEEKFREE_18TFT
   *DEL*:           000006H   BYTE   UNIT     EDATA          ?ED?LCD_SHOWUINT16_SIMSPI?SEEKFREE_18TFT
   *DEL*:           000028H   BYTE   UNIT     EDATA          ?ED?LCD_SHOWINT32_SIMSPI?SEEKFREE_18TFT
   *DEL*:           00002BH   BYTE   UNIT     EDATA          ?ED?LCD_SHOWFLOAT_SIMSPI?SEEKFREE_18TFT
   *DEL*:           000004H   BYTE   UNIT     EDATA          ?ED?LCD_SHOWCHAR?SEEKFREE_18TFT
   *DEL*:           000006H   BYTE   UNIT     EDATA          ?ED?LCD_SHOWSTR?SEEKFREE_18TFT
   *DEL*:           000005H   BYTE   UNIT     EDATA          ?ED?LCD_SHOWINT8?SEEKFREE_18TFT
   *DEL*:           000004H   BYTE   UNIT     EDATA          ?ED?LCD_SHOWUINT8?SEEKFREE_18TFT
   *DEL*:           000008H   BYTE   UNIT     EDATA          ?ED?LCD_SHOWINT16?SEEKFREE_18TFT
   *DEL*:           000006H   BYTE   UNIT     EDATA          ?ED?LCD_SHOWUINT16?SEEKFREE_18TFT
   *DEL*:           000028H   BYTE   UNIT     EDATA          ?ED?LCD_SHOWINT32?SEEKFREE_18TFT
   *DEL*:           00002BH   BYTE   UNIT     EDATA          ?ED?LCD_SHOWFLOAT?SEEKFREE_18TFT
   *DEL*:           000008H   BYTE   UNIT     EDATA          ?ED?SHOWIMAGE?SEEKFREE_18TFT
   *DEL*:           000011H   BYTE   INSEG    CODE           ?PR?ENCODER_SELF4_CHECK?SEEKFREE_ABSOLUTE_ENCODER
   *DEL*:           000011H   BYTE   INSEG    CODE           ?PR?ENCODER_SELF5_CHECK?SEEKFREE_ABSOLUTE_ENCODER
   *DEL*:           00002FH   BYTE   INSEG    CODE           ?PR?ENCODER_SPI_R_REG_BYTE?SEEKFREE_ABSOLUTE_ENCODER
   *DEL*:           000038H   BYTE   INSEG    CODE           ?PR?ENCODER_SPI_W_REG_BYTE?SEEKFREE_ABSOLUTE_ENCODER
   *DEL*:           00001CH   BYTE   INSEG    CODE           ?PR?SIMSPI_R_REG_BYTE?SEEKFREE_ABSOLUTE_ENCODER
   *DEL*:           00001AH   BYTE   INSEG    CODE           ?PR?SIMSPI_W_REG_BYTE?SEEKFREE_ABSOLUTE_ENCODER
   *DEL*:           000029H   BYTE   INSEG    CODE           ?PR?ENCODER_INIT_SPI?SEEKFREE_ABSOLUTE_ENCODER
   *DEL*:           000004H   BYTE   INSEG    CODE           ?PR?SPI_WR_BYTE?SEEKFREE_ABSOLUTE_ENCODER
   *DEL*:           000024H   BYTE   INSEG    CODE           ?PR?SET_ZERO_POSITION_SIMSPI?SEEKFREE_ABSOLUTE_ENCODER
   *DEL*:           000023H   BYTE   INSEG    CODE           ?PR?ENCODER_ANGLE_SIMSPI?SEEKFREE_ABSOLUTE_ENCODER
   *DEL*:           00001CH   BYTE   INSEG    CODE           ?PR?SPI_R_REG_BYTE?SEEKFREE_ABSOLUTE_ENCODER
   *DEL*:           00001AH   BYTE   INSEG    CODE           ?PR?SPI_W_REG_BYTE?SEEKFREE_ABSOLUTE_ENCODER
   *DEL*:           00002FH   BYTE   INSEG    CODE           ?PR?ENCODER_SIMSPI_R_REG_BYTE?SEEKFREE_ABSOLUTE_ENCODER
   *DEL*:           000038H   BYTE   INSEG    CODE           ?PR?ENCODER_SIMSPI_W_REG_BYTE?SEEKFREE_ABSOLUTE_ENCODER
   *DEL*:           00000FH   BYTE   INSEG    CODE           ?PR?ENCODER_INIT_SIMSPI?SEEKFREE_ABSOLUTE_ENCODER
   *DEL*:           000024H   BYTE   INSEG    CODE           ?PR?SET_ZERO_POSITION_SPI?SEEKFREE_ABSOLUTE_ENCODER
   *DEL*:           00001FH   BYTE   INSEG    CODE           ?PR?SIMSPI_WR_BYTE?SEEKFREE_ABSOLUTE_ENCODER
   *DEL*:           000023H   BYTE   INSEG    CODE           ?PR?ENCODER_ANGLE_SPI?SEEKFREE_ABSOLUTE_ENCODER
   *DEL*:           000001H   BYTE   UNIT     EDATA          ?ED?ENCODER_SELF4_CHECK?SEEKFREE_ABSOLUTE_ENCODER
L251 LINKER/LOCATER V4.66.93.0                                                        07/16/2023  18:44:38  PAGE 8


   *DEL*:           000001H   BYTE   UNIT     EDATA          ?ED?ENCODER_SELF5_CHECK?SEEKFREE_ABSOLUTE_ENCODER
   *DEL*:           000075H   BYTE   INSEG    CODE           ?PR?ICM20602_INIT_SIMIIC?SEEKFREE_ICM20602
   *DEL*:           000040H   BYTE   INSEG    CODE           ?PR?ICM_SIMSPI_R_REG_BYTES?SEEKFREE_ICM20602
   *DEL*:           00001CH   BYTE   INSEG    CODE           ?PR?ICM_SIMSPI_R_REG_BYTE?SEEKFREE_ICM20602
   *DEL*:           000013H   BYTE   INSEG    CODE           ?PR?ICM_SIMSPI_W_REG_BYTE?SEEKFREE_ICM20602
   *DEL*:           000059H   BYTE   INSEG    CODE           ?PR?ICM20602_INIT_SIMSPI?SEEKFREE_ICM20602
   *DEL*:           00002BH   BYTE   INSEG    CODE           ?PR?ICM20602_SELF1_CHECK?SEEKFREE_ICM20602
   *DEL*:           000011H   BYTE   INSEG    CODE           ?PR?ICM20602_SELF4_CHECK?SEEKFREE_ICM20602
   *DEL*:           000044H   BYTE   INSEG    CODE           ?PR?GET_ICM20602_GYRO_SIMIIC?SEEKFREE_ICM20602
   *DEL*:           000044H   BYTE   INSEG    CODE           ?PR?GET_ICM20602_ACCDATA_SIMIIC?SEEKFREE_ICM20602
   *DEL*:           00003DH   BYTE   INSEG    CODE           ?PR?GET_ICM20602_GYRO_SIMSPI?SEEKFREE_ICM20602
   *DEL*:           00003DH   BYTE   INSEG    CODE           ?PR?GET_ICM20602_ACCDATA_SIMSPI?SEEKFREE_ICM20602
   *DEL*:           000006H   BYTE   UNIT     EDATA          ?ED?GET_ICM20602_ACCDATA_SIMIIC?SEEKFREE_ICM20602
   *DEL*:           000006H   BYTE   UNIT     EDATA          ?ED?GET_ICM20602_GYRO_SIMIIC?SEEKFREE_ICM20602
   *DEL*:           000003H   BYTE   UNIT     EDATA          ?ED?ICM_SIMSPI_R_REG_BYTES?SEEKFREE_ICM20602
   *DEL*:           000001H   BYTE   UNIT     EDATA          ?ED?ICM20602_SELF4_CHECK?SEEKFREE_ICM20602
   *DEL*:           000001H   BYTE   UNIT     EDATA          ?ED?ICM20602_INIT_SIMSPI?SEEKFREE_ICM20602
   *DEL*:           000006H   BYTE   UNIT     EDATA          ?ED?GET_ICM20602_ACCDATA_SIMSPI?SEEKFREE_ICM20602
   *DEL*:           000006H   BYTE   UNIT     EDATA          ?ED?GET_ICM20602_GYRO_SIMSPI?SEEKFREE_ICM20602
   *DEL*:           000001H   BYTE   INSEG    CODE           ?PR?SIMIIC_INIT?SEEKFREE_IIC
   *DEL*:           00007BH   BYTE   INSEG    CODE           ?PR?IPS114_SHOWUINT8_SIMSPI?SEEKFREE_IPS114_SPI
   *DEL*:           000077H   BYTE   INSEG    CODE           ?PR?IPS114_SHOWUINT8?SEEKFREE_IPS114_SPI
   *DEL*:           0000B9H   BYTE   INSEG    CODE           ?PR?IPS114_SHOWINT8_SIMSPI?SEEKFREE_IPS114_SPI
   *DEL*:           0000B5H   BYTE   INSEG    CODE           ?PR?IPS114_SHOWINT8?SEEKFREE_IPS114_SPI
   *DEL*:           0000F8H   BYTE   INSEG    CODE           ?PR?IPS114_SHOWFLOAT_SIMSPI?SEEKFREE_IPS114_SPI
   *DEL*:           000013H   BYTE   INSEG    CODE           ?PR?IPS114_DRAWPOINT_SIMSPI?SEEKFREE_IPS114_SPI
   *DEL*:           0000F8H   BYTE   INSEG    CODE           ?PR?IPS114_SHOWFLOAT?SEEKFREE_IPS114_SPI
   *DEL*:           000013H   BYTE   INSEG    CODE           ?PR?IPS114_DRAWPOINT?SEEKFREE_IPS114_SPI
   *DEL*:           00008EH   BYTE   INSEG    CODE           ?PR?IPS114_SHOWCHAR_SIMSPI?SEEKFREE_IPS114_SPI
   *DEL*:           00008EH   BYTE   INSEG    CODE           ?PR?IPS114_SHOWCHAR?SEEKFREE_IPS114_SPI
   *DEL*:           00008BH   BYTE   INSEG    CODE           ?PR?IPS114_SHOWUINT16_SIMSPI?SEEKFREE_IPS114_SPI
   *DEL*:           00008BH   BYTE   INSEG    CODE           ?PR?IPS114_SHOWUINT16?SEEKFREE_IPS114_SPI
   *DEL*:           000082H   BYTE   INSEG    CODE           ?PR?IPS114_SHOWINT32_SIMSPI?SEEKFREE_IPS114_SPI
   *DEL*:           0000DDH   BYTE   INSEG    CODE           ?PR?IPS114_SHOWINT16_SIMSPI?SEEKFREE_IPS114_SPI
   *DEL*:           000082H   BYTE   INSEG    CODE           ?PR?IPS114_SHOWINT32?SEEKFREE_IPS114_SPI
   *DEL*:           0000D9H   BYTE   INSEG    CODE           ?PR?IPS114_SHOWINT16?SEEKFREE_IPS114_SPI
   *DEL*:           00003CH   BYTE   INSEG    CODE           ?PR?IPS114_CLEAR_SIMSPI?SEEKFREE_IPS114_SPI
   *DEL*:           00003CH   BYTE   INSEG    CODE           ?PR?IPS114_CLEAR?SEEKFREE_IPS114_SPI
   *DEL*:           00004EH   BYTE   INSEG    CODE           ?PR?IPS114_SHOWSTR_SIMSPI?SEEKFREE_IPS114_SPI
   *DEL*:           00004EH   BYTE   INSEG    CODE           ?PR?IPS114_SHOWSTR?SEEKFREE_IPS114_SPI
   *DEL*:           000029H   BYTE   INSEG    CODE           ?PR?IPS114_WRITEDATA_SIMSPI?SEEKFREE_IPS114_SPI
   *DEL*:           00000AH   BYTE   INSEG    CODE           ?PR?IPS114_WRITEDATA?SEEKFREE_IPS114_SPI
   *DEL*:           000044H   BYTE   INSEG    CODE           ?PR?IPS114_SET_REGION_SIMSPI?SEEKFREE_IPS114_SPI
   *DEL*:           00014FH   BYTE   INSEG    CODE           ?PR?IPS114_INIT_SIMSPI?SEEKFREE_IPS114_SPI
   *DEL*:           000048H   BYTE   INSEG    CODE           ?PR?IPS114_SET_REGION?SEEKFREE_IPS114_SPI
   *DEL*:           00016DH   BYTE   INSEG    CODE           ?PR?IPS114_INIT?SEEKFREE_IPS114_SPI
   *DEL*:           000004H   BYTE   UNIT     EDATA          ?ED?IPS114_SET_REGION_SIMSPI?SEEKFREE_IPS114_SPI
   *DEL*:           000002H   BYTE   UNIT     EDATA          ?ED?IPS114_CLEAR_SIMSPI?SEEKFREE_IPS114_SPI
   *DEL*:           000004H   BYTE   UNIT     EDATA          ?ED?IPS114_SHOWCHAR_SIMSPI?SEEKFREE_IPS114_SPI
   *DEL*:           000006H   BYTE   UNIT     EDATA          ?ED?IPS114_SHOWSTR_SIMSPI?SEEKFREE_IPS114_SPI
   *DEL*:           000005H   BYTE   UNIT     EDATA          ?ED?IPS114_SHOWINT8_SIMSPI?SEEKFREE_IPS114_SPI
   *DEL*:           000004H   BYTE   UNIT     EDATA          ?ED?IPS114_SHOWUINT8_SIMSPI?SEEKFREE_IPS114_SPI
   *DEL*:           000008H   BYTE   UNIT     EDATA          ?ED?IPS114_SHOWINT16_SIMSPI?SEEKFREE_IPS114_SPI
   *DEL*:           000006H   BYTE   UNIT     EDATA          ?ED?IPS114_SHOWUINT16_SIMSPI?SEEKFREE_IPS114_SPI
   *DEL*:           000028H   BYTE   UNIT     EDATA          ?ED?IPS114_SHOWINT32_SIMSPI?SEEKFREE_IPS114_SPI
   *DEL*:           00002BH   BYTE   UNIT     EDATA          ?ED?IPS114_SHOWFLOAT_SIMSPI?SEEKFREE_IPS114_SPI
   *DEL*:           000004H   BYTE   UNIT     EDATA          ?ED?IPS114_SET_REGION?SEEKFREE_IPS114_SPI
   *DEL*:           000002H   BYTE   UNIT     EDATA          ?ED?IPS114_CLEAR?SEEKFREE_IPS114_SPI
   *DEL*:           000004H   BYTE   UNIT     EDATA          ?ED?IPS114_SHOWCHAR?SEEKFREE_IPS114_SPI
   *DEL*:           000006H   BYTE   UNIT     EDATA          ?ED?IPS114_SHOWSTR?SEEKFREE_IPS114_SPI
   *DEL*:           000005H   BYTE   UNIT     EDATA          ?ED?IPS114_SHOWINT8?SEEKFREE_IPS114_SPI
   *DEL*:           000004H   BYTE   UNIT     EDATA          ?ED?IPS114_SHOWUINT8?SEEKFREE_IPS114_SPI
   *DEL*:           000008H   BYTE   UNIT     EDATA          ?ED?IPS114_SHOWINT16?SEEKFREE_IPS114_SPI
   *DEL*:           000006H   BYTE   UNIT     EDATA          ?ED?IPS114_SHOWUINT16?SEEKFREE_IPS114_SPI
   *DEL*:           000028H   BYTE   UNIT     EDATA          ?ED?IPS114_SHOWINT32?SEEKFREE_IPS114_SPI
L251 LINKER/LOCATER V4.66.93.0                                                        07/16/2023  18:44:38  PAGE 9


   *DEL*:           00002BH   BYTE   UNIT     EDATA          ?ED?IPS114_SHOWFLOAT?SEEKFREE_IPS114_SPI
   *DEL*:           000044H   BYTE   INSEG    CODE           ?PR?MPU6050_GET_GYRO?SEEKFREE_MPU6050
   *DEL*:           000044H   BYTE   INSEG    CODE           ?PR?MPU6050_GET_ACCDATA?SEEKFREE_MPU6050
   *DEL*:           000006H   BYTE   UNIT     EDATA          ?ED?MPU6050_GET_ACCDATA?SEEKFREE_MPU6050
   *DEL*:           000006H   BYTE   UNIT     EDATA          ?ED?MPU6050_GET_GYRO?SEEKFREE_MPU6050
   *DEL*:           000033H   BYTE   INSEG    CODE           ?PR?OLED_PUTPIXEL?SEEKFREE_OLED
   *DEL*:           000032H   BYTE   INSEG    CODE           ?PR?OLED_HEXASCII_SPI?SEEKFREE_OLED
   *DEL*:           000325H   BYTE   INSEG    CODE           ?PR?OLED_DIS_BMP_SPI?SEEKFREE_OLED
   *DEL*:           0000F8H   BYTE   INSEG    CODE           ?PR?OLED_PRINTF_FLOAT?SEEKFREE_OLED
   *DEL*:           0000E8H   BYTE   INSEG    CODE           ?PR?OLED_P8X16STR_SPI?SEEKFREE_OLED
   *DEL*:           00002AH   BYTE   INSEG    CODE           ?PR?OLED_CLRPIXEL_SPI?SEEKFREE_OLED
   *DEL*:           000090H   BYTE   INSEG    CODE           ?PR?OLED_PRINT_CHINESE_SPI?SEEKFREE_OLED
   *DEL*:           000033H   BYTE   INSEG    CODE           ?PR?OLED_FILL?SEEKFREE_OLED
   *DEL*:           000082H   BYTE   INSEG    CODE           ?PR?OLED_PRINTF_INT32?SEEKFREE_OLED
   *DEL*:           00001DH   BYTE   INSEG    CODE           ?PR?OLED_UINT16?SEEKFREE_OLED
   *DEL*:           000031H   BYTE   INSEG    CODE           ?PR?OLED_PUTPIXEL_SPI?SEEKFREE_OLED
   *DEL*:           0000A9H   BYTE   INSEG    CODE           ?PR?OLED_P6X8STR?SEEKFREE_OLED
   *DEL*:           00004BH   BYTE   INSEG    CODE           ?PR?OLED_INT16?SEEKFREE_OLED
   *DEL*:           0000A3H   BYTE   INSEG    CODE           ?PR?OLED_INIT?SEEKFREE_OLED
   *DEL*:           0000F8H   BYTE   INSEG    CODE           ?PR?OLED_PRINTF_FLOAT_SPI?SEEKFREE_OLED
   *DEL*:           000032H   BYTE   INSEG    CODE           ?PR?OLED_HEXASCII?SEEKFREE_OLED
   *DEL*:           000033H   BYTE   INSEG    CODE           ?PR?OLED_FILL_SPI?SEEKFREE_OLED
   *DEL*:           000082H   BYTE   INSEG    CODE           ?PR?OLED_PRINTF_INT32_SPI?SEEKFREE_OLED
   *DEL*:           00001DH   BYTE   INSEG    CODE           ?PR?OLED_UINT16_SPI?SEEKFREE_OLED
   *DEL*:           0000A9H   BYTE   INSEG    CODE           ?PR?OLED_P6X8STR_SPI?SEEKFREE_OLED
   *DEL*:           00004BH   BYTE   INSEG    CODE           ?PR?OLED_INT16_SPI?SEEKFREE_OLED
   *DEL*:           00033BH   BYTE   INSEG    CODE           ?PR?OLED_DIS_BMP?SEEKFREE_OLED
   *DEL*:           0000BFH   BYTE   INSEG    CODE           ?PR?OLED_INIT_SPI?SEEKFREE_OLED
   *DEL*:           0000E8H   BYTE   INSEG    CODE           ?PR?OLED_P8X16STR?SEEKFREE_OLED
   *DEL*:           00002CH   BYTE   INSEG    CODE           ?PR?OLED_CLRPIXEL?SEEKFREE_OLED
   *DEL*:           000090H   BYTE   INSEG    CODE           ?PR?OLED_PRINT_CHINESE?SEEKFREE_OLED
   *DEL*:           000005H   BYTE   UNIT     EDATA          ?ED?OLED_P6X8STR?SEEKFREE_OLED
   *DEL*:           000005H   BYTE   UNIT     EDATA          ?ED?OLED_P8X16STR?SEEKFREE_OLED
   *DEL*:           000007H   BYTE   UNIT     EDATA          ?ED?OLED_UINT16?SEEKFREE_OLED
   *DEL*:           000007H   BYTE   UNIT     EDATA          ?ED?OLED_INT16?SEEKFREE_OLED
   *DEL*:           000028H   BYTE   UNIT     EDATA          ?ED?OLED_PRINTF_INT32?SEEKFREE_OLED
   *DEL*:           00002BH   BYTE   UNIT     EDATA          ?ED?OLED_PRINTF_FLOAT?SEEKFREE_OLED
   *DEL*:           00000CH   BYTE   UNIT     EDATA          ?ED?OLED_DIS_BMP?SEEKFREE_OLED
   *DEL*:           00000AH   BYTE   UNIT     EDATA          ?ED?OLED_PRINT_CHINESE?SEEKFREE_OLED
   *DEL*:           000005H   BYTE   UNIT     EDATA          ?ED?OLED_P6X8STR_SPI?SEEKFREE_OLED
   *DEL*:           000005H   BYTE   UNIT     EDATA          ?ED?OLED_P8X16STR_SPI?SEEKFREE_OLED
   *DEL*:           000007H   BYTE   UNIT     EDATA          ?ED?OLED_UINT16_SPI?SEEKFREE_OLED
   *DEL*:           000007H   BYTE   UNIT     EDATA          ?ED?OLED_INT16_SPI?SEEKFREE_OLED
   *DEL*:           000028H   BYTE   UNIT     EDATA          ?ED?OLED_PRINTF_INT32_SPI?SEEKFREE_OLED
   *DEL*:           00002BH   BYTE   UNIT     EDATA          ?ED?OLED_PRINTF_FLOAT_SPI?SEEKFREE_OLED
   *DEL*:           00000CH   BYTE   UNIT     EDATA          ?ED?OLED_DIS_BMP_SPI?SEEKFREE_OLED
   *DEL*:           00000AH   BYTE   UNIT     EDATA          ?ED?OLED_PRINT_CHINESE_SPI?SEEKFREE_OLED
   *DEL*:           000070H   BYTE   INSEG    CODE           ?PR?CCD_SEND_DATA?SEEKFREE_TSL1401
   *DEL*:           000016H   BYTE   INSEG    CODE           ?PR?CCD_INIT?SEEKFREE_TSL1401
   *DEL*:           000035H   BYTE   INSEG    CODE           ?PR?CCD_COLLECT?SEEKFREE_TSL1401
   *DEL*:           000003H   BYTE   UNIT     EDATA          ?ED?CCD_SEND_DATA?SEEKFREE_TSL1401
   *DEL*:           00003AH   BYTE   INSEG    CODE           ?PR?CRC_CHECK?SEEKFREE_VIRSCO
   *DEL*:           000069H   BYTE   INSEG    CODE           ?PR?DATA_CONVERSION?SEEKFREE_VIRSCO
   *DEL*:           000004H   BYTE   UNIT     EDATA          ?ED?DATA_CONVERSION?SEEKFREE_VIRSCO
   *DEL*:           000022H   BYTE   INSEG    CODE           ?PR?WIRELESS_UART_READ_BUFF?SEEKFREE_WIRELESS
   *DEL*:           00005DH   BYTE   INSEG    CODE           ?PR?WIRELESS_UART_SEND_BUFF?SEEKFREE_WIRELESS
   *DEL*:           00003CH   BYTE   INSEG    CODE           ?PR?WIRELESS_UART_INIT?SEEKFREE_WIRELESS
   *DEL*:           000002H   BYTE   UNIT     EDATA          ?ED?WIRELESS_UART_SEND_BUFF?SEEKFREE_WIRELESS
   *DEL*:           000004H   BYTE   UNIT     EDATA          ?ED?WIRELESS_UART_READ_BUFF?SEEKFREE_WIRELESS
   *DEL*:           00005EH   BYTE   INSEG    CODE           ?PR?AT24C02_READ_BYTES?SEEKFREE_AT24C02
   *DEL*:           000017H   BYTE   INSEG    CODE           ?PR?AT24C02_READ_BYTE?SEEKFREE_AT24C02
   *DEL*:           00005BH   BYTE   INSEG    CODE           ?PR?AT24C02_WRITE_BYTES?SEEKFREE_AT24C02
   *DEL*:           000019H   BYTE   INSEG    CODE           ?PR?AT24C02_WRITE_BYTE?SEEKFREE_AT24C02
   *DEL*:           000002H   BYTE   UNIT     EDATA          ?ED?AT24C02_WRITE_BYTES?SEEKFREE_AT24C02
   *DEL*:           000002H   BYTE   UNIT     EDATA          ?ED?AT24C02_READ_BYTES?SEEKFREE_AT24C02
L251 LINKER/LOCATER V4.66.93.0                                                        07/16/2023  18:44:38  PAGE 10


   *DEL*:           000022H   BYTE   INSEG    CODE           ?PR?BLUETOOTH_CH9141_READ_BUFF?SEEKFREE_BLUETOOTH_CH9141
   *DEL*:           0000ABH   BYTE   INSEG    CODE           ?PR?BLUETOOTH_CH9141_SEND_BUFF?SEEKFREE_BLUETOOTH_CH9141
   *DEL*:           00003CH   BYTE   INSEG    CODE           ?PR?BLUETOOTH_CH9141_INIT?SEEKFREE_BLUETOOTH_CH9141
   *DEL*:           000006H   BYTE   UNIT     EDATA          ?ED?BLUETOOTH_CH9141_SEND_BUFF?SEEKFREE_BLUETOOTH_CH9141
   *DEL*:           000004H   BYTE   UNIT     EDATA          ?ED?BLUETOOTH_CH9141_READ_BUFF?SEEKFREE_BLUETOOTH_CH9141
   *DEL*:           000022H   BYTE   INSEG    CODE           ?PR?WIRELESS_CH573_READ_BUFF?SEEKFREE_WIRELESS_CH573
   *DEL*:           00005DH   BYTE   INSEG    CODE           ?PR?WIRELESS_CH573_SEND_BUFF?SEEKFREE_WIRELESS_CH573
   *DEL*:           00003CH   BYTE   INSEG    CODE           ?PR?WIRELESS_CH573_INIT?SEEKFREE_WIRELESS_CH573
   *DEL*:           000002H   BYTE   UNIT     EDATA          ?ED?WIRELESS_CH573_SEND_BUFF?SEEKFREE_WIRELESS_CH573
   *DEL*:           000004H   BYTE   UNIT     EDATA          ?ED?WIRELESS_CH573_READ_BUFF?SEEKFREE_WIRELESS_CH573
   *DEL*:           000027H   BYTE   INSEG    CODE           ?PR?VL53L0X_SET_SIGNAL_RATE_LIMIT?SEEKFREE_VL53L0X
   *DEL*:           00017CH   BYTE   INSEG    CODE           ?PR?VL53L0X_GET_SPAD_INFO?SEEKFREE_VL53L0X
   *DEL*:           00005DH   BYTE   INSEG    CODE           ?PR?VL53L0X_GET_DISTANCE?SEEKFREE_VL53L0X
   *DEL*:           000077H   BYTE   INSEG    CODE           ?PR?VL53L0X_PERFORM_SINGLE_REF_CALIBRATION?SEEKFREE_VL53L0
                                                             -X
   *DEL*:           000073H   BYTE   INSEG    CODE           ?PR?VL53L0X_GET_MEASUREMENT_TIMING_BUDGET?SEEKFREE_VL53L0X
   *DEL*:           000029H   BYTE   INSEG    CODE           ?PR?VL53L0X_SIMIIC_READ_REG?SEEKFREE_VL53L0X
   *DEL*:           000054H   BYTE   INSEG    CODE           ?PR?VL53L0X_SIMIIC_READ_REGS_1?SEEKFREE_VL53L0X
   *DEL*:           0000E4H   BYTE   INSEG    CODE           ?PR?VL53L0X_SET_MEASUREMENT_TIMING_BUDGET?SEEKFREE_VL53L0X
   *DEL*:           000022H   BYTE   INSEG    CODE           ?PR?VL53L0X_SIMIIC_WRITE_REG?SEEKFREE_VL53L0X
   *DEL*:           00061BH   BYTE   INSEG    CODE           ?PR?VL53L0X_INIT?SEEKFREE_VL53L0X
   *DEL*:           000006H   BYTE   UNIT     EDATA          ?ED?VL53L0X_SIMIIC_READ_REGS_1?SEEKFREE_VL53L0X
   *DEL*:           000008H   BYTE   UNIT     EDATA          ?ED?VL53L0X_GET_SPAD_INFO?SEEKFREE_VL53L0X
   *DEL*:           000003H   BYTE   UNIT     EDATA          ?ED?VL53L0X_PERFORM_SINGLE_REF_CALIBRATION?SEEKFREE_VL53L0
                                                             -X
   *DEL*:           000023H   BYTE   UNIT     EDATA          ?ED?VL53L0X_SET_MEASUREMENT_TIMING_BUDGET?SEEKFREE_VL53L0X
   *DEL*:           00001BH   BYTE   UNIT     EDATA          ?ED?VL53L0X_GET_MEASUREMENT_TIMING_BUDGET?SEEKFREE_VL53L0X
   *DEL*:           000003H   BYTE   UNIT     EDATA          ?ED?VL53L0X_SET_SIGNAL_RATE_LIMIT?SEEKFREE_VL53L0X
   *DEL*:           000003H   BYTE   UNIT     EDATA          ?ED?VL53L0X_GET_DISTANCE?SEEKFREE_VL53L0X
   *DEL*:           000012H   BYTE   UNIT     EDATA          ?ED?VL53L0X_INIT?SEEKFREE_VL53L0X
   *DEL*:           00002BH   BYTE   INSEG    CODE           ?PR?SENDSPEED?MOVE
   *DEL*:           000178H   BYTE   INSEG    CODE           ?PR?AVOID_BARRIER?BARRIER
   *DEL*:           000028H   BYTE   UNIT     EDATA          ?ED?PRINTF
   *DEL*:           00001AH   BYTE   INSEG    CODE           ?PR?MEMSET?_?MEMSET



OVERLAY MAP OF MODULE:   .\Out_File\SEEKFREE (board)


FUNCTION/MODULE                               EDATA_GROUP
--> CALLED FUNCTION/MODULE                    START  STOP
=========================================================
UART1_Isr/isr                                 ----- -----

*** NEW ROOT ********************************

UART2_Isr/isr                                 ----- -----

*** NEW ROOT ********************************

UART3_Isr/isr                                 ----- -----

*** NEW ROOT ********************************

UART4_Isr/isr                                 ----- -----
  +--> wireless_uart_callback/SEEKFREE_WIRELESS
  +--> bluetooth_ch9141_uart_callback/SEEKFREE_BLUETOOTH_CH9141
  +--> wireless_ch573_callback/SEEKFREE_WIRELESS_CH573

wireless_uart_callback/SEEKFREE_WIRELESS      ----- -----
  +--> fifo_write_buffer/zf_fifo

fifo_write_buffer/zf_fifo                     03F9H 0404H
  +--> memcpy?_/memcpy
L251 LINKER/LOCATER V4.66.93.0                                                        07/16/2023  18:44:38  PAGE 11


  +--> fifo_head_offset/zf_fifo

memcpy?_/memcpy                               ----- -----

fifo_head_offset/zf_fifo                      ----- -----

bluetooth_ch9141_uart_callback/SEEKFREE_+     ----- -----
... BLUETOOTH_CH9141
  +--> fifo_write_buffer/zf_fifo

wireless_ch573_callback/SEEKFREE_WIRELES+     ----- -----
... S_CH573
  +--> fifo_write_buffer/zf_fifo

*** NEW ROOT ********************************

INT0_Isr/isr                                  ----- -----

*** NEW ROOT ********************************

INT1_Isr/isr                                  ----- -----

*** NEW ROOT ********************************

INT2_Isr/isr                                  ----- -----

*** NEW ROOT ********************************

INT3_Isr/isr                                  ----- -----

*** NEW ROOT ********************************

INT4_Isr/isr                                  ----- -----

*** NEW ROOT ********************************

TM0_Isr/isr                                   ----- -----

*** NEW ROOT ********************************

TM1_Isr/isr                                   ----- -----

*** NEW ROOT ********************************

TM2_Isr/isr                                   ----- -----

*** NEW ROOT ********************************

TM3_Isr/isr                                   ----- -----

*** NEW ROOT ********************************

TM4_Isr/isr                                   ----- -----
  +--> Getspeed/move

Getspeed/move                                 ----- -----
  +--> ctimer_count_read/zf_tim
  +--> ctimer_count_clean/zf_tim

ctimer_count_read/zf_tim                      ----- -----

ctimer_count_clean/zf_tim                     ----- -----

*** NEW ROOT ********************************

L251 LINKER/LOCATER V4.66.93.0                                                        07/16/2023  18:44:38  PAGE 12


?C_C51STARTUP?1                               ----- -----

*** NEW ROOT ********************************

?C_C51STARTUP                                 ----- -----

*** NEW ROOT ********************************

?C_C51STARTUP?3                               ----- -----
  +--> main/main

main/main                                     ----- -----
  +--> Init_all/init
  +--> Garage_out/garage
  +--> Garage_in/garage
  +--> ADC_Read/sensor
  +--> Pos_Deviation/sensor
  +--> Servos_Control/sensor
  +--> pwm_duty/zf_pwm

Init_all/init                                 ----- -----
  +--> DisableGlobalIRQ/board
  +--> board_init/board
  +--> mpu6050_init/SEEKFREE_MPU6050
  +--> adc_init/zf_adc
  +--> ctimer_count_init/zf_tim
  +--> pit_timer_ms/zf_tim
  +--> pwm_init/zf_pwm
  +--> PID_Init/pid
  +--> delay_ms/zf_delay
  +--> EnableGlobalIRQ/board

DisableGlobalIRQ/board                        ----- -----

board_init/board                              ----- -----
  +--> delay_init/zf_delay
  +--> uart_init/zf_uart

delay_init/zf_delay                           ----- -----
  +--> ?C?SLDIV/?C?SLDIV

?C?SLDIV/?C?SLDIV                             ----- -----
  +--> ?C?ULIDIV/?C?ULDIV

?C?ULIDIV/?C?ULDIV                            ----- -----

uart_init/zf_uart                             0405H 040AH
  +--> ?C?ULIDIV/?C?ULDIV

mpu6050_init/SEEKFREE_MPU6050                 ----- -----
  +--> delay_ms/zf_delay
  +--> mpu6050_self1_check/SEEKFREE_MPU6050
  +--> simiic_write_reg/SEEKFREE_IIC

delay_ms/zf_delay                             ----- -----

mpu6050_self1_check/SEEKFREE_MPU6050          ----- -----
  +--> simiic_write_reg/SEEKFREE_IIC
  +--> delay_ms/zf_delay
  +--> simiic_read_reg/SEEKFREE_IIC

simiic_write_reg/SEEKFREE_IIC                 ----- -----
  +--> simiic_start/SEEKFREE_IIC
  +--> send_ch/SEEKFREE_IIC
  +--> simiic_stop/SEEKFREE_IIC
L251 LINKER/LOCATER V4.66.93.0                                                        07/16/2023  18:44:38  PAGE 13



simiic_start/SEEKFREE_IIC                     ----- -----
  +--> simiic_delay/SEEKFREE_IIC

simiic_delay/SEEKFREE_IIC                     ----- -----

send_ch/SEEKFREE_IIC                          ----- -----
  +--> simiic_delay/SEEKFREE_IIC
  +--> sccb_waitack/SEEKFREE_IIC

sccb_waitack/SEEKFREE_IIC                     ----- -----
  +--> simiic_delay/SEEKFREE_IIC

simiic_stop/SEEKFREE_IIC                      ----- -----
  +--> simiic_delay/SEEKFREE_IIC

simiic_read_reg/SEEKFREE_IIC                  ----- -----
  +--> simiic_start/SEEKFREE_IIC
  +--> send_ch/SEEKFREE_IIC
  +--> simiic_stop/SEEKFREE_IIC
  +--> read_ch/SEEKFREE_IIC

read_ch/SEEKFREE_IIC                          ----- -----
  +--> simiic_delay/SEEKFREE_IIC
  +--> simiic_sendack/SEEKFREE_IIC

simiic_sendack/SEEKFREE_IIC                   ----- -----
  +--> simiic_delay/SEEKFREE_IIC

adc_init/zf_adc                               ----- -----

ctimer_count_init/zf_tim                      ----- -----

pit_timer_ms/zf_tim                           ----- -----
  +--> ?C?SLDIV/?C?SLDIV

pwm_init/zf_pwm                               0405H 040CH
  +--> pwm_set_gpio/zf_pwm
  +--> ?C?ULIDIV/?C?ULDIV

pwm_set_gpio/zf_pwm                           ----- -----
  +--> gpio_mode/zf_gpio

gpio_mode/zf_gpio                             ----- -----

PID_Init/pid                                  0405H 0414H

EnableGlobalIRQ/board                         ----- -----

Garage_out/garage                             ----- -----
  +--> pwm_duty/zf_pwm
  +--> delay_ms/zf_delay

pwm_duty/zf_pwm                               ----- -----

Garage_in/garage                              ----- -----
  +--> pwm_duty/zf_pwm
  +--> delay_ms/zf_delay

ADC_Read/sensor                               ----- -----
  +--> adc_once/zf_adc
  +--> circle_judge/circle

adc_once/zf_adc                               ----- -----

L251 LINKER/LOCATER V4.66.93.0                                                        07/16/2023  18:44:38  PAGE 14


circle_judge/circle                           ----- -----

Pos_Deviation/sensor                          ----- -----
  +--> circle_move/circle

circle_move/circle                            ----- -----

Servos_Control/sensor                         ----- -----
  +--> PID_Calc_Positional/pid
  +--> pwm_duty/zf_pwm
  +--> Speedcontrol/move

PID_Calc_Positional/pid                       0405H 0408H
  +--> Limit/pid

Limit/pid                                     ----- -----

Speedcontrol/move                             ----- -----
  +--> PID_Calc_Incremental/pid
  +--> pwm_duty/zf_pwm

PID_Calc_Incremental/pid                      ----- -----
  +--> Limit/pid

*** NEW ROOT ********************************

?C_C51STARTUP?2                               ----- -----



PUBLIC SYMBOLS OF MODULE:  .\Out_File\SEEKFREE (board)


      VALUE       CLASS    TYPE      PUBLIC SYMBOL NAME
      =================================================
      00FF111EH   CODE     NEAR LAB  ?C?CASTF
      000000FFH   NUMBER   ---       ?C?CODESEG
      00FF10EBH   CODE     NEAR LAB  ?C?FCASTC
      00FF10E6H   CODE     NEAR LAB  ?C?FCASTI
      00FF10E1H   CODE     NEAR LAB  ?C?FCASTL
      00FF0EB4H   CODE     ---       ?C?FPADD
      00FF108FH   CODE     ---       ?C?FPCMP
      00FF108DH   CODE     ---       ?C?FPCMP3
      00FF1622H   CODE     ---       ?C?FPCONVERT
      00FF100CH   CODE     ---       ?C?FPDIV
      00FF1187H   CODE     ---       ?C?FPGETOPN2
      00FF0F6CH   CODE     ---       ?C?FPMUL
      00FF11C4H   CODE     ---       ?C?FPNANRESULT
      00FF10D3H   CODE     ---       ?C?FPNEG
      00FF11CCH   CODE     ---       ?C?FPOVERFLOW
      00FF11A0H   CODE     ---       ?C?FPRESULT
      00FF11B6H   CODE     ---       ?C?FPRESULT2
      00FF16DAH   CODE     ---       ?C?FPROUND
      00FF0EB1H   CODE     ---       ?C?FPSUB
      00FF11C9H   CODE     ---       ?C?FPUNDERFLOW
      00FF174DH   CODE     ---       ?C?FTNPWR
      00FF33B5H   CODE     ---       ?C?INITEDATA
      00FF406AH   HCONST   WORD      ?C?INITEDATA_END
      00FF17C7H   CODE     ---       ?C?LIMUL
      00FF17B6H   CODE     ---       ?C?LMUL
      00FF1205H   CODE     ---       ?C?PRNFMT
      00FF1784H   CODE     ---       ?C?SIDIV
      00FF1823H   CODE     NEAR LAB  ?C?SLDIV
      00FF0000H   CODE     ---       ?C?STARTUP
      00FF17D2H   CODE     NEAR LAB  ?C?ULDIV
L251 LINKER/LOCATER V4.66.93.0                                                        07/16/2023  18:44:38  PAGE 15


      00FF17D0H   CODE     NEAR LAB  ?C?ULIDIV
      00000001H   NUMBER   ---       ?C?XDATASEG
      00FF0000H   CODE     ---       ?C_STARTUP
*DEL*:1FFFFFF8H   EDATA    BYTE      ?data_conversion?BYTE
*DEL*:1FFFFFF8H   EDATA    BYTE      ?fifo_init?BYTE
*DEL*:1FFFFFFCH   EDATA    BYTE      ?fifo_read_buffer?BYTE
      000003F5H   EDATA    BYTE      ?fifo_write_buffer?BYTE
*DEL*:1FFFFFFAH   EDATA    BYTE      ?iic_init?BYTE
*DEL*:1FFFFFFCH   EDATA    BYTE      ?ips114_showfloat?BYTE
*DEL*:1FFFFFFCH   EDATA    BYTE      ?ips114_showfloat_simspi?BYTE
*DEL*:1FFFFFFCH   EDATA    BYTE      ?lcd_showfloat?BYTE
*DEL*:1FFFFFFCH   EDATA    BYTE      ?lcd_showfloat_simspi?BYTE
      0000045CH   EDATA    BYTE      ?number_conversion_ascii?BYTE
*DEL*:1FFFFFFCH   EDATA    BYTE      ?oled_printf_float?BYTE
*DEL*:1FFFFFFCH   EDATA    BYTE      ?oled_printf_float_spi?BYTE
      000003FDH   EDATA    BYTE      ?PID_Calc_Positional?BYTE
      000003FDH   EDATA    BYTE      ?PID_Init?BYTE
*DEL*:00000028H   EDATA    ---       ?printf?BYTE
*DEL*:1FFFFFFAH   EDATA    BYTE      ?pwm_freq?BYTE
      00000403H   EDATA    BYTE      ?pwm_init?BYTE
*DEL*:1FFFFFF7H   EDATA    BYTE      ?spi_init?BYTE
      000003FFH   EDATA    BYTE      ?uart_init?BYTE
*DEL*:00000028H   EDATA    BYTE      ?zf_sprintf?BYTE
      000002C0H   EDATA    ---       ad
*SFR* 000000BCH   DATA     BYTE      ADC_CONTR
      00FF32CBH   CODE     ---       adc_init
      000002A2H   EDATA    INT       ADC_MAX
      000002A0H   EDATA    INT       ADC_MIN
      00FF3AF8H   CODE     ---       adc_once
      00FF251BH   CODE     ---       ADC_Read
*SFR* 000000BDH   DATA     BYTE      ADC_RES
*SFR* 000000BEH   DATA     BYTE      ADC_RESL
      00000423H   EDATA    INT       adc_rm
*SFR* 000000DEH   DATA     BYTE      ADCCFG
      0000041FH   EDATA    FLOAT     angle
*DEL*:00000000H   CODE     ---       at24c02_read_byte
*DEL*:00000000H   CODE     ---       at24c02_read_bytes
*DEL*:00000000H   CODE     ---       at24c02_write_byte
*DEL*:00000000H   CODE     ---       at24c02_write_bytes
*SFR* 000000EFH   DATA     BYTE      AUXINTIF
*SFR* 0000008EH   DATA     BYTE      AUXR
*DEL*:00000000H   CODE     ---       Avoid_barrier
      00000021H.2 BIT      BIT       barrier_back
      00000020H.4 BIT      BIT       Barrier_flag
      00000021H.1 BIT      BIT       barrier_forward
      00000020H.7 BIT      BIT       barrier_in
      00000021H.0 BIT      BIT       barrier_out
      00000425H   EDATA    INT       barrier_time
*DEL*:00000000H   CODE     ---       bluetooth_ch9141_init
*DEL*:00000000H   CODE     ---       bluetooth_ch9141_read_buff
*DEL*:00000000H   CODE     ---       bluetooth_ch9141_send_buff
      00FF3E94H   CODE     ---       bluetooth_ch9141_uart_callback
      00FF317BH   CODE     ---       board_init
      000001EBH   EDATA    ---       busy
*DEL*:00000000H   CODE     ---       ccd_collect
      00000023H   EDATA    ---       ccd_data
*DEL*:00000000H   CODE     ---       ccd_init
*DEL*:00000000H   CODE     ---       ccd_send_data
      00FF2FA2H   CODE     ---       circle_judge
      00FF2B2AH   CODE     ---       circle_move
*DEL*:00000000H   CODE     ---       CRC_CHECK
      000002B2H   EDATA    INT       cross_flag
      000002ECH   EDATA    INT       cross_num
      00FF35E1H   CODE     ---       ctimer_count_clean
      00FF37B7H   CODE     ---       ctimer_count_init
L251 LINKER/LOCATER V4.66.93.0                                                        07/16/2023  18:44:38  PAGE 16


      00FF36D1H   CODE     ---       ctimer_count_read
*DEL*:00000000H   CODE     ---       data_conversion
      00FF39B5H   CODE     ---       delay_init
      00FF3EC6H   CODE     ---       delay_ms
      00FF3E62H   CODE     ---       delay_us
      00FF0016H   CODE     ---       DisableGlobalIRQ
*SFR* 000000A8H.7 DATA     BIT       EA
      00FF3EDDH   CODE     ---       eeprom_trig
      000001F2H   EDATA    INT       element_num
      00FF000EH   CODE     ---       EnableGlobalIRQ
*DEL*:00000000H   CODE     ---       encoder_angle_simspi
*DEL*:00000000H   CODE     ---       encoder_angle_spi
      00FF0006H   CODE     ---       encoder_delay_us
*DEL*:00000000H   CODE     ---       encoder_init_simspi
*DEL*:00000000H   CODE     ---       encoder_init_spi
      00000456H   EDATA    INT       encoder_left
      000001F0H   EDATA    INT       encoder_num
      00000454H   EDATA    INT       encoder_right
*DEL*:00000000H   CODE     ---       encoder_self4_check
*DEL*:00000000H   CODE     ---       encoder_self5_check
*DEL*:00000000H   CODE     ---       encoder_simspi_r_reg_byte
*DEL*:00000000H   CODE     ---       encoder_simspi_w_reg_byte
*DEL*:00000000H   CODE     ---       encoder_spi_r_reg_byte
*DEL*:00000000H   CODE     ---       encoder_spi_w_reg_byte
      00000020H.5 BIT      BIT       encoder_start
      00000458H   EDATA    FLOAT     err_add
*SFR* 000000A8H.4 DATA     BIT       ES
*SFR* 000000A8H.1 DATA     BIT       ET0
*SFR* 000000A8H.3 DATA     BIT       ET1
*SFR* 000000A8H.0 DATA     BIT       EX0
*SFR* 000000A8H.2 DATA     BIT       EX1
*DEL*:00000000H   CODE     ---       exit_init
*DEL*:00000000H   CODE     ---       extern_iap_write_bytes
*SFR* 000000D0H.5 DATA     BIT       F0
*DEL*:00000000H   CODE     ---       fifo_clear
*DEL*:00000000H   CODE     ---       fifo_end_offset
      00FF3846H   CODE     ---       fifo_head_offset
*DEL*:00000000H   CODE     ---       fifo_init
*DEL*:00000000H   CODE     ---       fifo_read_buffer
*DEL*:00000000H   CODE     ---       fifo_used
      00FF2D2FH   CODE     ---       fifo_write_buffer
      00000020H.6 BIT      BIT       first_barrier
      00000020H.2 BIT      BIT       flag
      00FF2C2FH   CODE     ---       Garage_in
      00000020H.0 BIT      BIT       Garage_in_flag
      00FF358EH   CODE     ---       Garage_out
      00000020H.1 BIT      BIT       Garage_out_flag
*DEL*:00000000H   CODE     ---       get_icm20602_accdata_simiic
*DEL*:00000000H   CODE     ---       get_icm20602_accdata_simspi
*DEL*:00000000H   CODE     ---       get_icm20602_gyro_simiic
*DEL*:00000000H   CODE     ---       get_icm20602_gyro_simspi
      00FF39EEH   CODE     ---       Getspeed
      00FF1857H   CODE     ---       gpio_mode
*DEL*:00000000H   CODE     ---       gpio_pull_set
*SFR* 000000F6H   DATA     BYTE      IAP_ADDRE
*SFR* 000000C3H   DATA     BYTE      IAP_ADDRH
*SFR* 000000C4H   DATA     BYTE      IAP_ADDRL
*SFR* 000000C5H   DATA     BYTE      IAP_CMD
*SFR* 000000C7H   DATA     BYTE      IAP_CONTR
*SFR* 000000C2H   DATA     BYTE      IAP_DATA
*DEL*:00000000H   CODE     ---       iap_erase_page
*DEL*:00000000H   CODE     ---       iap_get_cmd_state
*DEL*:00000000H   CODE     ---       iap_idle
*DEL*:00000000H   CODE     ---       iap_init
*DEL*:00000000H   CODE     ---       iap_read_bytes
L251 LINKER/LOCATER V4.66.93.0                                                        07/16/2023  18:44:38  PAGE 17


*DEL*:00000000H   CODE     ---       iap_set_tps
*SFR* 000000F5H   DATA     BYTE      IAP_TPS
*SFR* 000000C6H   DATA     BYTE      IAP_TRIG
*DEL*:00000000H   CODE     ---       iap_write_bytes
*DEL*:00000000H   CODE     ---       icm20602_init_simiic
*DEL*:00000000H   CODE     ---       icm20602_init_simspi
*DEL*:00000000H   CODE     ---       icm20602_self1_check
*DEL*:00000000H   CODE     ---       icm20602_self4_check
      00000008H   EDATA    INT       icm_acc_x
      0000000AH   EDATA    INT       icm_acc_y
      0000000CH   EDATA    INT       icm_acc_z
      0000000EH   EDATA    INT       icm_gyro_x
      00000010H   EDATA    INT       icm_gyro_y
      00000012H   EDATA    INT       icm_gyro_z
*DEL*:00000000H   CODE     ---       icm_simspi_r_reg_byte
*DEL*:00000000H   CODE     ---       icm_simspi_r_reg_bytes
*DEL*:00000000H   CODE     ---       icm_simspi_w_reg_byte
      00FF3DE8H   CODE     ---       icm_simspi_wr_byte
*SFR* 000000A8H   DATA     BYTE      IE
*SFR* 000000AFH   DATA     BYTE      IE2
      00000427H   EDATA    BYTE      IIC_ad_main
      00000429H   EDATA    BYTE      IIC_ad_sub
      0000042AH   EDATA    ---       IIC_buf
*DEL*:00000000H   CODE     ---       iic_change_pin
      00FF3EF2H   CODE     ---       iic_delay_us
*DEL*:00000000H   CODE     ---       iic_init
      00000428H   EDATA    BYTE      IIC_num
*DEL*:00000000H   CODE     ---       iic_read_reg
*DEL*:00000000H   CODE     ---       iic_read_reg_bytes
*DEL*:00000000H   CODE     ---       iic_write_reg
      00FF27CAH   CODE     ---       Init_all
      00FF0011H   CODE     ---       INT0_Isr
      00FF0012H   CODE     ---       INT1_Isr
      00FF3FB0H   CODE     ---       INT2_Isr
      00FF3FB8H   CODE     ---       INT3_Isr
      00FF3FC0H   CODE     ---       INT4_Isr
*SFR* 0000008FH   DATA     BYTE      INTCLKO
*SFR* 000000B8H   DATA     BYTE      IP
*SFR* 000000B5H   DATA     BYTE      IP2
*SFR* 000000B6H   DATA     BYTE      IP2H
*SFR* 000000B7H   DATA     BYTE      IPH
*DEL*:00000000H   CODE     ---       ips114_clear
*DEL*:00000000H   CODE     ---       ips114_clear_simspi
*DEL*:00000000H   CODE     ---       ips114_drawpoint
*DEL*:00000000H   CODE     ---       ips114_drawpoint_simspi
*DEL*:00000000H   CODE     ---       ips114_init
*DEL*:00000000H   CODE     ---       ips114_init_simspi
*DEL*:00000000H   CODE     ---       ips114_set_region
*DEL*:00000000H   CODE     ---       ips114_set_region_simspi
*DEL*:00000000H   CODE     ---       ips114_showchar
*DEL*:00000000H   CODE     ---       ips114_showchar_simspi
*DEL*:00000000H   CODE     ---       ips114_showfloat
*DEL*:00000000H   CODE     ---       ips114_showfloat_simspi
*DEL*:00000000H   CODE     ---       ips114_showint16
*DEL*:00000000H   CODE     ---       ips114_showint16_simspi
*DEL*:00000000H   CODE     ---       ips114_showint32
*DEL*:00000000H   CODE     ---       ips114_showint32_simspi
*DEL*:00000000H   CODE     ---       ips114_showint8
*DEL*:00000000H   CODE     ---       ips114_showint8_simspi
*DEL*:00000000H   CODE     ---       ips114_showstr
*DEL*:00000000H   CODE     ---       ips114_showstr_simspi
*DEL*:00000000H   CODE     ---       ips114_showuint16
*DEL*:00000000H   CODE     ---       ips114_showuint16_simspi
*DEL*:00000000H   CODE     ---       ips114_showuint8
*DEL*:00000000H   CODE     ---       ips114_showuint8_simspi
L251 LINKER/LOCATER V4.66.93.0                                                        07/16/2023  18:44:38  PAGE 18


*DEL*:00000000H   CODE     ---       ips114_writeData
      00FF3E07H   CODE     ---       ips114_writedata_16bit
*DEL*:00000000H   CODE     ---       ips114_writeData_simspi
      00FF3BAEH   CODE     ---       ips114_writeDatai_16bit_simspi
      00FF3F92H   CODE     ---       ips114_writeIndex
      00FF3C83H   CODE     ---       ips114_writeIndex_simspi
*SFR* 00000088H.0 DATA     BIT       IT0
*SFR* 00000088H.2 DATA     BIT       IT1
      000002F0H   EDATA    FLOAT     l
*DEL*:00000000H   CODE     ---       lcd_clear
*DEL*:00000000H   CODE     ---       lcd_clear_simspi
*DEL*:00000000H   CODE     ---       lcd_drawpoint
*DEL*:00000000H   CODE     ---       lcd_drawpoint_simspi
*DEL*:00000000H   CODE     ---       lcd_init
*DEL*:00000000H   CODE     ---       lcd_init_simspi
      00FF3632H   CODE     ---       lcd_set_region
      00FF376BH   CODE     ---       lcd_set_region_simspi
*DEL*:00000000H   CODE     ---       lcd_showchar
*DEL*:00000000H   CODE     ---       lcd_showchar_simspi
*DEL*:00000000H   CODE     ---       lcd_showfloat
*DEL*:00000000H   CODE     ---       lcd_showfloat_simspi
*DEL*:00000000H   CODE     ---       lcd_showint16
*DEL*:00000000H   CODE     ---       lcd_showint16_simspi
*DEL*:00000000H   CODE     ---       lcd_showint32
*DEL*:00000000H   CODE     ---       lcd_showint32_simspi
*DEL*:00000000H   CODE     ---       lcd_showint8
*DEL*:00000000H   CODE     ---       lcd_showint8_simspi
*DEL*:00000000H   CODE     ---       lcd_showstr
*DEL*:00000000H   CODE     ---       lcd_showstr_simspi
*DEL*:00000000H   CODE     ---       lcd_showuint16
*DEL*:00000000H   CODE     ---       lcd_showuint16_simspi
*DEL*:00000000H   CODE     ---       lcd_showuint8
*DEL*:00000000H   CODE     ---       lcd_showuint8_simspi
      00FF3F88H   CODE     ---       lcd_writeData
      00FF3DC9H   CODE     ---       lcd_writedata_16bit
      00FF3B82H   CODE     ---       lcd_writeData_16bit_simspi
      00FF3C5AH   CODE     ---       lcd_writeData_simspi
      00FF3F7EH   CODE     ---       lcd_writeIndex
      00FF3C31H   CODE     ---       lcd_writeIndex_simspi
      000002BEH   EDATA    INT       leftspeed
      00FF3C06H   CODE     ---       Limit
      000002E4H   EDATA    FLOAT     lm
      00FF3439H   CODE     ---       main
      00FF3CFEH   CODE     ---       memcpy?_
*DEL*:00000000H   CODE     ---       memset?_
*DEL*:00000000H   CODE     ---       mpu6050_get_accdata
*DEL*:00000000H   CODE     ---       mpu6050_get_gyro
      00FF3491H   CODE     ---       mpu6050_init
      00FF3BDAH   CODE     ---       mpu6050_self1_check
      00000014H   EDATA    INT       mpu_acc_x
      00000016H   EDATA    INT       mpu_acc_y
      00000018H   EDATA    INT       mpu_acc_z
      0000001AH   EDATA    INT       mpu_gyro_x
      0000001CH   EDATA    INT       mpu_gyro_y
      0000001EH   EDATA    INT       mpu_gyro_z
      00FF30E9H   CODE     ---       number_conversion_ascii
*DEL*:00000000H   CODE     ---       NVIC_SetPriority
      00FF0C86H   CODE     ---       oled_6x8
      00FF00A6H   CODE     ---       oled_8x16
*DEL*:00000000H   CODE     ---       oled_clrpixel
*DEL*:00000000H   CODE     ---       oled_clrpixel_spi
*DEL*:00000000H   CODE     ---       oled_dis_bmp
*DEL*:00000000H   CODE     ---       oled_dis_bmp_spi
*DEL*:00000000H   CODE     ---       oled_fill
*DEL*:00000000H   CODE     ---       oled_fill_spi
L251 LINKER/LOCATER V4.66.93.0                                                        07/16/2023  18:44:38  PAGE 19


*DEL*:00000000H   CODE     ---       oled_hexascii
*DEL*:00000000H   CODE     ---       oled_hexascii_spi
*DEL*:00000000H   CODE     ---       oled_init
*DEL*:00000000H   CODE     ---       oled_init_spi
*DEL*:00000000H   CODE     ---       oled_int16
*DEL*:00000000H   CODE     ---       oled_int16_spi
*DEL*:00000000H   CODE     ---       oled_p6x8str
*DEL*:00000000H   CODE     ---       oled_p6x8str_spi
*DEL*:00000000H   CODE     ---       oled_p8x16str
*DEL*:00000000H   CODE     ---       oled_p8x16str_spi
*DEL*:00000000H   CODE     ---       oled_print_chinese
*DEL*:00000000H   CODE     ---       oled_print_chinese_spi
*DEL*:00000000H   CODE     ---       oled_printf_float
*DEL*:00000000H   CODE     ---       oled_printf_float_spi
*DEL*:00000000H   CODE     ---       oled_printf_int32
*DEL*:00000000H   CODE     ---       oled_printf_int32_spi
*DEL*:00000000H   CODE     ---       oled_putpixel
*DEL*:00000000H   CODE     ---       oled_putpixel_spi
      00FF3D23H   CODE     ---       oled_set_pos
      00FF3D68H   CODE     ---       oled_set_pos_spi
*DEL*:00000000H   CODE     ---       oled_uint16
*DEL*:00000000H   CODE     ---       oled_uint16_spi
      00FF3CACH   CODE     ---       oled_wrcmd
      00FF3F9CH   CODE     ---       oled_wrcmd_spi
      00FF3CD5H   CODE     ---       oled_wrdat
      00FF3FA6H   CODE     ---       oled_wrdat_spi
*SFR* 00000080H   DATA     BYTE      P0
*SFR* 00000080H.7 DATA     BIT       P07
*SFR* 00000094H   DATA     BYTE      P0M0
*SFR* 00000093H   DATA     BYTE      P0M1
*SFR* 00000090H   DATA     BYTE      P1
*SFR* 00000092H   DATA     BYTE      P1M0
*SFR* 00000091H   DATA     BYTE      P1M1
*SFR* 000000A0H   DATA     BYTE      P2
*SFR* 000000A0H.0 DATA     BIT       P20
*SFR* 000000A0H.1 DATA     BIT       P21
*SFR* 000000A0H.2 DATA     BIT       P22
*SFR* 000000A0H.3 DATA     BIT       P23
*SFR* 000000A0H.4 DATA     BIT       P24
*SFR* 000000A0H.5 DATA     BIT       P25
*SFR* 000000A0H.6 DATA     BIT       P26
*SFR* 000000A0H.7 DATA     BIT       P27
*SFR* 00000096H   DATA     BYTE      P2M0
*SFR* 00000095H   DATA     BYTE      P2M1
*SFR* 000000B0H   DATA     BYTE      P3
*SFR* 000000B0H.2 DATA     BIT       P32
*SFR* 000000B0H.3 DATA     BIT       P33
*SFR* 000000B2H   DATA     BYTE      P3M0
*SFR* 000000B1H   DATA     BYTE      P3M1
*SFR* 000000C0H   DATA     BYTE      P4
*SFR* 000000C0H.0 DATA     BIT       P40
*SFR* 000000C0H.1 DATA     BIT       P41
*SFR* 000000C0H.2 DATA     BIT       P42
*SFR* 000000C0H.3 DATA     BIT       P43
*SFR* 000000C0H.7 DATA     BIT       P47
*SFR* 000000B4H   DATA     BYTE      P4M0
*SFR* 000000B3H   DATA     BYTE      P4M1
*SFR* 000000C8H   DATA     BYTE      P5
*SFR* 000000C8H.0 DATA     BIT       P50
*SFR* 000000C8H.1 DATA     BIT       P51
*SFR* 000000C8H.2 DATA     BIT       P52
*SFR* 000000CAH   DATA     BYTE      P5M0
*SFR* 000000C9H   DATA     BYTE      P5M1
*SFR* 000000E8H   DATA     BYTE      P6
*SFR* 000000CCH   DATA     BYTE      P6M0
L251 LINKER/LOCATER V4.66.93.0                                                        07/16/2023  18:44:38  PAGE 20


*SFR* 000000CBH   DATA     BYTE      P6M1
*SFR* 000000F8H   DATA     BYTE      P7
*SFR* 000000E2H   DATA     BYTE      P7M0
*SFR* 000000E1H   DATA     BYTE      P7M1
*SFR* 000000A2H   DATA     BYTE      P_SW1
*SFR* 000000BAH   DATA     BYTE      P_SW2
      00FF2392H   CODE     ---       PID_Calc_Incremental
      00FF2A23H   CODE     ---       PID_Calc_Positional
      00FF3329H   CODE     ---       PID_Init
      00000264H   EDATA    ---       PID_Left
      000001F4H   EDATA    ---       PID_Right
      0000022CH   EDATA    ---       PID_Servos
      00FF3055H   CODE     ---       pit_timer_ms
      00FF2673H   CODE     ---       Pos_Deviation
      00FF115BH   CODE     NEAR LAB  printf
*DEL*:00000000H   CODE     ---       printf_reverse_order
*SFR* 000000D0H   DATA     BYTE      PSW
      00FF3F57H   CODE     ---       putchar
      00FF408CH   HCONST   ---       PWM_ARR_ADDR
      00FF4094H   HCONST   ---       PWM_CCER_ADDR
      00FF40A4H   HCONST   ---       PWM_CCMR_ADDR
      00FF406CH   HCONST   ---       PWM_CCR_ADDR
      00FF2EEAH   CODE     ---       pwm_duty
*DEL*:00000000H   CODE     ---       pwm_freq
      00FF1C4EH   CODE     ---       pwm_init
      00FF1F32H   CODE     ---       pwm_set_gpio
      000002F4H   EDATA    FLOAT     r
      00FF393FH   CODE     ---       read_ch
      000002EEH   EDATA    INT       READ_MAX
*DEL*:00000000H   CODE     ---       recv_ack
*DEL*:00000000H   CODE     ---       recv_data
      000002B4H   EDATA    INT       rightspeed
      000002E8H   EDATA    FLOAT     rm
*SFR* 000000FFH   DATA     BYTE      RSTCFG
*SFR* 0000009BH   DATA     BYTE      S2BUF
*SFR* 0000009AH   DATA     BYTE      S2CON
*SFR* 000000ADH   DATA     BYTE      S3BUF
*SFR* 000000ACH   DATA     BYTE      S3CON
*SFR* 000000FEH   DATA     BYTE      S4BUF
*SFR* 000000FDH   DATA     BYTE      S4CON
*SFR* 00000099H   DATA     BYTE      SBUF
*SFR* 00000098H   DATA     BYTE      SCON
*DEL*:00000000H   CODE     ---       send_ack
      00FF3B26H   CODE     ---       send_ch
*DEL*:00000000H   CODE     ---       send_data
*DEL*:00000000H   CODE     ---       send_nak
*DEL*:00000000H   CODE     ---       Sendspeed
      000002A4H   EDATA    ---       sensor
      000002DCH   EDATA    FLOAT     sensor_err
      00FF28FDH   CODE     ---       Servos_Control
      000002E0H   EDATA    FLOAT     servos_err
      000002B0H   EDATA    INT       servos_flag
      00000021H.4 BIT      BIT       servos_flag_in
      00000021H.3 BIT      BIT       servos_flag_move
      00000021H.5 BIT      BIT       servos_flag_out
      000002F8H   EDATA    INT       servos_middle
*DEL*:00000000H   CODE     ---       set_zero_position_simspi
*DEL*:00000000H   CODE     ---       set_zero_position_spi
*DEL*:00000000H   CODE     ---       showimage
      00FF3F73H   CODE     ---       simiic_delay
*DEL*:00000000H   CODE     ---       simiic_init
      00FF3A90H   CODE     ---       simiic_read_reg
      00FF3265H   CODE     ---       simiic_read_regs
      00FF3D89H   CODE     ---       simiic_sendack
      00FF3F39H   CODE     ---       simiic_start
L251 LINKER/LOCATER V4.66.93.0                                                        07/16/2023  18:44:38  PAGE 21


      00FF3F07H   CODE     ---       simiic_stop
      00FF3D46H   CODE     ---       simiic_write_reg
*DEL*:00000000H   CODE     ---       simspi_r_reg_byte
*DEL*:00000000H   CODE     ---       simspi_w_reg_byte
*DEL*:00000000H   CODE     ---       simspi_wr_byte
*SFR* 000000CEH   DATA     BYTE      SPCTL
*SFR* 000000CFH   DATA     BYTE      SPDAT
      0000029CH   EDATA    FLOAT     Speed
      000002ACH   EDATA    FLOAT     speed_add
      000002BAH   EDATA    FLOAT     speed_err
      000002D8H   EDATA    FLOAT     speed_low
      00FF3682H   CODE     ---       Speedcontrol
*DEL*:00000000H   CODE     ---       spi_change_mode
*DEL*:00000000H   CODE     ---       spi_change_pin
*DEL*:00000000H   CODE     ---       spi_init
      00FF3F65H   CODE     ---       spi_mosi
*DEL*:00000000H   CODE     ---       spi_r_reg_byte
*DEL*:00000000H   CODE     ---       spi_w_reg_byte
*DEL*:00000000H   CODE     ---       spi_wr_byte
*SFR* 000000CDH   DATA     BYTE      SPSTAT
*DEL*:00000000H   CODE     ---       start
*DEL*:00000000H   CODE     ---       stop
      00000020H.3 BIT      BIT       Stop_flag
      00000444H   EDATA    LONG      sys_clk
*SFR* 000000D6H   DATA     BYTE      T2H
*SFR* 000000D7H   DATA     BYTE      T2L
*SFR* 000000D4H   DATA     BYTE      T3H
*SFR* 000000D5H   DATA     BYTE      T3L
*SFR* 000000D2H   DATA     BYTE      T4H
*SFR* 000000D3H   DATA     BYTE      T4L
*SFR* 000000DDH   DATA     BYTE      T4T3M
*SFR* 00000088H   DATA     BYTE      TCON
      000002B6H   EDATA    INT       temp
      00FF0696H   CODE     ---       tft_ascii
*SFR* 0000008CH   DATA     BYTE      TH0
*SFR* 0000008DH   DATA     BYTE      TH1
      000002B8H   EDATA    INT       time_count
*SFR* 0000008AH   DATA     BYTE      TL0
*SFR* 0000008BH   DATA     BYTE      TL1
      00FF0019H   CODE     ---       TM0_Isr
      00FF001AH   CODE     ---       TM1_Isr
      00FF3FC8H   CODE     ---       TM2_Isr
      00FF3FD0H   CODE     ---       TM3_Isr
      00FF3A5BH   CODE     ---       TM4_Isr
*SFR* 00000089H   DATA     BYTE      TMOD
*SFR* 00000088H.4 DATA     BIT       TR0
*SFR* 00000088H.6 DATA     BIT       TR1
      00000022H   EDATA    BYTE      tsl1401_finish_flag
      00FF38C6H   CODE     ---       UART1_Isr
      00000123H   EDATA    ---       uart1_rx_buff
      00000187H   EDATA    ---       uart1_tx_buff
      00FF3E26H   CODE     ---       UART2_Isr
      00FF3E44H   CODE     ---       UART3_Isr
      00FF31FCH   CODE     ---       UART4_Isr
      00FF21D3H   CODE     ---       uart_init
*DEL*:00000000H   CODE     ---       uart_putbuff
      00FF34E6H   CODE     ---       uart_putchar
*DEL*:00000000H   CODE     ---       uart_putstr
      00000415H   EDATA    ---       virtual_scope_data
      0000045CH   EDATA    WORD      vl53l0x_distance_mm
      0000045EH   EDATA    BYTE      vl53l0x_finsh_flag
*DEL*:00000000H   CODE     ---       vl53l0x_get_distance
*DEL*:00000000H   CODE     ---       vl53l0x_init
      00FF3801H   CODE     ---       wait
      00FF3EADH   CODE     ---       wireless_ch573_callback
L251 LINKER/LOCATER V4.66.93.0                                                        07/16/2023  18:44:38  PAGE 22


*DEL*:00000000H   CODE     ---       wireless_ch573_init
*DEL*:00000000H   CODE     ---       wireless_ch573_read_buff
*DEL*:00000000H   CODE     ---       wireless_ch573_send_buff
      0000045FH   EDATA    INT       wireless_type
      00FF3E7BH   CODE     ---       wireless_uart_callback
*DEL*:00000000H   CODE     ---       wireless_uart_init
*DEL*:00000000H   CODE     ---       wireless_uart_read_buff
*DEL*:00000000H   CODE     ---       wireless_uart_send_buff
*SFR* 000000E9H   DATA     BYTE      WTST
      00000448H   EDATA    WORD      zf_delay_ms
      0000044AH   EDATA    WORD      zf_delay_us
*DEL*:00000000H   CODE     ---       zf_sprintf



SYMBOL TABLE OF MODULE:  .\Out_File\SEEKFREE (board)

      VALUE       REP       CLASS    TYPE      SYMBOL NAME
      ====================================================
      ---         MODULE    ---      ---       board
      00FF000EH   PUBLIC    CODE     ---       EnableGlobalIRQ
      00FF317BH   PUBLIC    CODE     ---       board_init
      00FF0016H   PUBLIC    CODE     ---       DisableGlobalIRQ
      00FF3F57H   PUBLIC    CODE     ---       putchar
      00000444H   PUBLIC    EDATA    LONG      sys_clk
      00000094H   SFRSYM    DATA     BYTE      P0M0
      000000D0H   SFRSYM    DATA     BYTE      PSW
      000000FDH   SFRSYM    DATA     BYTE      S4CON
      000000ACH   SFRSYM    DATA     BYTE      S3CON
      0000009AH   SFRSYM    DATA     BYTE      S2CON
      000000E9H   SFRSYM    DATA     BYTE      WTST
      000000FFH   SFRSYM    DATA     BYTE      RSTCFG
      0000008EH   SFRSYM    DATA     BYTE      AUXR
      000000AFH   SFRSYM    DATA     BYTE      IE2
      00000088H   SFRSYM    DATA     BYTE      TCON
      00000089H   SFRSYM    DATA     BYTE      TMOD
      00000098H   SFRSYM    DATA     BYTE      SCON
      000000DEH   SFRSYM    DATA     BYTE      ADCCFG
      000000B8H   SFRSYM    DATA     BYTE      IP
      000000A8H   SFRSYM    DATA     BYTE      IE
      000000BAH   SFRSYM    DATA     BYTE      P_SW2
      000000A2H   SFRSYM    DATA     BYTE      P_SW1
      000000F8H   SFRSYM    DATA     BYTE      P7
      000000A8H.7 SFRSYM    DATA     BIT       EA
      000000E1H   SFRSYM    DATA     BYTE      P7M1
      000000E8H   SFRSYM    DATA     BYTE      P6
      000000C8H   SFRSYM    DATA     BYTE      P5
      000000CBH   SFRSYM    DATA     BYTE      P6M1
      000000E2H   SFRSYM    DATA     BYTE      P7M0
      000000C0H   SFRSYM    DATA     BYTE      P4
      000000C9H   SFRSYM    DATA     BYTE      P5M1
      000000CCH   SFRSYM    DATA     BYTE      P6M0
      000000B0H   SFRSYM    DATA     BYTE      P3
      000000B3H   SFRSYM    DATA     BYTE      P4M1
      000000CAH   SFRSYM    DATA     BYTE      P5M0
      000000A0H   SFRSYM    DATA     BYTE      P2
      000000B1H   SFRSYM    DATA     BYTE      P3M1
      000000B4H   SFRSYM    DATA     BYTE      P4M0
      00000090H   SFRSYM    DATA     BYTE      P1
      00000095H   SFRSYM    DATA     BYTE      P2M1
      000000B2H   SFRSYM    DATA     BYTE      P3M0
      00000080H   SFRSYM    DATA     BYTE      P0
      00000091H   SFRSYM    DATA     BYTE      P1M1
      00000096H   SFRSYM    DATA     BYTE      P2M0
      00000092H   SFRSYM    DATA     BYTE      P1M0
L251 LINKER/LOCATER V4.66.93.0                                                        07/16/2023  18:44:38  PAGE 23


      00000093H   SFRSYM    DATA     BYTE      P0M1

      00FF317BH   BLOCK     CODE     ---       LVL=0
      00FF317BH   LINE      CODE     ---       #177
      00FF317BH   LINE      CODE     ---       #179
      00FF317EH   LINE      CODE     ---       #197
      00FF3181H   LINE      CODE     ---       #199
      00FF3184H   LINE      CODE     ---       #200
      00FF3187H   LINE      CODE     ---       #201
      00FF3193H   LINE      CODE     ---       #203
      00FF3196H   LINE      CODE     ---       #204
      00FF3199H   LINE      CODE     ---       #205
      00FF319CH   LINE      CODE     ---       #206
      00FF319FH   LINE      CODE     ---       #207
      00FF31A2H   LINE      CODE     ---       #208
      00FF31A5H   LINE      CODE     ---       #209
      00FF31A8H   LINE      CODE     ---       #210
      00FF31ABH   LINE      CODE     ---       #211
      00FF31AEH   LINE      CODE     ---       #212
      00FF31B1H   LINE      CODE     ---       #213
      00FF31B4H   LINE      CODE     ---       #214
      00FF31B7H   LINE      CODE     ---       #215
      00FF31BAH   LINE      CODE     ---       #216
      00FF31BDH   LINE      CODE     ---       #217
      00FF31C0H   LINE      CODE     ---       #218
      00FF31C3H   LINE      CODE     ---       #220
      00FF31C6H   LINE      CODE     ---       #221
      00FF31C9H   LINE      CODE     ---       #222
      00FF31CCH   LINE      CODE     ---       #223
      00FF31CFH   LINE      CODE     ---       #224
      00FF31D2H   LINE      CODE     ---       #225
      00FF31D5H   LINE      CODE     ---       #226
      00FF31D8H   LINE      CODE     ---       #227
      00FF31DBH   LINE      CODE     ---       #228
      00FF31DEH   LINE      CODE     ---       #229
      00FF31E1H   LINE      CODE     ---       #231
      ---         BLOCKEND  ---      ---       LVL=0

      00FF3F57H   BLOCK     CODE     ---       LVL=0
      R15         REGSYM    ---      CHAR      c
      00FF3F57H   LINE      CODE     ---       #237
      00FF3F5BH   LINE      CODE     ---       #239
      00FF3F60H   LINE      CODE     ---       #241
      00FF3F62H   LINE      CODE     ---       #242
      ---         BLOCKEND  ---      ---       LVL=0

      00FF0016H   BLOCK     CODE     ---       LVL=0
      00FF0016H   LINE      CODE     ---       #245
      00FF0016H   LINE      CODE     ---       #247
      00FF0018H   LINE      CODE     ---       #248
      ---         BLOCKEND  ---      ---       LVL=0

      00FF000EH   BLOCK     CODE     ---       LVL=0
      00FF000EH   LINE      CODE     ---       #251
      00FF000EH   LINE      CODE     ---       #253
      00FF0010H   LINE      CODE     ---       #254
      ---         BLOCKEND  ---      ---       LVL=0

      ---         MODULE    ---      ---       common
      0000045FH   PUBLIC    EDATA    INT       wireless_type
      000000D0H   SFRSYM    DATA     BYTE      PSW
      00000088H   SFRSYM    DATA     BYTE      TCON
      00000098H   SFRSYM    DATA     BYTE      SCON
      000000B8H   SFRSYM    DATA     BYTE      IP
      000000A8H   SFRSYM    DATA     BYTE      IE
L251 LINKER/LOCATER V4.66.93.0                                                        07/16/2023  18:44:38  PAGE 24


      000000F8H   SFRSYM    DATA     BYTE      P7
      000000E8H   SFRSYM    DATA     BYTE      P6
      000000C8H   SFRSYM    DATA     BYTE      P5
      000000C0H   SFRSYM    DATA     BYTE      P4
      000000B0H   SFRSYM    DATA     BYTE      P3
      000000A0H   SFRSYM    DATA     BYTE      P2
      00000090H   SFRSYM    DATA     BYTE      P1
      00000080H   SFRSYM    DATA     BYTE      P0

      ---         MODULE    ---      ---       SEEKFREE_PRINTF
      00FF30E9H   PUBLIC    CODE     ---       number_conversion_ascii
      0000045CH   PUBLIC    EDATA    BYTE      ?number_conversion_ascii?BYTE
      000000D0H   SFRSYM    DATA     BYTE      PSW
      00000088H   SFRSYM    DATA     BYTE      TCON
      00000098H   SFRSYM    DATA     BYTE      SCON
      000000B8H   SFRSYM    DATA     BYTE      IP
      000000A8H   SFRSYM    DATA     BYTE      IE
      000000F8H   SFRSYM    DATA     BYTE      P7
      000000E8H   SFRSYM    DATA     BYTE      P6
      000000C8H   SFRSYM    DATA     BYTE      P5
      000000C0H   SFRSYM    DATA     BYTE      P4
      000000B0H   SFRSYM    DATA     BYTE      P3
      000000A0H   SFRSYM    DATA     BYTE      P2
      00000090H   SFRSYM    DATA     BYTE      P1
      00000080H   SFRSYM    DATA     BYTE      P0

      00FF30E9H   BLOCK     CODE     ---       LVL=0
      DR24        REGSYM    ---      DWORD     dat
      REG=7       REGSYM    ---      ---       p
      R10         REGSYM    ---      BYTE      neg_type
      00000465H   SYMBOL    EDATA    BYTE      radix
      00FF30F1H   BLOCK     CODE     NEAR LAB  LVL=1
      DR20        REGSYM    ---      LONG      neg_dat
      DR24        REGSYM    ---      DWORD     pos_dat
      R14         REGSYM    ---      BYTE      temp_data
      R15         REGSYM    ---      BYTE      valid_num
      ---         BLOCKEND  ---      ---       LVL=1
      00FF30E9H   LINE      CODE     ---       #25
      00FF30F1H   LINE      CODE     ---       #26
      00FF30F1H   LINE      CODE     ---       #29
      00FF30F1H   LINE      CODE     ---       #30
      00FF30F3H   LINE      CODE     ---       #32
      00FF30F7H   LINE      CODE     ---       #34
      00FF30F9H   LINE      CODE     ---       #35
      00FF3109H   LINE      CODE     ---       #36
      00FF3109H   LINE      CODE     ---       #38
      00FF311FH   LINE      CODE     ---       #39
      00FF312EH   LINE      CODE     ---       #40
      00FF3130H   LINE      CODE     ---       #42
      00FF3136H   LINE      CODE     ---       #43
      00FF3138H   LINE      CODE     ---       #44
      00FF313AH   LINE      CODE     ---       #45
      00FF313CH   LINE      CODE     ---       #48
      00FF313CH   LINE      CODE     ---       #49
      00FF313CH   LINE      CODE     ---       #51
      00FF314BH   LINE      CODE     ---       #52
      00FF3155H   LINE      CODE     ---       #53
      00FF3158H   LINE      CODE     ---       #55
      00FF315BH   LINE      CODE     ---       #57
      00FF316AH   LINE      CODE     ---       #58
      00FF316CH   LINE      CODE     ---       #60
      00FF3172H   LINE      CODE     ---       #61
      00FF3174H   LINE      CODE     ---       #62
      00FF3176H   LINE      CODE     ---       #63
      00FF3176H   LINE      CODE     ---       #64
L251 LINKER/LOCATER V4.66.93.0                                                        07/16/2023  18:44:38  PAGE 25


      00FF3178H   LINE      CODE     ---       #65
      ---         BLOCKEND  ---      ---       LVL=0
      REG=7       REGSYM    ---      ---       d_buff
      DR24        REGSYM    ---      DWORD     len
      DR4         REGSYM    ---      DWORD     i
      R3          REGSYM    ---      CHAR      temp_data
      REG=3       REGSYM    ---      ---       buff

      ---         MODULE    ---      ---       zf_adc
      00FF3AF8H   PUBLIC    CODE     ---       adc_once
      00FF32CBH   PUBLIC    CODE     ---       adc_init
      00000094H   SFRSYM    DATA     BYTE      P0M0
      000000D0H   SFRSYM    DATA     BYTE      PSW
      000000BEH   SFRSYM    DATA     BYTE      ADC_RESL
      00000088H   SFRSYM    DATA     BYTE      TCON
      00000098H   SFRSYM    DATA     BYTE      SCON
      000000BCH   SFRSYM    DATA     BYTE      ADC_CONTR
      000000DEH   SFRSYM    DATA     BYTE      ADCCFG
      000000B8H   SFRSYM    DATA     BYTE      IP
      000000BDH   SFRSYM    DATA     BYTE      ADC_RES
      000000A8H   SFRSYM    DATA     BYTE      IE
      000000F8H   SFRSYM    DATA     BYTE      P7
      000000E8H   SFRSYM    DATA     BYTE      P6
      000000C8H   SFRSYM    DATA     BYTE      P5
      000000C0H   SFRSYM    DATA     BYTE      P4
      000000B0H   SFRSYM    DATA     BYTE      P3
      000000A0H   SFRSYM    DATA     BYTE      P2
      00000090H   SFRSYM    DATA     BYTE      P1
      00000080H   SFRSYM    DATA     BYTE      P0
      00000091H   SFRSYM    DATA     BYTE      P1M1
      00000092H   SFRSYM    DATA     BYTE      P1M0
      00000093H   SFRSYM    DATA     BYTE      P0M1

      00FF32CBH   BLOCK     CODE     ---       LVL=0
      WR4         REGSYM    ---      INT       adcn
      WR2         REGSYM    ---      INT       speed
      00FF32CBH   LINE      CODE     ---       #32
      00FF32CFH   LINE      CODE     ---       #34
      00FF32D2H   LINE      CODE     ---       #36
      00FF32D5H   LINE      CODE     ---       #37
      00FF32DBH   LINE      CODE     ---       #39
      00FF32E7H   LINE      CODE     ---       #42
      00FF32FCH   LINE      CODE     ---       #43
      00FF3300H   LINE      CODE     ---       #44
      00FF3302H   LINE      CODE     ---       #45
      00FF3306H   LINE      CODE     ---       #48
      00FF331BH   LINE      CODE     ---       #49
      00FF331FH   LINE      CODE     ---       #50
      00FF331FH   LINE      CODE     ---       #52
      00FF3325H   LINE      CODE     ---       #54
      00FF3328H   LINE      CODE     ---       #55
      ---         BLOCKEND  ---      ---       LVL=0

      00FF3AF8H   BLOCK     CODE     ---       LVL=0
      WR6         REGSYM    ---      INT       adcn
      WR4         REGSYM    ---      INT       resolution
      WR6         REGSYM    ---      WORD      adc_value
      00FF3AF8H   LINE      CODE     ---       #66
      00FF3AF8H   LINE      CODE     ---       #67
      00FF3AF8H   LINE      CODE     ---       #70
      00FF3AFBH   LINE      CODE     ---       #71
      00FF3AFFH   LINE      CODE     ---       #73
      00FF3B02H   LINE      CODE     ---       #74
      00FF3B07H   LINE      CODE     ---       #75
      00FF3B0AH   LINE      CODE     ---       #77
L251 LINKER/LOCATER V4.66.93.0                                                        07/16/2023  18:44:38  PAGE 26


      00FF3B0CH   LINE      CODE     ---       #78
      00FF3B10H   LINE      CODE     ---       #79
      00FF3B16H   LINE      CODE     ---       #81
      00FF3B19H   LINE      CODE     ---       #82
      00FF3B1CH   LINE      CODE     ---       #84
      00FF3B25H   LINE      CODE     ---       #87
      00FF3B25H   LINE      CODE     ---       #88
      ---         BLOCKEND  ---      ---       LVL=0

      ---         MODULE    ---      ---       zf_delay
      00FF39B5H   PUBLIC    CODE     ---       delay_init
      00FF3EC6H   PUBLIC    CODE     ---       delay_ms
      00FF3E62H   PUBLIC    CODE     ---       delay_us
      00000448H   PUBLIC    EDATA    WORD      zf_delay_ms
      0000044AH   PUBLIC    EDATA    WORD      zf_delay_us
      000000D0H   SFRSYM    DATA     BYTE      PSW
      00000088H   SFRSYM    DATA     BYTE      TCON
      00000098H   SFRSYM    DATA     BYTE      SCON
      000000B8H   SFRSYM    DATA     BYTE      IP
      000000A8H   SFRSYM    DATA     BYTE      IE
      000000F8H   SFRSYM    DATA     BYTE      P7
      000000E8H   SFRSYM    DATA     BYTE      P6
      000000C8H   SFRSYM    DATA     BYTE      P5
      000000C0H   SFRSYM    DATA     BYTE      P4
      000000B0H   SFRSYM    DATA     BYTE      P3
      000000A0H   SFRSYM    DATA     BYTE      P2
      00000090H   SFRSYM    DATA     BYTE      P1
      00000080H   SFRSYM    DATA     BYTE      P0

      00FF39B5H   BLOCK     CODE     ---       LVL=0
      00FF39B5H   LINE      CODE     ---       #34
      00FF39B5H   LINE      CODE     ---       #36
      00FF39C6H   LINE      CODE     ---       #37
      00FF39D7H   LINE      CODE     ---       #38
      00FF39EDH   LINE      CODE     ---       #40
      ---         BLOCKEND  ---      ---       LVL=0

      00FF3EC6H   BLOCK     CODE     ---       LVL=0
      WR4         REGSYM    ---      WORD      ms
      00FF3EC8H   BLOCK     CODE     NEAR LAB  LVL=1
      WR6         REGSYM    ---      WORD      i
      ---         BLOCKEND  ---      ---       LVL=1
      00FF3EC6H   LINE      CODE     ---       #48
      00FF3EC8H   LINE      CODE     ---       #49
      00FF3EC8H   LINE      CODE     ---       #51
      00FF3EC8H   LINE      CODE     ---       #52
      00FF3ECCH   LINE      CODE     ---       #54
      00FF3ED4H   LINE      CODE     ---       #55
      00FF3EDCH   LINE      CODE     ---       #56
      ---         BLOCKEND  ---      ---       LVL=0

      00FF3E62H   BLOCK     CODE     ---       LVL=0
      DR0         REGSYM    ---      DWORD     us
      00FF3E64H   BLOCK     CODE     NEAR LAB  LVL=1
      WR6         REGSYM    ---      WORD      i
      ---         BLOCKEND  ---      ---       LVL=1
      00FF3E62H   LINE      CODE     ---       #64
      00FF3E64H   LINE      CODE     ---       #65
      00FF3E64H   LINE      CODE     ---       #67
      00FF3E64H   LINE      CODE     ---       #68
      00FF3E68H   LINE      CODE     ---       #70
      00FF3E70H   LINE      CODE     ---       #71
      00FF3E7AH   LINE      CODE     ---       #72
      ---         BLOCKEND  ---      ---       LVL=0

L251 LINKER/LOCATER V4.66.93.0                                                        07/16/2023  18:44:38  PAGE 27


      ---         MODULE    ---      ---       zf_eeprom
      00FF3EDDH   PUBLIC    CODE     ---       eeprom_trig
      000000D0H   SFRSYM    DATA     BYTE      PSW
      000000D0H.5 SFRSYM    DATA     BIT       F0
      000000C6H   SFRSYM    DATA     BYTE      IAP_TRIG
      000000C2H   SFRSYM    DATA     BYTE      IAP_DATA
      000000C7H   SFRSYM    DATA     BYTE      IAP_CONTR
      00000088H   SFRSYM    DATA     BYTE      TCON
      00000098H   SFRSYM    DATA     BYTE      SCON
      000000F5H   SFRSYM    DATA     BYTE      IAP_TPS
      000000C4H   SFRSYM    DATA     BYTE      IAP_ADDRL
      000000C3H   SFRSYM    DATA     BYTE      IAP_ADDRH
      000000F6H   SFRSYM    DATA     BYTE      IAP_ADDRE
      000000B8H   SFRSYM    DATA     BYTE      IP
      000000C5H   SFRSYM    DATA     BYTE      IAP_CMD
      000000A8H   SFRSYM    DATA     BYTE      IE
      000000F8H   SFRSYM    DATA     BYTE      P7
      000000A8H.7 SFRSYM    DATA     BIT       EA
      000000E8H   SFRSYM    DATA     BYTE      P6
      000000C8H   SFRSYM    DATA     BYTE      P5
      000000C0H   SFRSYM    DATA     BYTE      P4
      000000B0H   SFRSYM    DATA     BYTE      P3
      000000A0H   SFRSYM    DATA     BYTE      P2
      00000090H   SFRSYM    DATA     BYTE      P1
      00000080H   SFRSYM    DATA     BYTE      P0

      00FF3EDDH   BLOCK     CODE     ---       LVL=0
      00FF3EDDH   LINE      CODE     ---       #30
      00FF3EDDH   LINE      CODE     ---       #32
      00FF3EE1H   LINE      CODE     ---       #33
      00FF3EE3H   LINE      CODE     ---       #34
      00FF3EE6H   LINE      CODE     ---       #35
      00FF3EE9H   LINE      CODE     ---       #38
      00FF3EEAH   LINE      CODE     ---       #39
      00FF3EEBH   LINE      CODE     ---       #40
      00FF3EECH   LINE      CODE     ---       #41
      00FF3EEDH   LINE      CODE     ---       #42
      00FF3EF1H   LINE      CODE     ---       #43
      ---         BLOCKEND  ---      ---       LVL=0
      R11         REGSYM    ---      BYTE      write_time
      REG=3       REGSYM    ---      ---       buf
      REG=3       REGSYM    ---      ---       buf
      WR6         REGSYM    ---      WORD      addr
      REG=3       REGSYM    ---      ---       buf
      WR6         REGSYM    ---      WORD      i

      ---         MODULE    ---      ---       zf_exti
      000000D0H   SFRSYM    DATA     BYTE      PSW
      00000088H.2 SFRSYM    DATA     BIT       IT1
      000000A8H.2 SFRSYM    DATA     BIT       EX1
      00000088H.0 SFRSYM    DATA     BIT       IT0
      000000A8H.0 SFRSYM    DATA     BIT       EX0
      00000088H   SFRSYM    DATA     BYTE      TCON
      00000098H   SFRSYM    DATA     BYTE      SCON
      000000B8H   SFRSYM    DATA     BYTE      IP
      0000008FH   SFRSYM    DATA     BYTE      INTCLKO
      000000A8H   SFRSYM    DATA     BYTE      IE
      000000F8H   SFRSYM    DATA     BYTE      P7
      000000E8H   SFRSYM    DATA     BYTE      P6
      000000C8H   SFRSYM    DATA     BYTE      P5
      000000C0H   SFRSYM    DATA     BYTE      P4
      000000B0H   SFRSYM    DATA     BYTE      P3
      000000A0H   SFRSYM    DATA     BYTE      P2
      00000090H   SFRSYM    DATA     BYTE      P1
      00000080H   SFRSYM    DATA     BYTE      P0
L251 LINKER/LOCATER V4.66.93.0                                                        07/16/2023  18:44:38  PAGE 28


      WR4         REGSYM    ---      INT       int_n
      WR2         REGSYM    ---      INT       mode

      ---         MODULE    ---      ---       zf_gpio
      00FF1857H   PUBLIC    CODE     ---       gpio_mode
      00000094H   SFRSYM    DATA     BYTE      P0M0
      000000D0H   SFRSYM    DATA     BYTE      PSW
      00000088H   SFRSYM    DATA     BYTE      TCON
      00000098H   SFRSYM    DATA     BYTE      SCON
      000000B8H   SFRSYM    DATA     BYTE      IP
      000000A8H   SFRSYM    DATA     BYTE      IE
      000000F8H   SFRSYM    DATA     BYTE      P7
      000000E1H   SFRSYM    DATA     BYTE      P7M1
      000000E8H   SFRSYM    DATA     BYTE      P6
      000000C8H   SFRSYM    DATA     BYTE      P5
      000000CBH   SFRSYM    DATA     BYTE      P6M1
      000000E2H   SFRSYM    DATA     BYTE      P7M0
      000000C0H   SFRSYM    DATA     BYTE      P4
      000000C9H   SFRSYM    DATA     BYTE      P5M1
      000000CCH   SFRSYM    DATA     BYTE      P6M0
      000000B0H   SFRSYM    DATA     BYTE      P3
      000000B3H   SFRSYM    DATA     BYTE      P4M1
      000000CAH   SFRSYM    DATA     BYTE      P5M0
      000000A0H   SFRSYM    DATA     BYTE      P2
      000000B1H   SFRSYM    DATA     BYTE      P3M1
      000000B4H   SFRSYM    DATA     BYTE      P4M0
      00000090H   SFRSYM    DATA     BYTE      P1
      00000095H   SFRSYM    DATA     BYTE      P2M1
      000000B2H   SFRSYM    DATA     BYTE      P3M0
      00000080H   SFRSYM    DATA     BYTE      P0
      00000091H   SFRSYM    DATA     BYTE      P1M1
      00000096H   SFRSYM    DATA     BYTE      P2M0
      00000092H   SFRSYM    DATA     BYTE      P1M0
      00000093H   SFRSYM    DATA     BYTE      P0M1
      WR4         REGSYM    ---      INT       pin
      WR2         REGSYM    ---      INT       pull

      00FF1857H   BLOCK     CODE     ---       LVL=0
      WR4         REGSYM    ---      INT       pin
      WR2         REGSYM    ---      INT       mode
      00FF1857H   LINE      CODE     ---       #54
      00FF185BH   LINE      CODE     ---       #56
      00FF1862H   LINE      CODE     ---       #58
      00FF186AH   LINE      CODE     ---       #60
      00FF1882H   LINE      CODE     ---       #61
      00FF1884H   LINE      CODE     ---       #62
      00FF1884H   LINE      CODE     ---       #63
      00FF188AH   LINE      CODE     ---       #65
      00FF18A2H   LINE      CODE     ---       #66
      00FF18A4H   LINE      CODE     ---       #67
      00FF18A4H   LINE      CODE     ---       #68
      00FF18AAH   LINE      CODE     ---       #70
      00FF18C2H   LINE      CODE     ---       #71
      00FF18C4H   LINE      CODE     ---       #72
      00FF18C4H   LINE      CODE     ---       #74
      00FF18CAH   LINE      CODE     ---       #76
      00FF18E2H   LINE      CODE     ---       #77
      00FF18E4H   LINE      CODE     ---       #78
      00FF18E4H   LINE      CODE     ---       #79
      00FF18EAH   LINE      CODE     ---       #81
      00FF1902H   LINE      CODE     ---       #82
      00FF1904H   LINE      CODE     ---       #83
      00FF1904H   LINE      CODE     ---       #84
      00FF190AH   LINE      CODE     ---       #86
      00FF1922H   LINE      CODE     ---       #87
L251 LINKER/LOCATER V4.66.93.0                                                        07/16/2023  18:44:38  PAGE 29


      00FF1924H   LINE      CODE     ---       #88
      00FF1924H   LINE      CODE     ---       #89
      00FF192AH   LINE      CODE     ---       #91
      00FF1942H   LINE      CODE     ---       #92
      00FF1944H   LINE      CODE     ---       #93
      00FF1944H   LINE      CODE     ---       #94
      00FF194DH   LINE      CODE     ---       #96
      00FF1965H   LINE      CODE     ---       #97
      00FF1967H   LINE      CODE     ---       #98
      00FF1968H   LINE      CODE     ---       #100
      00FF1971H   LINE      CODE     ---       #102
      00FF1979H   LINE      CODE     ---       #104
      00FF198EH   LINE      CODE     ---       #105
      00FF1992H   LINE      CODE     ---       #106
      00FF1992H   LINE      CODE     ---       #107
      00FF1998H   LINE      CODE     ---       #109
      00FF19ADH   LINE      CODE     ---       #110
      00FF19B1H   LINE      CODE     ---       #111
      00FF19B1H   LINE      CODE     ---       #112
      00FF19B7H   LINE      CODE     ---       #114
      00FF19CCH   LINE      CODE     ---       #115
      00FF19D0H   LINE      CODE     ---       #116
      00FF19D0H   LINE      CODE     ---       #118
      00FF19D6H   LINE      CODE     ---       #120
      00FF19EBH   LINE      CODE     ---       #121
      00FF19EFH   LINE      CODE     ---       #122
      00FF19EFH   LINE      CODE     ---       #123
      00FF19F5H   LINE      CODE     ---       #125
      00FF1A0AH   LINE      CODE     ---       #126
      00FF1A0EH   LINE      CODE     ---       #127
      00FF1A0EH   LINE      CODE     ---       #128
      00FF1A14H   LINE      CODE     ---       #130
      00FF1A29H   LINE      CODE     ---       #131
      00FF1A2DH   LINE      CODE     ---       #132
      00FF1A2DH   LINE      CODE     ---       #133
      00FF1A33H   LINE      CODE     ---       #135
      00FF1A48H   LINE      CODE     ---       #136
      00FF1A4CH   LINE      CODE     ---       #137
      00FF1A4CH   LINE      CODE     ---       #138
      00FF1A55H   LINE      CODE     ---       #140
      00FF1A6CH   LINE      CODE     ---       #141
      00FF1A6CH   LINE      CODE     ---       #142
      00FF1A6FH   LINE      CODE     ---       #145
      00FF1A78H   LINE      CODE     ---       #147
      00FF1A80H   LINE      CODE     ---       #149
      00FF1A93H   LINE      CODE     ---       #150
      00FF1A97H   LINE      CODE     ---       #151
      00FF1A97H   LINE      CODE     ---       #152
      00FF1A9DH   LINE      CODE     ---       #154
      00FF1AB0H   LINE      CODE     ---       #155
      00FF1AB4H   LINE      CODE     ---       #156
      00FF1AB4H   LINE      CODE     ---       #157
      00FF1ABAH   LINE      CODE     ---       #159
      00FF1ACDH   LINE      CODE     ---       #160
      00FF1AD1H   LINE      CODE     ---       #161
      00FF1AD1H   LINE      CODE     ---       #163
      00FF1AD7H   LINE      CODE     ---       #165
      00FF1AEAH   LINE      CODE     ---       #166
      00FF1AEEH   LINE      CODE     ---       #167
      00FF1AEEH   LINE      CODE     ---       #168
      00FF1AF4H   LINE      CODE     ---       #170
      00FF1B07H   LINE      CODE     ---       #171
      00FF1B0BH   LINE      CODE     ---       #172
      00FF1B0BH   LINE      CODE     ---       #173
      00FF1B11H   LINE      CODE     ---       #175
L251 LINKER/LOCATER V4.66.93.0                                                        07/16/2023  18:44:38  PAGE 30


      00FF1B24H   LINE      CODE     ---       #176
      00FF1B28H   LINE      CODE     ---       #177
      00FF1B28H   LINE      CODE     ---       #178
      00FF1B2EH   LINE      CODE     ---       #180
      00FF1B41H   LINE      CODE     ---       #181
      00FF1B45H   LINE      CODE     ---       #182
      00FF1B45H   LINE      CODE     ---       #183
      00FF1B4EH   LINE      CODE     ---       #185
      00FF1B61H   LINE      CODE     ---       #186
      00FF1B65H   LINE      CODE     ---       #187
      00FF1B66H   LINE      CODE     ---       #189
      00FF1B6FH   LINE      CODE     ---       #191
      00FF1B77H   LINE      CODE     ---       #193
      00FF1B8AH   LINE      CODE     ---       #194
      00FF1B8CH   LINE      CODE     ---       #195
      00FF1B8CH   LINE      CODE     ---       #196
      00FF1B92H   LINE      CODE     ---       #198
      00FF1BA5H   LINE      CODE     ---       #199
      00FF1BA7H   LINE      CODE     ---       #200
      00FF1BA7H   LINE      CODE     ---       #201
      00FF1BADH   LINE      CODE     ---       #203
      00FF1BC0H   LINE      CODE     ---       #204
      00FF1BC2H   LINE      CODE     ---       #205
      00FF1BC2H   LINE      CODE     ---       #207
      00FF1BC8H   LINE      CODE     ---       #209
      00FF1BDBH   LINE      CODE     ---       #210
      00FF1BDDH   LINE      CODE     ---       #211
      00FF1BDDH   LINE      CODE     ---       #212
      00FF1BE3H   LINE      CODE     ---       #214
      00FF1BF6H   LINE      CODE     ---       #215
      00FF1BF8H   LINE      CODE     ---       #216
      00FF1BF8H   LINE      CODE     ---       #217
      00FF1BFEH   LINE      CODE     ---       #219
      00FF1C11H   LINE      CODE     ---       #220
      00FF1C13H   LINE      CODE     ---       #221
      00FF1C13H   LINE      CODE     ---       #222
      00FF1C19H   LINE      CODE     ---       #224
      00FF1C2CH   LINE      CODE     ---       #225
      00FF1C2EH   LINE      CODE     ---       #226
      00FF1C2EH   LINE      CODE     ---       #227
      00FF1C34H   LINE      CODE     ---       #229
      00FF1C49H   LINE      CODE     ---       #230
      00FF1C4DH   LINE      CODE     ---       #231
      00FF1C4DH   LINE      CODE     ---       #233
      ---         BLOCKEND  ---      ---       LVL=0

      ---         MODULE    ---      ---       zf_iic
      00FF3801H   PUBLIC    CODE     ---       wait
      00FF3EF2H   PUBLIC    CODE     ---       iic_delay_us
      000000D0H   SFRSYM    DATA     BYTE      PSW
      00000088H   SFRSYM    DATA     BYTE      TCON
      00000098H   SFRSYM    DATA     BYTE      SCON
      000000B8H   SFRSYM    DATA     BYTE      IP
      000000A8H   SFRSYM    DATA     BYTE      IE
      000000BAH   SFRSYM    DATA     BYTE      P_SW2
      000000F8H   SFRSYM    DATA     BYTE      P7
      000000E8H   SFRSYM    DATA     BYTE      P6
      000000C8H   SFRSYM    DATA     BYTE      P5
      000000C0H   SFRSYM    DATA     BYTE      P4
      000000B0H   SFRSYM    DATA     BYTE      P3
      000000A0H   SFRSYM    DATA     BYTE      P2
      00000090H   SFRSYM    DATA     BYTE      P1
      00000080H   SFRSYM    DATA     BYTE      P0

      00FF3EF2H   BLOCK     CODE     ---       LVL=0
L251 LINKER/LOCATER V4.66.93.0                                                        07/16/2023  18:44:38  PAGE 31


      WR6         REGSYM    ---      WORD      x
      R10         REGSYM    ---      BYTE      i
      00FF3EF2H   LINE      CODE     ---       #30
      00FF3EF2H   LINE      CODE     ---       #31
      00FF3EF2H   LINE      CODE     ---       #33
      00FF3EF4H   LINE      CODE     ---       #35
      00FF3EF7H   LINE      CODE     ---       #36
      00FF3EFEH   LINE      CODE     ---       #37
      00FF3F06H   LINE      CODE     ---       #38
      ---         BLOCKEND  ---      ---       LVL=0

      00FF3801H   BLOCK     CODE     ---       LVL=0
      00FF3805H   BLOCK     CODE     NEAR LAB  LVL=1
      WR12        REGSYM    ---      WORD      count
      R15         REGSYM    ---      BYTE      ret
      ---         BLOCKEND  ---      ---       LVL=1
      00FF3801H   LINE      CODE     ---       #47
      00FF3805H   LINE      CODE     ---       #48
      00FF3805H   LINE      CODE     ---       #49
      00FF3807H   LINE      CODE     ---       #50
      00FF3809H   LINE      CODE     ---       #51
      00FF380BH   LINE      CODE     ---       #53
      00FF3812H   LINE      CODE     ---       #54
      00FF381CH   LINE      CODE     ---       #56
      00FF381FH   LINE      CODE     ---       #57
      00FF3821H   LINE      CODE     ---       #58
      00FF382FH   LINE      CODE     ---       #60
      00FF383FH   LINE      CODE     ---       #61
      00FF3841H   LINE      CODE     ---       #62
      ---         BLOCKEND  ---      ---       LVL=0
      R11         REGSYM    ---      BYTE      ret
      R11         REGSYM    ---      CHAR      dat
      R11         REGSYM    ---      BYTE      ret
      R11         REGSYM    ---      BYTE      ret
      R11         REGSYM    ---      BYTE      ret
      R11         REGSYM    ---      BYTE      ret
      WR6         REGSYM    ---      INT       iic_n
      R13         REGSYM    ---      BYTE      dev_add
      R14         REGSYM    ---      BYTE      reg
      R15         REGSYM    ---      BYTE      dat
      R15         REGSYM    ---      BYTE      dev_add
      R14         REGSYM    ---      BYTE      reg
      REG=3       REGSYM    ---      ---       dat
      WR6         REGSYM    ---      INT       iic_n

      ---         MODULE    ---      ---       zf_nvic
      000000D0H   SFRSYM    DATA     BYTE      PSW
      000000B7H   SFRSYM    DATA     BYTE      IPH
      000000B5H   SFRSYM    DATA     BYTE      IP2
      00000088H   SFRSYM    DATA     BYTE      TCON
      00000098H   SFRSYM    DATA     BYTE      SCON
      000000B8H   SFRSYM    DATA     BYTE      IP
      000000B6H   SFRSYM    DATA     BYTE      IP2H
      000000A8H   SFRSYM    DATA     BYTE      IE
      000000F8H   SFRSYM    DATA     BYTE      P7
      000000E8H   SFRSYM    DATA     BYTE      P6
      000000C8H   SFRSYM    DATA     BYTE      P5
      000000C0H   SFRSYM    DATA     BYTE      P4
      000000B0H   SFRSYM    DATA     BYTE      P3
      000000A0H   SFRSYM    DATA     BYTE      P2
      00000090H   SFRSYM    DATA     BYTE      P1
      00000080H   SFRSYM    DATA     BYTE      P0
      WR4         REGSYM    ---      INT       irqn
      R3          REGSYM    ---      BYTE      priority

L251 LINKER/LOCATER V4.66.93.0                                                        07/16/2023  18:44:38  PAGE 32


      ---         MODULE    ---      ---       zf_pwm
      00FF2EEAH   PUBLIC    CODE     ---       pwm_duty
      00FF1F32H   PUBLIC    CODE     ---       pwm_set_gpio
      00FF1C4EH   PUBLIC    CODE     ---       pwm_init
      00FF406CH   PUBLIC    HCONST   ---       PWM_CCR_ADDR
      00FF408CH   PUBLIC    HCONST   ---       PWM_ARR_ADDR
      00FF4094H   PUBLIC    HCONST   ---       PWM_CCER_ADDR
      00FF40A4H   PUBLIC    HCONST   ---       PWM_CCMR_ADDR
      00000403H   PUBLIC    EDATA    BYTE      ?pwm_init?BYTE
      000000D0H   SFRSYM    DATA     BYTE      PSW
      00000088H   SFRSYM    DATA     BYTE      TCON
      00000098H   SFRSYM    DATA     BYTE      SCON
      000000B8H   SFRSYM    DATA     BYTE      IP
      000000A8H   SFRSYM    DATA     BYTE      IE
      000000BAH   SFRSYM    DATA     BYTE      P_SW2
      000000F8H   SFRSYM    DATA     BYTE      P7
      000000E8H   SFRSYM    DATA     BYTE      P6
      000000C8H   SFRSYM    DATA     BYTE      P5
      000000C0H   SFRSYM    DATA     BYTE      P4
      000000B0H   SFRSYM    DATA     BYTE      P3
      000000A0H   SFRSYM    DATA     BYTE      P2
      00000090H   SFRSYM    DATA     BYTE      P1
      00000080H   SFRSYM    DATA     BYTE      P0

      00FF1F32H   BLOCK     CODE     ---       LVL=0
      WR6         REGSYM    ---      INT       pwmch
      00FF1F32H   LINE      CODE     ---       #49
      00FF1F32H   LINE      CODE     ---       #51
      00FF20A5H   LINE      CODE     ---       #53
      00FF20A5H   LINE      CODE     ---       #55
      00FF20A9H   LINE      CODE     ---       #56
      00FF20ACH   LINE      CODE     ---       #58
      00FF20ACH   LINE      CODE     ---       #60
      00FF20B0H   LINE      CODE     ---       #61
      00FF20B3H   LINE      CODE     ---       #63
      00FF20B3H   LINE      CODE     ---       #65
      00FF20B7H   LINE      CODE     ---       #66
      00FF20BAH   LINE      CODE     ---       #68
      00FF20BAH   LINE      CODE     ---       #70
      00FF20BEH   LINE      CODE     ---       #71
      00FF20C1H   LINE      CODE     ---       #73
      00FF20C1H   LINE      CODE     ---       #75
      00FF20C5H   LINE      CODE     ---       #76
      00FF20C8H   LINE      CODE     ---       #78
      00FF20C8H   LINE      CODE     ---       #80
      00FF20CCH   LINE      CODE     ---       #81
      00FF20CFH   LINE      CODE     ---       #84
      00FF20CFH   LINE      CODE     ---       #86
      00FF20D3H   LINE      CODE     ---       #87
      00FF20D6H   LINE      CODE     ---       #89
      00FF20D6H   LINE      CODE     ---       #91
      00FF20DAH   LINE      CODE     ---       #92
      00FF20DDH   LINE      CODE     ---       #94
      00FF20DDH   LINE      CODE     ---       #96
      00FF20E1H   LINE      CODE     ---       #97
      00FF20E4H   LINE      CODE     ---       #99
      00FF20E4H   LINE      CODE     ---       #101
      00FF20E8H   LINE      CODE     ---       #102
      00FF20EBH   LINE      CODE     ---       #104
      00FF20EBH   LINE      CODE     ---       #106
      00FF20EFH   LINE      CODE     ---       #107
      00FF20F2H   LINE      CODE     ---       #109
      00FF20F2H   LINE      CODE     ---       #111
      00FF20F6H   LINE      CODE     ---       #112
      00FF20F9H   LINE      CODE     ---       #115
L251 LINKER/LOCATER V4.66.93.0                                                        07/16/2023  18:44:38  PAGE 33


      00FF20F9H   LINE      CODE     ---       #117
      00FF20FDH   LINE      CODE     ---       #118
      00FF20FFH   LINE      CODE     ---       #120
      00FF20FFH   LINE      CODE     ---       #122
      00FF2103H   LINE      CODE     ---       #123
      00FF2105H   LINE      CODE     ---       #125
      00FF2105H   LINE      CODE     ---       #127
      00FF2109H   LINE      CODE     ---       #128
      00FF210BH   LINE      CODE     ---       #130
      00FF210BH   LINE      CODE     ---       #132
      00FF210FH   LINE      CODE     ---       #133
      00FF2111H   LINE      CODE     ---       #135
      00FF2111H   LINE      CODE     ---       #137
      00FF2115H   LINE      CODE     ---       #138
      00FF2117H   LINE      CODE     ---       #140
      00FF2117H   LINE      CODE     ---       #142
      00FF211BH   LINE      CODE     ---       #143
      00FF211DH   LINE      CODE     ---       #147
      00FF211DH   LINE      CODE     ---       #149
      00FF2121H   LINE      CODE     ---       #150
      00FF2123H   LINE      CODE     ---       #152
      00FF2123H   LINE      CODE     ---       #154
      00FF2127H   LINE      CODE     ---       #155
      00FF2129H   LINE      CODE     ---       #157
      00FF2129H   LINE      CODE     ---       #159
      00FF212DH   LINE      CODE     ---       #160
      00FF212FH   LINE      CODE     ---       #162
      00FF212FH   LINE      CODE     ---       #164
      00FF2133H   LINE      CODE     ---       #165
      00FF2135H   LINE      CODE     ---       #167
      00FF2135H   LINE      CODE     ---       #169
      00FF2139H   LINE      CODE     ---       #170
      00FF213BH   LINE      CODE     ---       #172
      00FF213BH   LINE      CODE     ---       #174
      00FF213FH   LINE      CODE     ---       #175
      00FF2141H   LINE      CODE     ---       #177
      00FF2141H   LINE      CODE     ---       #179
      00FF2145H   LINE      CODE     ---       #180
      00FF2147H   LINE      CODE     ---       #182
      00FF2147H   LINE      CODE     ---       #184
      00FF214BH   LINE      CODE     ---       #185
      00FF214DH   LINE      CODE     ---       #189
      00FF214DH   LINE      CODE     ---       #191
      00FF2151H   LINE      CODE     ---       #192
      00FF2153H   LINE      CODE     ---       #194
      00FF2153H   LINE      CODE     ---       #196
      00FF2157H   LINE      CODE     ---       #197
      00FF2159H   LINE      CODE     ---       #199
      00FF2159H   LINE      CODE     ---       #201
      00FF215BH   LINE      CODE     ---       #202
      00FF215DH   LINE      CODE     ---       #204
      00FF215DH   LINE      CODE     ---       #206
      00FF2161H   LINE      CODE     ---       #207
      00FF2163H   LINE      CODE     ---       #210
      00FF2163H   LINE      CODE     ---       #212
      00FF2167H   LINE      CODE     ---       #213
      00FF2169H   LINE      CODE     ---       #215
      00FF2169H   LINE      CODE     ---       #217
      00FF216DH   LINE      CODE     ---       #218
      00FF216FH   LINE      CODE     ---       #220
      00FF216FH   LINE      CODE     ---       #222
      00FF2175H   LINE      CODE     ---       #223
      00FF2177H   LINE      CODE     ---       #225
      00FF2177H   LINE      CODE     ---       #227
      00FF217FH   LINE      CODE     ---       #228
L251 LINKER/LOCATER V4.66.93.0                                                        07/16/2023  18:44:38  PAGE 34


      00FF2181H   LINE      CODE     ---       #232
      00FF2181H   LINE      CODE     ---       #234
      00FF2189H   LINE      CODE     ---       #235
      00FF218BH   LINE      CODE     ---       #237
      00FF218BH   LINE      CODE     ---       #239
      00FF2193H   LINE      CODE     ---       #240
      00FF2195H   LINE      CODE     ---       #242
      00FF2195H   LINE      CODE     ---       #244
      00FF219DH   LINE      CODE     ---       #245
      00FF219FH   LINE      CODE     ---       #247
      00FF219FH   LINE      CODE     ---       #249
      00FF21A7H   LINE      CODE     ---       #250
      00FF21A9H   LINE      CODE     ---       #254
      00FF21A9H   LINE      CODE     ---       #256
      00FF21B1H   LINE      CODE     ---       #257
      00FF21B3H   LINE      CODE     ---       #259
      00FF21B3H   LINE      CODE     ---       #261
      00FF21BBH   LINE      CODE     ---       #262
      00FF21BDH   LINE      CODE     ---       #264
      00FF21BDH   LINE      CODE     ---       #266
      00FF21C5H   LINE      CODE     ---       #267
      00FF21C7H   LINE      CODE     ---       #269
      00FF21C7H   LINE      CODE     ---       #271
      00FF21D2H   LINE      CODE     ---       #272
      00FF21D2H   LINE      CODE     ---       #275
      00FF21D2H   LINE      CODE     ---       #277
      ---         BLOCKEND  ---      ---       LVL=0

      00FF1C4EH   BLOCK     CODE     ---       LVL=0
      WR14        REGSYM    ---      INT       pwmch
      00000405H   SYMBOL    EDATA    DWORD     freq
      00000409H   SYMBOL    EDATA    DWORD     duty
      00FF1C56H   BLOCK     CODE     NEAR LAB  LVL=1
      DR4         REGSYM    ---      DWORD     match_temp
      DR28        REGSYM    ---      DWORD     period_temp
      WR26        REGSYM    ---      WORD      freq_div
      ---         BLOCKEND  ---      ---       LVL=1
      00FF1C4EH   LINE      CODE     ---       #290
      00FF1C56H   LINE      CODE     ---       #291
      00FF1C56H   LINE      CODE     ---       #295
      00FF1C56H   LINE      CODE     ---       #298
      00FF1C59H   LINE      CODE     ---       #301
      00FF1C5CH   LINE      CODE     ---       #305
      00FF1C6DH   LINE      CODE     ---       #306
      00FF1C6DH   LINE      CODE     ---       #307
      00FF1C76H   LINE      CODE     ---       #309
      00FF1C97H   LINE      CODE     ---       #312
      00FF1CA0H   LINE      CODE     ---       #315
      00FF1CCBH   LINE      CODE     ---       #316
      00FF1CECH   LINE      CODE     ---       #319
      00FF1D38H   LINE      CODE     ---       #322
      00FF1D47H   LINE      CODE     ---       #323
      00FF1D52H   LINE      CODE     ---       #325
      00FF1D5BH   LINE      CODE     ---       #326
      00FF1D61H   LINE      CODE     ---       #327
      00FF1D64H   LINE      CODE     ---       #330
      00FF1D9CH   LINE      CODE     ---       #331
      00FF1DBFH   LINE      CODE     ---       #334
      00FF1E11H   LINE      CODE     ---       #338
      00FF1E20H   LINE      CODE     ---       #339
      00FF1E2BH   LINE      CODE     ---       #341
      00FF1E34H   LINE      CODE     ---       #342
      00FF1E41H   LINE      CODE     ---       #343
      00FF1E41H   LINE      CODE     ---       #346
      00FF1E6DH   LINE      CODE     ---       #347
L251 LINKER/LOCATER V4.66.93.0                                                        07/16/2023  18:44:38  PAGE 35


      00FF1E9BH   LINE      CODE     ---       #350
      00FF1EC1H   LINE      CODE     ---       #351
      00FF1EEDH   LINE      CODE     ---       #354
      00FF1F04H   LINE      CODE     ---       #355
      00FF1F2FH   LINE      CODE     ---       #360
      ---         BLOCKEND  ---      ---       LVL=0

      00FF2EEAH   BLOCK     CODE     ---       LVL=0
      WR30        REGSYM    ---      INT       pwmch
      DR24        REGSYM    ---      DWORD     duty
      00FF2EEEH   BLOCK     CODE     NEAR LAB  LVL=1
      DR0         REGSYM    ---      DWORD     match_temp
      DR20        REGSYM    ---      DWORD     arr
      ---         BLOCKEND  ---      ---       LVL=1
      00FF2EEAH   LINE      CODE     ---       #370
      00FF2EEEH   LINE      CODE     ---       #371
      00FF2EEEH   LINE      CODE     ---       #373
      00FF2F32H   LINE      CODE     ---       #377
      00FF2F53H   LINE      CODE     ---       #381
      00FF2F79H   LINE      CODE     ---       #382
      00FF2FA1H   LINE      CODE     ---       #386
      ---         BLOCKEND  ---      ---       LVL=0
      WR30        REGSYM    ---      INT       pwmch
      DR24        REGSYM    ---      DWORD     freq
      DR0         REGSYM    ---      DWORD     match_temp
      DR24        REGSYM    ---      DWORD     period_temp
      WR28        REGSYM    ---      WORD      freq_div

      ---         MODULE    ---      ---       zf_spi
      00FF3F65H   PUBLIC    CODE     ---       spi_mosi
      000000CFH   SFRSYM    DATA     BYTE      SPDAT
      000000D0H   SFRSYM    DATA     BYTE      PSW
      000000CDH   SFRSYM    DATA     BYTE      SPSTAT
      00000088H   SFRSYM    DATA     BYTE      TCON
      00000098H   SFRSYM    DATA     BYTE      SCON
      000000B8H   SFRSYM    DATA     BYTE      IP
      000000A8H   SFRSYM    DATA     BYTE      IE
      000000A2H   SFRSYM    DATA     BYTE      P_SW1
      000000CEH   SFRSYM    DATA     BYTE      SPCTL
      000000F8H   SFRSYM    DATA     BYTE      P7
      000000E8H   SFRSYM    DATA     BYTE      P6
      000000C8H   SFRSYM    DATA     BYTE      P5
      000000C0H   SFRSYM    DATA     BYTE      P4
      000000B0H   SFRSYM    DATA     BYTE      P3
      000000A0H   SFRSYM    DATA     BYTE      P2
      00000090H   SFRSYM    DATA     BYTE      P1
      00000080H   SFRSYM    DATA     BYTE      P0
      WR14        REGSYM    ---      INT       spi_n
      R13         REGSYM    ---      BYTE      mode

      00FF3F65H   BLOCK     CODE     ---       LVL=0
      R11         REGSYM    ---      BYTE      dat
      00FF3F65H   LINE      CODE     ---       #129
      00FF3F65H   LINE      CODE     ---       #131
      00FF3F68H   LINE      CODE     ---       #132
      00FF3F6DH   LINE      CODE     ---       #133
      00FF3F70H   LINE      CODE     ---       #134
      00FF3F72H   LINE      CODE     ---       #135
      ---         BLOCKEND  ---      ---       LVL=0
      WR14        REGSYM    ---      INT       spi_n
      R7          REGSYM    ---      BYTE      mode

      ---         MODULE    ---      ---       zf_tim
      00FF36D1H   PUBLIC    CODE     ---       ctimer_count_read
      00FF3055H   PUBLIC    CODE     ---       pit_timer_ms
L251 LINKER/LOCATER V4.66.93.0                                                        07/16/2023  18:44:38  PAGE 36


      00FF37B7H   PUBLIC    CODE     ---       ctimer_count_init
      00FF35E1H   PUBLIC    CODE     ---       ctimer_count_clean
      000000D0H   SFRSYM    DATA     BYTE      PSW
      000000DDH   SFRSYM    DATA     BYTE      T4T3M
      00000088H.6 SFRSYM    DATA     BIT       TR1
      00000088H.4 SFRSYM    DATA     BIT       TR0
      000000D3H   SFRSYM    DATA     BYTE      T4L
      000000D5H   SFRSYM    DATA     BYTE      T3L
      000000D7H   SFRSYM    DATA     BYTE      T2L
      0000008BH   SFRSYM    DATA     BYTE      TL1
      0000008AH   SFRSYM    DATA     BYTE      TL0
      000000D2H   SFRSYM    DATA     BYTE      T4H
      000000D4H   SFRSYM    DATA     BYTE      T3H
      000000D6H   SFRSYM    DATA     BYTE      T2H
      0000008DH   SFRSYM    DATA     BYTE      TH1
      0000008CH   SFRSYM    DATA     BYTE      TH0
      000000A8H.3 SFRSYM    DATA     BIT       ET1
      000000A8H.1 SFRSYM    DATA     BIT       ET0
      0000008EH   SFRSYM    DATA     BYTE      AUXR
      000000AFH   SFRSYM    DATA     BYTE      IE2
      00000088H   SFRSYM    DATA     BYTE      TCON
      00000089H   SFRSYM    DATA     BYTE      TMOD
      00000098H   SFRSYM    DATA     BYTE      SCON
      000000B8H   SFRSYM    DATA     BYTE      IP
      000000A8H   SFRSYM    DATA     BYTE      IE
      000000F8H   SFRSYM    DATA     BYTE      P7
      000000E8H   SFRSYM    DATA     BYTE      P6
      000000C8H   SFRSYM    DATA     BYTE      P5
      000000C0H   SFRSYM    DATA     BYTE      P4
      000000B0H   SFRSYM    DATA     BYTE      P3
      000000A0H   SFRSYM    DATA     BYTE      P2
      00000090H   SFRSYM    DATA     BYTE      P1
      00000080H   SFRSYM    DATA     BYTE      P0

      00FF37B7H   BLOCK     CODE     ---       LVL=0
      WR6         REGSYM    ---      INT       tim_n
      00FF37B7H   LINE      CODE     ---       #39
      00FF37B7H   LINE      CODE     ---       #42
      00FF37CBH   LINE      CODE     ---       #44
      00FF37CBH   LINE      CODE     ---       #46
      00FF37CEH   LINE      CODE     ---       #47
      00FF37D1H   LINE      CODE     ---       #48
      00FF37D4H   LINE      CODE     ---       #49
      00FF37D6H   LINE      CODE     ---       #50
      00FF37D7H   LINE      CODE     ---       #53
      00FF37D7H   LINE      CODE     ---       #55
      00FF37DAH   LINE      CODE     ---       #56
      00FF37DDH   LINE      CODE     ---       #57
      00FF37E0H   LINE      CODE     ---       #58
      00FF37E2H   LINE      CODE     ---       #59
      00FF37E3H   LINE      CODE     ---       #62
      00FF37E3H   LINE      CODE     ---       #64
      00FF37E6H   LINE      CODE     ---       #65
      00FF37E9H   LINE      CODE     ---       #66
      00FF37ECH   LINE      CODE     ---       #67
      00FF37EDH   LINE      CODE     ---       #70
      00FF37EDH   LINE      CODE     ---       #72
      00FF37F0H   LINE      CODE     ---       #73
      00FF37F3H   LINE      CODE     ---       #74
      00FF37F6H   LINE      CODE     ---       #75
      00FF37F7H   LINE      CODE     ---       #78
      00FF37F7H   LINE      CODE     ---       #80
      00FF37FAH   LINE      CODE     ---       #81
      00FF37FDH   LINE      CODE     ---       #82
      00FF3800H   LINE      CODE     ---       #83
L251 LINKER/LOCATER V4.66.93.0                                                        07/16/2023  18:44:38  PAGE 37


      00FF3800H   LINE      CODE     ---       #86
      00FF3800H   LINE      CODE     ---       #87
      ---         BLOCKEND  ---      ---       LVL=0

      00FF36D1H   BLOCK     CODE     ---       LVL=0
      WR4         REGSYM    ---      INT       tim_n
      00FF36D3H   BLOCK     CODE     NEAR LAB  LVL=1
      WR6         REGSYM    ---      WORD      dat
      ---         BLOCKEND  ---      ---       LVL=1
      00FF36D1H   LINE      CODE     ---       #95
      00FF36D3H   LINE      CODE     ---       #96
      00FF36D3H   LINE      CODE     ---       #97
      00FF36D5H   LINE      CODE     ---       #99
      00FF36E9H   LINE      CODE     ---       #101
      00FF36E9H   LINE      CODE     ---       #103
      00FF36EFH   LINE      CODE     ---       #104
      00FF36F1H   LINE      CODE     ---       #105
      00FF36F3H   LINE      CODE     ---       #107
      00FF36F3H   LINE      CODE     ---       #109
      00FF36F9H   LINE      CODE     ---       #110
      00FF36FBH   LINE      CODE     ---       #111
      00FF36FDH   LINE      CODE     ---       #113
      00FF36FDH   LINE      CODE     ---       #115
      00FF3703H   LINE      CODE     ---       #116
      00FF3705H   LINE      CODE     ---       #117
      00FF3707H   LINE      CODE     ---       #119
      00FF3707H   LINE      CODE     ---       #121
      00FF370DH   LINE      CODE     ---       #122
      00FF370FH   LINE      CODE     ---       #123
      00FF3711H   LINE      CODE     ---       #125
      00FF3711H   LINE      CODE     ---       #127
      00FF3717H   LINE      CODE     ---       #128
      00FF371DH   LINE      CODE     ---       #129
      00FF371DH   LINE      CODE     ---       #132
      00FF371DH   LINE      CODE     ---       #133
      00FF371DH   LINE      CODE     ---       #134
      ---         BLOCKEND  ---      ---       LVL=0

      00FF35E1H   BLOCK     CODE     ---       LVL=0
      WR6         REGSYM    ---      INT       tim_n
      00FF35E1H   LINE      CODE     ---       #143
      00FF35E1H   LINE      CODE     ---       #145
      00FF35F5H   LINE      CODE     ---       #147
      00FF35F5H   LINE      CODE     ---       #149
      00FF35F7H   LINE      CODE     ---       #150
      00FF35FAH   LINE      CODE     ---       #151
      00FF35FDH   LINE      CODE     ---       #152
      00FF35FFH   LINE      CODE     ---       #153
      00FF3600H   LINE      CODE     ---       #155
      00FF3600H   LINE      CODE     ---       #157
      00FF3602H   LINE      CODE     ---       #158
      00FF3605H   LINE      CODE     ---       #159
      00FF3608H   LINE      CODE     ---       #160
      00FF360AH   LINE      CODE     ---       #161
      00FF360BH   LINE      CODE     ---       #163
      00FF360BH   LINE      CODE     ---       #165
      00FF360EH   LINE      CODE     ---       #166
      00FF3611H   LINE      CODE     ---       #167
      00FF3614H   LINE      CODE     ---       #168
      00FF3617H   LINE      CODE     ---       #169
      00FF3618H   LINE      CODE     ---       #171
      00FF3618H   LINE      CODE     ---       #173
      00FF361BH   LINE      CODE     ---       #174
      00FF361EH   LINE      CODE     ---       #175
      00FF3621H   LINE      CODE     ---       #176
L251 LINKER/LOCATER V4.66.93.0                                                        07/16/2023  18:44:38  PAGE 38


      00FF3624H   LINE      CODE     ---       #177
      00FF3625H   LINE      CODE     ---       #179
      00FF3625H   LINE      CODE     ---       #181
      00FF3628H   LINE      CODE     ---       #182
      00FF362BH   LINE      CODE     ---       #183
      00FF362EH   LINE      CODE     ---       #184
      00FF3631H   LINE      CODE     ---       #185
      00FF3631H   LINE      CODE     ---       #187
      00FF3631H   LINE      CODE     ---       #188
      ---         BLOCKEND  ---      ---       LVL=0

      00FF3055H   BLOCK     CODE     ---       LVL=0
      WR30        REGSYM    ---      INT       tim_n
      WR28        REGSYM    ---      WORD      time_ms
      00FF3057H   BLOCK     CODE     NEAR LAB  LVL=1
      WR28        REGSYM    ---      WORD      temp
      ---         BLOCKEND  ---      ---       LVL=1
      00FF3055H   LINE      CODE     ---       #198
      00FF3057H   LINE      CODE     ---       #199
      00FF3057H   LINE      CODE     ---       #201
      00FF3074H   LINE      CODE     ---       #203
      00FF3078H   LINE      CODE     ---       #205
      00FF307CH   LINE      CODE     ---       #206
      00FF3082H   LINE      CODE     ---       #207
      00FF3086H   LINE      CODE     ---       #208
      00FF3088H   LINE      CODE     ---       #209
      00FF308AH   LINE      CODE     ---       #210
      00FF308BH   LINE      CODE     ---       #211
      00FF3091H   LINE      CODE     ---       #213
      00FF3095H   LINE      CODE     ---       #214
      00FF309BH   LINE      CODE     ---       #215
      00FF309FH   LINE      CODE     ---       #216
      00FF30A1H   LINE      CODE     ---       #217
      00FF30A3H   LINE      CODE     ---       #218
      00FF30A4H   LINE      CODE     ---       #219
      00FF30AAH   LINE      CODE     ---       #221
      00FF30B0H   LINE      CODE     ---       #222
      00FF30B4H   LINE      CODE     ---       #223
      00FF30B7H   LINE      CODE     ---       #224
      00FF30BAH   LINE      CODE     ---       #225
      00FF30BBH   LINE      CODE     ---       #226
      00FF30C1H   LINE      CODE     ---       #228
      00FF30C7H   LINE      CODE     ---       #229
      00FF30CBH   LINE      CODE     ---       #230
      00FF30CEH   LINE      CODE     ---       #231
      00FF30D1H   LINE      CODE     ---       #232
      00FF30D2H   LINE      CODE     ---       #233
      00FF30D8H   LINE      CODE     ---       #235
      00FF30DEH   LINE      CODE     ---       #236
      00FF30E2H   LINE      CODE     ---       #237
      00FF30E5H   LINE      CODE     ---       #238
      00FF30E8H   LINE      CODE     ---       #239
      ---         BLOCKEND  ---      ---       LVL=0

      ---         MODULE    ---      ---       zf_uart
      00FF34E6H   PUBLIC    CODE     ---       uart_putchar
      00FF21D3H   PUBLIC    CODE     ---       uart_init
      00000123H   PUBLIC    EDATA    ---       uart1_rx_buff
      00000187H   PUBLIC    EDATA    ---       uart1_tx_buff
      000001EBH   PUBLIC    EDATA    ---       busy
      000003FFH   PUBLIC    EDATA    BYTE      ?uart_init?BYTE
      000000D0H   SFRSYM    DATA     BYTE      PSW
      000000FDH   SFRSYM    DATA     BYTE      S4CON
      000000ACH   SFRSYM    DATA     BYTE      S3CON
      0000009AH   SFRSYM    DATA     BYTE      S2CON
L251 LINKER/LOCATER V4.66.93.0                                                        07/16/2023  18:44:38  PAGE 39


      000000FEH   SFRSYM    DATA     BYTE      S4BUF
      000000ADH   SFRSYM    DATA     BYTE      S3BUF
      0000009BH   SFRSYM    DATA     BYTE      S2BUF
      000000DDH   SFRSYM    DATA     BYTE      T4T3M
      00000088H.6 SFRSYM    DATA     BIT       TR1
      000000D3H   SFRSYM    DATA     BYTE      T4L
      000000D5H   SFRSYM    DATA     BYTE      T3L
      000000D7H   SFRSYM    DATA     BYTE      T2L
      0000008BH   SFRSYM    DATA     BYTE      TL1
      000000D2H   SFRSYM    DATA     BYTE      T4H
      000000D4H   SFRSYM    DATA     BYTE      T3H
      000000D6H   SFRSYM    DATA     BYTE      T2H
      0000008DH   SFRSYM    DATA     BYTE      TH1
      0000008EH   SFRSYM    DATA     BYTE      AUXR
      000000AFH   SFRSYM    DATA     BYTE      IE2
      00000088H   SFRSYM    DATA     BYTE      TCON
      00000089H   SFRSYM    DATA     BYTE      TMOD
      00000098H   SFRSYM    DATA     BYTE      SCON
      00000099H   SFRSYM    DATA     BYTE      SBUF
      000000B8H   SFRSYM    DATA     BYTE      IP
      000000A8H.4 SFRSYM    DATA     BIT       ES
      000000A8H   SFRSYM    DATA     BYTE      IE
      000000BAH   SFRSYM    DATA     BYTE      P_SW2
      000000A2H   SFRSYM    DATA     BYTE      P_SW1
      000000F8H   SFRSYM    DATA     BYTE      P7
      000000E8H   SFRSYM    DATA     BYTE      P6
      000000C8H   SFRSYM    DATA     BYTE      P5
      000000C0H   SFRSYM    DATA     BYTE      P4
      000000C9H   SFRSYM    DATA     BYTE      P5M1
      000000B0H   SFRSYM    DATA     BYTE      P3
      000000CAH   SFRSYM    DATA     BYTE      P5M0
      000000A0H   SFRSYM    DATA     BYTE      P2
      00000090H   SFRSYM    DATA     BYTE      P1
      00000080H   SFRSYM    DATA     BYTE      P0

      00FF21D3H   BLOCK     CODE     ---       LVL=0
      WR24        REGSYM    ---      INT       uart_n
      WR28        REGSYM    ---      INT       uart_rx_pin
      WR30        REGSYM    ---      INT       uart_tx_pin
      00000405H   SYMBOL    EDATA    DWORD     baud
      WR26        REGSYM    ---      INT       tim_n
      00FF21DBH   BLOCK     CODE     NEAR LAB  LVL=1
      WR6         REGSYM    ---      WORD      brt
      ---         BLOCKEND  ---      ---       LVL=1
      00FF21D3H   LINE      CODE     ---       #48
      00FF21DBH   LINE      CODE     ---       #49
      00FF21DBH   LINE      CODE     ---       #52
      00FF21FEH   LINE      CODE     ---       #55
      00FF221CH   LINE      CODE     ---       #57
      00FF221CH   LINE      CODE     ---       #59
      00FF2222H   LINE      CODE     ---       #61
      00FF2225H   LINE      CODE     ---       #62
      00FF2229H   LINE      CODE     ---       #63
      00FF222DH   LINE      CODE     ---       #64
      00FF2231H   LINE      CODE     ---       #65
      00FF2234H   LINE      CODE     ---       #66
      00FF2236H   LINE      CODE     ---       #67
      00FF223BH   LINE      CODE     ---       #68
      00FF223DH   LINE      CODE     ---       #69
      00FF2243H   LINE      CODE     ---       #71
      00FF2246H   LINE      CODE     ---       #72
      00FF224AH   LINE      CODE     ---       #73
      00FF224EH   LINE      CODE     ---       #74
      00FF2251H   LINE      CODE     ---       #75
      00FF2251H   LINE      CODE     ---       #76
L251 LINKER/LOCATER V4.66.93.0                                                        07/16/2023  18:44:38  PAGE 40


      00FF2254H   LINE      CODE     ---       #77
      00FF225EH   LINE      CODE     ---       #79
      00FF2262H   LINE      CODE     ---       #80
      00FF2264H   LINE      CODE     ---       #81
      00FF2270H   LINE      CODE     ---       #83
      00FF2273H   LINE      CODE     ---       #84
      00FF2275H   LINE      CODE     ---       #85
      00FF2281H   LINE      CODE     ---       #87
      00FF2284H   LINE      CODE     ---       #88
      00FF2286H   LINE      CODE     ---       #89
      00FF2292H   LINE      CODE     ---       #91
      00FF2295H   LINE      CODE     ---       #92
      00FF2295H   LINE      CODE     ---       #93
      00FF229AH   LINE      CODE     ---       #94
      00FF229CH   LINE      CODE     ---       #95
      00FF229DH   LINE      CODE     ---       #98
      00FF229DH   LINE      CODE     ---       #100
      00FF22A3H   LINE      CODE     ---       #102
      00FF22A6H   LINE      CODE     ---       #103
      00FF22AAH   LINE      CODE     ---       #104
      00FF22AEH   LINE      CODE     ---       #105
      00FF22B1H   LINE      CODE     ---       #106
      00FF22B1H   LINE      CODE     ---       #108
      00FF22B4H   LINE      CODE     ---       #109
      00FF22C0H   LINE      CODE     ---       #111
      00FF22C4H   LINE      CODE     ---       #112
      00FF22C6H   LINE      CODE     ---       #113
      00FF22D2H   LINE      CODE     ---       #115
      00FF22D5H   LINE      CODE     ---       #116
      00FF22D5H   LINE      CODE     ---       #118
      00FF22D8H   LINE      CODE     ---       #119
      00FF22DDH   LINE      CODE     ---       #120
      00FF22DEH   LINE      CODE     ---       #123
      00FF22DEH   LINE      CODE     ---       #125
      00FF22E4H   LINE      CODE     ---       #127
      00FF22E7H   LINE      CODE     ---       #128
      00FF22EBH   LINE      CODE     ---       #129
      00FF22EFH   LINE      CODE     ---       #130
      00FF22F2H   LINE      CODE     ---       #131
      00FF22F4H   LINE      CODE     ---       #132
      00FF22FAH   LINE      CODE     ---       #134
      00FF22FDH   LINE      CODE     ---       #135
      00FF2301H   LINE      CODE     ---       #136
      00FF2305H   LINE      CODE     ---       #137
      00FF2308H   LINE      CODE     ---       #138
      00FF2308H   LINE      CODE     ---       #140
      00FF230BH   LINE      CODE     ---       #141
      00FF2317H   LINE      CODE     ---       #143
      00FF231BH   LINE      CODE     ---       #144
      00FF231DH   LINE      CODE     ---       #145
      00FF2329H   LINE      CODE     ---       #147
      00FF232CH   LINE      CODE     ---       #148
      00FF232CH   LINE      CODE     ---       #150
      00FF232FH   LINE      CODE     ---       #151
      00FF2334H   LINE      CODE     ---       #152
      00FF2335H   LINE      CODE     ---       #155
      00FF2335H   LINE      CODE     ---       #157
      00FF233BH   LINE      CODE     ---       #159
      00FF233EH   LINE      CODE     ---       #160
      00FF2342H   LINE      CODE     ---       #161
      00FF2346H   LINE      CODE     ---       #162
      00FF2349H   LINE      CODE     ---       #163
      00FF234BH   LINE      CODE     ---       #164
      00FF2351H   LINE      CODE     ---       #166
      00FF2354H   LINE      CODE     ---       #167
L251 LINKER/LOCATER V4.66.93.0                                                        07/16/2023  18:44:38  PAGE 41


      00FF2358H   LINE      CODE     ---       #168
      00FF235CH   LINE      CODE     ---       #169
      00FF235FH   LINE      CODE     ---       #170
      00FF235FH   LINE      CODE     ---       #172
      00FF2362H   LINE      CODE     ---       #173
      00FF236EH   LINE      CODE     ---       #175
      00FF2372H   LINE      CODE     ---       #176
      00FF2374H   LINE      CODE     ---       #177
      00FF2380H   LINE      CODE     ---       #179
      00FF2383H   LINE      CODE     ---       #180
      00FF2386H   LINE      CODE     ---       #181
      00FF2389H   LINE      CODE     ---       #182
      00FF2389H   LINE      CODE     ---       #183
      00FF238CH   LINE      CODE     ---       #184
      00FF2391H   LINE      CODE     ---       #185
      00FF2391H   LINE      CODE     ---       #188
      00FF2391H   LINE      CODE     ---       #190
      ---         BLOCKEND  ---      ---       LVL=0

      00FF34E6H   BLOCK     CODE     ---       LVL=0
      WR6         REGSYM    ---      INT       uart_n
      R10         REGSYM    ---      BYTE      dat
      00FF34E6H   LINE      CODE     ---       #199
      00FF34E8H   LINE      CODE     ---       #201
      00FF34FAH   LINE      CODE     ---       #203
      00FF34FAH   LINE      CODE     ---       #204
      00FF3500H   LINE      CODE     ---       #205
      00FF3506H   LINE      CODE     ---       #206
      00FF3509H   LINE      CODE     ---       #207
      00FF350AH   LINE      CODE     ---       #208
      00FF350AH   LINE      CODE     ---       #209
      00FF3510H   LINE      CODE     ---       #210
      00FF3516H   LINE      CODE     ---       #211
      00FF3519H   LINE      CODE     ---       #212
      00FF351AH   LINE      CODE     ---       #213
      00FF351AH   LINE      CODE     ---       #214
      00FF3520H   LINE      CODE     ---       #215
      00FF3526H   LINE      CODE     ---       #216
      00FF3529H   LINE      CODE     ---       #217
      00FF352AH   LINE      CODE     ---       #218
      00FF352AH   LINE      CODE     ---       #219
      00FF3530H   LINE      CODE     ---       #220
      00FF3536H   LINE      CODE     ---       #221
      00FF3539H   LINE      CODE     ---       #222
      00FF3539H   LINE      CODE     ---       #223
      00FF3539H   LINE      CODE     ---       #224
      ---         BLOCKEND  ---      ---       LVL=0
      REG=3       REGSYM    ---      ---       p
      REG=3       REGSYM    ---      ---       str

      ---         MODULE    ---      ---       zf_fifo
      00FF3846H   PUBLIC    CODE     ---       fifo_head_offset
      00FF2D2FH   PUBLIC    CODE     ---       fifo_write_buffer
      000003F5H   PUBLIC    EDATA    BYTE      ?fifo_write_buffer?BYTE
      000000D0H   SFRSYM    DATA     BYTE      PSW
      00000088H   SFRSYM    DATA     BYTE      TCON
      00000098H   SFRSYM    DATA     BYTE      SCON
      000000B8H   SFRSYM    DATA     BYTE      IP
      000000A8H   SFRSYM    DATA     BYTE      IE
      000000F8H   SFRSYM    DATA     BYTE      P7
      000000E8H   SFRSYM    DATA     BYTE      P6
      000000C8H   SFRSYM    DATA     BYTE      P5
      000000C0H   SFRSYM    DATA     BYTE      P4
      000000B0H   SFRSYM    DATA     BYTE      P3
      000000A0H   SFRSYM    DATA     BYTE      P2
L251 LINKER/LOCATER V4.66.93.0                                                        07/16/2023  18:44:38  PAGE 42


      00000090H   SFRSYM    DATA     BYTE      P1
      00000080H   SFRSYM    DATA     BYTE      P0
      REG=2       REGSYM    ---      ---       fifo
      REG=7       REGSYM    ---      ---       buffer_addr

      00FF3846H   BLOCK     CODE     ---       LVL=0
      REG=7       REGSYM    ---      ---       fifo
      DR24        REGSYM    ---      DWORD     offset
      00FF3846H   LINE      CODE     ---       #61
      00FF384AH   LINE      CODE     ---       #63
      00FF3855H   LINE      CODE     ---       #65
      00FF3857H   LINE      CODE     ---       #67
      00FF3873H   LINE      CODE     ---       #68
      00FF3887H   LINE      CODE     ---       #69
      ---         BLOCKEND  ---      ---       LVL=0
      REG=7       REGSYM    ---      ---       fifo
      DR24        REGSYM    ---      DWORD     offset
      REG=2       REGSYM    ---      ---       fifo
      REG=7       REGSYM    ---      ---       fifo

      00FF2D2FH   BLOCK     CODE     ---       LVL=0
      REG=3       REGSYM    ---      ---       fifo
      000003F9H   SYMBOL    EDATA    ---       dat
      000003FDH   SYMBOL    EDATA    DWORD     length
      00FF2D37H   BLOCK     CODE     NEAR LAB  LVL=1
      00000401H   SYMBOL    EDATA    DWORD     temp_length
      ---         BLOCKEND  ---      ---       LVL=1
      00FF2D2FH   LINE      CODE     ---       #120
      00FF2D37H   LINE      CODE     ---       #121
      00FF2D37H   LINE      CODE     ---       #124
      00FF2D4AH   LINE      CODE     ---       #126
      00FF2D60H   LINE      CODE     ---       #128
      00FF2D64H   LINE      CODE     ---       #130
      00FF2D7CH   LINE      CODE     ---       #131
      00FF2D85H   LINE      CODE     ---       #132
      00FF2D95H   LINE      CODE     ---       #133
      00FF2DB5H   LINE      CODE     ---       #134
      00FF2DC1H   LINE      CODE     ---       #135
      00FF2DC3H   LINE      CODE     ---       #138
      00FF2DDFH   LINE      CODE     ---       #139
      00FF2DE8H   LINE      CODE     ---       #140
      00FF2DE8H   LINE      CODE     ---       #142
      00FF2E02H   LINE      CODE     ---       #143
      00FF2E04H   LINE      CODE     ---       #146
      00FF2E0AH   LINE      CODE     ---       #147
      00FF2E0AH   LINE      CODE     ---       #149
      00FF2E0CH   LINE      CODE     ---       #150
      ---         BLOCKEND  ---      ---       LVL=0
      REG=3       REGSYM    ---      ---       fifo

      ---         MODULE    ---      ---       SEEKFREE_18TFT
      00FF3C31H   PUBLIC    CODE     ---       lcd_writeIndex_simspi
      00FF3C5AH   PUBLIC    CODE     ---       lcd_writeData_simspi
      00FF3F7EH   PUBLIC    CODE     ---       lcd_writeIndex
      00FF3F88H   PUBLIC    CODE     ---       lcd_writeData
      00FF3B82H   PUBLIC    CODE     ---       lcd_writeData_16bit_simspi
      00FF376BH   PUBLIC    CODE     ---       lcd_set_region_simspi
      00FF3632H   PUBLIC    CODE     ---       lcd_set_region
      00FF3DC9H   PUBLIC    CODE     ---       lcd_writedata_16bit
      000000D0H   SFRSYM    DATA     BYTE      PSW
      000000A0H.5 SFRSYM    DATA     BIT       P25
      00000088H   SFRSYM    DATA     BYTE      TCON
      000000A0H.3 SFRSYM    DATA     BIT       P23
      00000098H   SFRSYM    DATA     BYTE      SCON
      000000A0H.2 SFRSYM    DATA     BIT       P22
L251 LINKER/LOCATER V4.66.93.0                                                        07/16/2023  18:44:38  PAGE 43


      000000A0H.1 SFRSYM    DATA     BIT       P21
      000000A0H.0 SFRSYM    DATA     BIT       P20
      000000B8H   SFRSYM    DATA     BYTE      IP
      000000A8H   SFRSYM    DATA     BYTE      IE
      000000F8H   SFRSYM    DATA     BYTE      P7
      000000E8H   SFRSYM    DATA     BYTE      P6
      000000C8H   SFRSYM    DATA     BYTE      P5
      000000C0H   SFRSYM    DATA     BYTE      P4
      000000B0H   SFRSYM    DATA     BYTE      P3
      000000A0H   SFRSYM    DATA     BYTE      P2
      00000090H   SFRSYM    DATA     BYTE      P1
      00000080H   SFRSYM    DATA     BYTE      P0

      00FF3C31H   BLOCK     CODE     ---       LVL=0
      R7          REGSYM    ---      BYTE      dat
      00FF3C33H   BLOCK     CODE     NEAR LAB  LVL=1
      R6          REGSYM    ---      BYTE      i
      ---         BLOCKEND  ---      ---       LVL=1
      00FF3C31H   LINE      CODE     ---       #60
      00FF3C33H   LINE      CODE     ---       #61
      00FF3C33H   LINE      CODE     ---       #62
      00FF3C36H   LINE      CODE     ---       #64
      00FF3C38H   LINE      CODE     ---       #65
      00FF3C3AH   LINE      CODE     ---       #66
      00FF3C3CH   LINE      CODE     ---       #68
      00FF3C3EH   LINE      CODE     ---       #70
      00FF3C47H   LINE      CODE     ---       #71
      00FF3C49H   LINE      CODE     ---       #72
      00FF3C4BH   LINE      CODE     ---       #74
      00FF3C4DH   LINE      CODE     ---       #75
      00FF3C4FH   LINE      CODE     ---       #76
      00FF3C57H   LINE      CODE     ---       #77
      00FF3C59H   LINE      CODE     ---       #78
      ---         BLOCKEND  ---      ---       LVL=0

      00FF3C5AH   BLOCK     CODE     ---       LVL=0
      R7          REGSYM    ---      BYTE      dat
      00FF3C5CH   BLOCK     CODE     NEAR LAB  LVL=1
      R6          REGSYM    ---      BYTE      i
      ---         BLOCKEND  ---      ---       LVL=1
      00FF3C5AH   LINE      CODE     ---       #87
      00FF3C5CH   LINE      CODE     ---       #88
      00FF3C5CH   LINE      CODE     ---       #89
      00FF3C5FH   LINE      CODE     ---       #91
      00FF3C61H   LINE      CODE     ---       #92
      00FF3C63H   LINE      CODE     ---       #93
      00FF3C65H   LINE      CODE     ---       #94
      00FF3C67H   LINE      CODE     ---       #96
      00FF3C70H   LINE      CODE     ---       #97
      00FF3C72H   LINE      CODE     ---       #98
      00FF3C74H   LINE      CODE     ---       #100
      00FF3C76H   LINE      CODE     ---       #101
      00FF3C78H   LINE      CODE     ---       #102
      00FF3C80H   LINE      CODE     ---       #103
      00FF3C82H   LINE      CODE     ---       #104
      ---         BLOCKEND  ---      ---       LVL=0

      00FF3B82H   BLOCK     CODE     ---       LVL=0
      WR4         REGSYM    ---      WORD      dat
      00FF3B84H   BLOCK     CODE     NEAR LAB  LVL=1
      R10         REGSYM    ---      BYTE      i
      ---         BLOCKEND  ---      ---       LVL=1
      00FF3B82H   LINE      CODE     ---       #113
      00FF3B84H   LINE      CODE     ---       #114
      00FF3B84H   LINE      CODE     ---       #115
L251 LINKER/LOCATER V4.66.93.0                                                        07/16/2023  18:44:38  PAGE 44


      00FF3B87H   LINE      CODE     ---       #117
      00FF3B89H   LINE      CODE     ---       #118
      00FF3B8BH   LINE      CODE     ---       #119
      00FF3B8DH   LINE      CODE     ---       #121
      00FF3B8FH   LINE      CODE     ---       #123
      00FF3B9BH   LINE      CODE     ---       #124
      00FF3B9DH   LINE      CODE     ---       #125
      00FF3B9FH   LINE      CODE     ---       #127
      00FF3BA1H   LINE      CODE     ---       #128
      00FF3BA3H   LINE      CODE     ---       #129
      00FF3BABH   LINE      CODE     ---       #131
      00FF3BADH   LINE      CODE     ---       #133
      ---         BLOCKEND  ---      ---       LVL=0

      00FF376BH   BLOCK     CODE     ---       LVL=0
      0000044CH   SYMBOL    EDATA    WORD      x_start
      0000044EH   SYMBOL    EDATA    WORD      y_start
      WR12        REGSYM    ---      WORD      x_end
      WR14        REGSYM    ---      WORD      y_end
      00FF376BH   LINE      CODE     ---       #145
      00FF3775H   LINE      CODE     ---       #150
      00FF377AH   LINE      CODE     ---       #151
      00FF377EH   LINE      CODE     ---       #152
      00FF3787H   LINE      CODE     ---       #153
      00FF378BH   LINE      CODE     ---       #154
      00FF3792H   LINE      CODE     ---       #156
      00FF3797H   LINE      CODE     ---       #157
      00FF379BH   LINE      CODE     ---       #158
      00FF37A4H   LINE      CODE     ---       #159
      00FF37A8H   LINE      CODE     ---       #160
      00FF37AFH   LINE      CODE     ---       #177
      00FF37B4H   LINE      CODE     ---       #178
      ---         BLOCKEND  ---      ---       LVL=0
      WR14        REGSYM    ---      INT       color
      R13         REGSYM    ---      BYTE      i
      R12         REGSYM    ---      BYTE      j
      WR2         REGSYM    ---      WORD      x
      WR0         REGSYM    ---      WORD      y
      WR14        REGSYM    ---      WORD      color
      WR12        REGSYM    ---      WORD      x
      WR14        REGSYM    ---      WORD      y
      REG=3       REGSYM    ---      ---       dat
      WR12        REGSYM    ---      WORD      x
      WR14        REGSYM    ---      WORD      y
      WR12        REGSYM    ---      WORD      x
      WR14        REGSYM    ---      WORD      y
      R10         REGSYM    ---      BYTE      dat
      WR12        REGSYM    ---      WORD      x
      WR14        REGSYM    ---      WORD      y
      WR12        REGSYM    ---      WORD      x
      WR14        REGSYM    ---      WORD      y
      WR2         REGSYM    ---      WORD      dat
      WR12        REGSYM    ---      WORD      y
      R15         REGSYM    ---      BYTE      num
      R14         REGSYM    ---      BYTE      length
      DR12        REGSYM    ---      FLOAT     dat
      R7          REGSYM    ---      CHAR      point

      00FF3F7EH   BLOCK     CODE     ---       LVL=0
      R7          REGSYM    ---      BYTE      dat
      00FF3F7EH   LINE      CODE     ---       #607
      00FF3F7EH   LINE      CODE     ---       #610
      00FF3F80H   LINE      CODE     ---       #611
      00FF3F82H   LINE      CODE     ---       #612
      00FF3F85H   LINE      CODE     ---       #613
L251 LINKER/LOCATER V4.66.93.0                                                        07/16/2023  18:44:38  PAGE 45


      00FF3F87H   LINE      CODE     ---       #614
      ---         BLOCKEND  ---      ---       LVL=0

      00FF3F88H   BLOCK     CODE     ---       LVL=0
      R7          REGSYM    ---      BYTE      dat
      00FF3F88H   LINE      CODE     ---       #623
      00FF3F88H   LINE      CODE     ---       #625
      00FF3F8AH   LINE      CODE     ---       #626
      00FF3F8CH   LINE      CODE     ---       #627
      00FF3F8FH   LINE      CODE     ---       #628
      00FF3F91H   LINE      CODE     ---       #629
      ---         BLOCKEND  ---      ---       LVL=0

      00FF3DC9H   BLOCK     CODE     ---       LVL=0
      WR4         REGSYM    ---      WORD      dat
      00FF3DCBH   BLOCK     CODE     NEAR LAB  LVL=1
      00000461H   SYMBOL    EDATA    ---       dat1
      ---         BLOCKEND  ---      ---       LVL=1
      00FF3DC9H   LINE      CODE     ---       #638
      00FF3DCBH   LINE      CODE     ---       #639
      00FF3DCBH   LINE      CODE     ---       #642
      00FF3DCFH   LINE      CODE     ---       #643
      00FF3DD3H   LINE      CODE     ---       #645
      00FF3DD5H   LINE      CODE     ---       #646
      00FF3DD7H   LINE      CODE     ---       #647
      00FF3DDEH   LINE      CODE     ---       #648
      00FF3DE5H   LINE      CODE     ---       #649
      00FF3DE7H   LINE      CODE     ---       #651
      ---         BLOCKEND  ---      ---       LVL=0

      00FF3632H   BLOCK     CODE     ---       LVL=0
      00000450H   SYMBOL    EDATA    WORD      x_start
      00000452H   SYMBOL    EDATA    WORD      y_start
      WR12        REGSYM    ---      WORD      x_end
      WR14        REGSYM    ---      WORD      y_end
      00FF3632H   LINE      CODE     ---       #663
      00FF3640H   LINE      CODE     ---       #668
      00FF3645H   LINE      CODE     ---       #669
      00FF3649H   LINE      CODE     ---       #670
      00FF3652H   LINE      CODE     ---       #671
      00FF3656H   LINE      CODE     ---       #672
      00FF365DH   LINE      CODE     ---       #674
      00FF3662H   LINE      CODE     ---       #675
      00FF3666H   LINE      CODE     ---       #676
      00FF366FH   LINE      CODE     ---       #677
      00FF3673H   LINE      CODE     ---       #678
      00FF367AH   LINE      CODE     ---       #695
      00FF367FH   LINE      CODE     ---       #696
      ---         BLOCKEND  ---      ---       LVL=0
      WR14        REGSYM    ---      INT       color
      R13         REGSYM    ---      BYTE      i
      R12         REGSYM    ---      BYTE      j
      WR2         REGSYM    ---      WORD      x
      WR0         REGSYM    ---      WORD      y
      WR14        REGSYM    ---      WORD      color
      WR12        REGSYM    ---      WORD      x
      WR14        REGSYM    ---      WORD      y
      REG=3       REGSYM    ---      ---       dat
      WR12        REGSYM    ---      WORD      x
      WR14        REGSYM    ---      WORD      y
      WR12        REGSYM    ---      WORD      x
      WR14        REGSYM    ---      WORD      y
      R10         REGSYM    ---      BYTE      dat
      WR12        REGSYM    ---      WORD      x
      WR14        REGSYM    ---      WORD      y
L251 LINKER/LOCATER V4.66.93.0                                                        07/16/2023  18:44:38  PAGE 46


      WR12        REGSYM    ---      WORD      x
      WR14        REGSYM    ---      WORD      y
      WR2         REGSYM    ---      WORD      dat
      WR12        REGSYM    ---      WORD      y
      R15         REGSYM    ---      BYTE      num
      R14         REGSYM    ---      BYTE      length
      DR12        REGSYM    ---      FLOAT     dat
      R7          REGSYM    ---      CHAR      point
      REG=3       REGSYM    ---      ---       p

      ---         MODULE    ---      ---       SEEKFREE_ABSOLUTE_ENCODER
      00FF0006H   PUBLIC    CODE     ---       encoder_delay_us
      000000D0H   SFRSYM    DATA     BYTE      PSW
      000000A0H.7 SFRSYM    DATA     BIT       P27
      000000A0H.6 SFRSYM    DATA     BIT       P26
      000000A0H.5 SFRSYM    DATA     BIT       P25
      000000A0H.4 SFRSYM    DATA     BIT       P24
      00000088H   SFRSYM    DATA     BYTE      TCON
      00000098H   SFRSYM    DATA     BYTE      SCON
      000000A0H.2 SFRSYM    DATA     BIT       P22
      000000B8H   SFRSYM    DATA     BYTE      IP
      000000A8H   SFRSYM    DATA     BYTE      IE
      000000F8H   SFRSYM    DATA     BYTE      P7
      000000E8H   SFRSYM    DATA     BYTE      P6
      000000C8H   SFRSYM    DATA     BYTE      P5
      000000C0H   SFRSYM    DATA     BYTE      P4
      000000B0H   SFRSYM    DATA     BYTE      P3
      000000A0H   SFRSYM    DATA     BYTE      P2
      00000090H   SFRSYM    DATA     BYTE      P1
      00000080H   SFRSYM    DATA     BYTE      P0

      00FF0006H   BLOCK     CODE     ---       LVL=0
      WR6         REGSYM    ---      WORD      x
      00FF0006H   LINE      CODE     ---       #43
      00FF0006H   LINE      CODE     ---       #45
      ---         BLOCKEND  ---      ---       LVL=0
      R6          REGSYM    ---      BYTE      byte
      R7          REGSYM    ---      BYTE      i
      R7          REGSYM    ---      BYTE      cmd
      R15         REGSYM    ---      BYTE      val
      R7          REGSYM    ---      BYTE      cmd
      REG=3       REGSYM    ---      ---       val
      R7          REGSYM    ---      BYTE      cmd
      R15         REGSYM    ---      BYTE      val
      R14         REGSYM    ---      BYTE      dat
      R7          REGSYM    ---      BYTE      cmd
      REG=3       REGSYM    ---      ---       val
      WR14        REGSYM    ---      WORD      zero_position
      WR14        REGSYM    ---      WORD      angle
      R10         REGSYM    ---      BYTE      byte
      R7          REGSYM    ---      BYTE      cmd
      R15         REGSYM    ---      BYTE      val
      R7          REGSYM    ---      BYTE      cmd
      REG=3       REGSYM    ---      ---       val
      R7          REGSYM    ---      BYTE      cmd
      R15         REGSYM    ---      BYTE      val
      R14         REGSYM    ---      BYTE      dat
      R7          REGSYM    ---      BYTE      cmd
      REG=3       REGSYM    ---      ---       val
      WR14        REGSYM    ---      WORD      zero_position
      WR14        REGSYM    ---      WORD      angle

      ---         MODULE    ---      ---       SEEKFREE_FONT
      00FF00A6H   PUBLIC    CODE     ---       oled_8x16
      00FF0696H   PUBLIC    CODE     ---       tft_ascii
L251 LINKER/LOCATER V4.66.93.0                                                        07/16/2023  18:44:38  PAGE 47


      00FF0C86H   PUBLIC    CODE     ---       oled_6x8
      000000D0H   SFRSYM    DATA     BYTE      PSW
      00000088H   SFRSYM    DATA     BYTE      TCON
      00000098H   SFRSYM    DATA     BYTE      SCON
      000000B8H   SFRSYM    DATA     BYTE      IP
      000000A8H   SFRSYM    DATA     BYTE      IE
      000000F8H   SFRSYM    DATA     BYTE      P7
      000000E8H   SFRSYM    DATA     BYTE      P6
      000000C8H   SFRSYM    DATA     BYTE      P5
      000000C0H   SFRSYM    DATA     BYTE      P4
      000000B0H   SFRSYM    DATA     BYTE      P3
      000000A0H   SFRSYM    DATA     BYTE      P2
      00000090H   SFRSYM    DATA     BYTE      P1
      00000080H   SFRSYM    DATA     BYTE      P0

      ---         MODULE    ---      ---       SEEKFREE_ICM20602
      00FF3DE8H   PUBLIC    CODE     ---       icm_simspi_wr_byte
      00000008H   PUBLIC    EDATA    INT       icm_acc_x
      0000000AH   PUBLIC    EDATA    INT       icm_acc_y
      0000000CH   PUBLIC    EDATA    INT       icm_acc_z
      0000000EH   PUBLIC    EDATA    INT       icm_gyro_x
      00000010H   PUBLIC    EDATA    INT       icm_gyro_y
      00000012H   PUBLIC    EDATA    INT       icm_gyro_z
      000000D0H   SFRSYM    DATA     BYTE      PSW
      000000C0H.3 SFRSYM    DATA     BIT       P43
      000000C0H.2 SFRSYM    DATA     BIT       P42
      00000088H   SFRSYM    DATA     BYTE      TCON
      000000C0H.1 SFRSYM    DATA     BIT       P41
      00000098H   SFRSYM    DATA     BYTE      SCON
      000000C0H.0 SFRSYM    DATA     BIT       P40
      000000B8H   SFRSYM    DATA     BYTE      IP
      000000A8H   SFRSYM    DATA     BYTE      IE
      000000F8H   SFRSYM    DATA     BYTE      P7
      000000E8H   SFRSYM    DATA     BYTE      P6
      000000C8H   SFRSYM    DATA     BYTE      P5
      000000C0H   SFRSYM    DATA     BYTE      P4
      000000B0H   SFRSYM    DATA     BYTE      P3
      000000A0H   SFRSYM    DATA     BYTE      P2
      00000090H   SFRSYM    DATA     BYTE      P1
      00000080H   SFRSYM    DATA     BYTE      P0
      R15         REGSYM    ---      BYTE      dat

      00FF3DE8H   BLOCK     CODE     ---       LVL=0
      R6          REGSYM    ---      BYTE      byte
      00FF3DEAH   BLOCK     CODE     NEAR LAB  LVL=1
      R7          REGSYM    ---      BYTE      i
      ---         BLOCKEND  ---      ---       LVL=1
      00FF3DE8H   LINE      CODE     ---       #143
      00FF3DEAH   LINE      CODE     ---       #144
      00FF3DEAH   LINE      CODE     ---       #147
      00FF3DECH   LINE      CODE     ---       #149
      00FF3DF1H   LINE      CODE     ---       #150
      00FF3DF3H   LINE      CODE     ---       #151
      00FF3DF5H   LINE      CODE     ---       #153
      00FF3DF7H   LINE      CODE     ---       #154
      00FF3DFDH   LINE      CODE     ---       #155
      00FF3E04H   LINE      CODE     ---       #156
      00FF3E06H   LINE      CODE     ---       #157
      ---         BLOCKEND  ---      ---       LVL=0
      R7          REGSYM    ---      BYTE      cmd
      R15         REGSYM    ---      BYTE      val
      R7          REGSYM    ---      BYTE      cmd
      REG=3       REGSYM    ---      ---       val
      R7          REGSYM    ---      BYTE      cmd
      REG=3       REGSYM    ---      ---       val
L251 LINKER/LOCATER V4.66.93.0                                                        07/16/2023  18:44:38  PAGE 48



      ---         MODULE    ---      ---       SEEKFREE_IIC
      00FF3F39H   PUBLIC    CODE     ---       simiic_start
      00FF3265H   PUBLIC    CODE     ---       simiic_read_regs
      00FF3A90H   PUBLIC    CODE     ---       simiic_read_reg
      00FF3F07H   PUBLIC    CODE     ---       simiic_stop
      00FF3D46H   PUBLIC    CODE     ---       simiic_write_reg
      00FF3D89H   PUBLIC    CODE     ---       simiic_sendack
      00FF393FH   PUBLIC    CODE     ---       read_ch
      00FF3B26H   PUBLIC    CODE     ---       send_ch
      00FF3F73H   PUBLIC    CODE     ---       simiic_delay
      00000427H   PUBLIC    EDATA    BYTE      IIC_ad_main
      00000428H   PUBLIC    EDATA    BYTE      IIC_num
      00000429H   PUBLIC    EDATA    BYTE      IIC_ad_sub
      0000042AH   PUBLIC    EDATA    ---       IIC_buf
      000000D0H   SFRSYM    DATA     BYTE      PSW
      000000C8H.1 SFRSYM    DATA     BIT       P51
      00000088H   SFRSYM    DATA     BYTE      TCON
      000000C8H.0 SFRSYM    DATA     BIT       P50
      00000098H   SFRSYM    DATA     BYTE      SCON
      000000B8H   SFRSYM    DATA     BYTE      IP
      000000A8H   SFRSYM    DATA     BYTE      IE
      000000F8H   SFRSYM    DATA     BYTE      P7
      000000E8H   SFRSYM    DATA     BYTE      P6
      000000C8H   SFRSYM    DATA     BYTE      P5
      000000C0H   SFRSYM    DATA     BYTE      P4
      000000B0H   SFRSYM    DATA     BYTE      P3
      000000A0H   SFRSYM    DATA     BYTE      P2
      00000090H   SFRSYM    DATA     BYTE      P1
      00000080H   SFRSYM    DATA     BYTE      P0
      00FF0026H   SYMBOL    CODE     ---       sccb_waitack

      00FF3F73H   BLOCK     CODE     ---       LVL=0
      WR6         REGSYM    ---      WORD      j
      00FF3F73H   LINE      CODE     ---       #66
      00FF3F73H   LINE      CODE     ---       #67
      00FF3F73H   LINE      CODE     ---       #68
      00FF3F75H   LINE      CODE     ---       #69
      00FF3F7DH   LINE      CODE     ---       #70
      ---         BLOCKEND  ---      ---       LVL=0

      00FF3F39H   BLOCK     CODE     ---       LVL=0
      00FF3F39H   LINE      CODE     ---       #74
      00FF3F39H   LINE      CODE     ---       #76
      00FF3F3BH   LINE      CODE     ---       #77
      00FF3F3DH   LINE      CODE     ---       #78
      00FF3F40H   LINE      CODE     ---       #79
      00FF3F42H   LINE      CODE     ---       #80
      00FF3F45H   LINE      CODE     ---       #81
      00FF3F47H   LINE      CODE     ---       #82
      ---         BLOCKEND  ---      ---       LVL=0

      00FF3F07H   BLOCK     CODE     ---       LVL=0
      00FF3F07H   LINE      CODE     ---       #85
      00FF3F07H   LINE      CODE     ---       #87
      00FF3F09H   LINE      CODE     ---       #88
      00FF3F0BH   LINE      CODE     ---       #89
      00FF3F0EH   LINE      CODE     ---       #90
      00FF3F10H   LINE      CODE     ---       #91
      00FF3F13H   LINE      CODE     ---       #92
      00FF3F15H   LINE      CODE     ---       #93
      ---         BLOCKEND  ---      ---       LVL=0

      00FF3D89H   BLOCK     CODE     ---       LVL=0
      R15         REGSYM    ---      BYTE      ack_dat
L251 LINKER/LOCATER V4.66.93.0                                                        07/16/2023  18:44:38  PAGE 49


      00FF3D89H   LINE      CODE     ---       #98
      00FF3D8DH   LINE      CODE     ---       #100
      00FF3D8FH   LINE      CODE     ---       #101
      00FF3D92H   LINE      CODE     ---       #102
      00FF3D9AH   LINE      CODE     ---       #103
      00FF3D9CH   LINE      CODE     ---       #105
      00FF3D9EH   LINE      CODE     ---       #106
      00FF3DA1H   LINE      CODE     ---       #107
      00FF3DA3H   LINE      CODE     ---       #108
      00FF3DA6H   LINE      CODE     ---       #109
      ---         BLOCKEND  ---      ---       LVL=0

      00FF0026H   BLOCK     CODE     ---       LVL=0
      00FF0026H   LINE      CODE     ---       #112
      00FF0026H   LINE      CODE     ---       #114
      00FF0028H   LINE      CODE     ---       #116
      00FF002BH   LINE      CODE     ---       #118
      00FF002DH   LINE      CODE     ---       #119
      00FF0030H   LINE      CODE     ---       #121
      00FF0033H   LINE      CODE     ---       #124
      00FF0035H   LINE      CODE     ---       #125
      00FF0038H   LINE      CODE     ---       #126
      00FF0038H   LINE      CODE     ---       #128
      00FF003AH   LINE      CODE     ---       #129
      00FF003DH   LINE      CODE     ---       #130
      00FF0041H   LINE      CODE     ---       #131
      ---         BLOCKEND  ---      ---       LVL=0

      00FF3B26H   BLOCK     CODE     ---       LVL=0
      R15         REGSYM    ---      BYTE      c
      00FF3B2AH   BLOCK     CODE     NEAR LAB  LVL=1
      R14         REGSYM    ---      BYTE      i
      ---         BLOCKEND  ---      ---       LVL=1
      00FF3B26H   LINE      CODE     ---       #137
      00FF3B2AH   LINE      CODE     ---       #138
      00FF3B2AH   LINE      CODE     ---       #139
      00FF3B2DH   LINE      CODE     ---       #140
      00FF3B2FH   LINE      CODE     ---       #142
      00FF3B38H   LINE      CODE     ---       #143
      00FF3B3AH   LINE      CODE     ---       #144
      00FF3B3CH   LINE      CODE     ---       #145
      00FF3B3FH   LINE      CODE     ---       #146
      00FF3B41H   LINE      CODE     ---       #147
      00FF3B44H   LINE      CODE     ---       #148
      00FF3B46H   LINE      CODE     ---       #149
      00FF3B4EH   LINE      CODE     ---       #150
      00FF3B51H   LINE      CODE     ---       #151
      ---         BLOCKEND  ---      ---       LVL=0

      00FF393FH   BLOCK     CODE     ---       LVL=0
      R15         REGSYM    ---      BYTE      ack_x
      00FF3945H   BLOCK     CODE     NEAR LAB  LVL=1
      R13         REGSYM    ---      BYTE      i
      R14         REGSYM    ---      BYTE      c
      ---         BLOCKEND  ---      ---       LVL=1
      00FF393FH   LINE      CODE     ---       #156
      00FF3945H   LINE      CODE     ---       #157
      00FF3945H   LINE      CODE     ---       #160
      00FF3947H   LINE      CODE     ---       #161
      00FF3949H   LINE      CODE     ---       #162
      00FF394CH   LINE      CODE     ---       #163
      00FF394EH   LINE      CODE     ---       #165
      00FF3951H   LINE      CODE     ---       #167
      00FF3954H   LINE      CODE     ---       #168
      00FF3956H   LINE      CODE     ---       #169
L251 LINKER/LOCATER V4.66.93.0                                                        07/16/2023  18:44:38  PAGE 50


      00FF3959H   LINE      CODE     ---       #170
      00FF395BH   LINE      CODE     ---       #171
      00FF395EH   LINE      CODE     ---       #172
      00FF3960H   LINE      CODE     ---       #173
      00FF3963H   LINE      CODE     ---       #175
      00FF3965H   LINE      CODE     ---       #176
      00FF3969H   LINE      CODE     ---       #179
      00FF396BH   LINE      CODE     ---       #180
      00FF396EH   LINE      CODE     ---       #181
      00FF3973H   LINE      CODE     ---       #183
      00FF3975H   LINE      CODE     ---       #184
      ---         BLOCKEND  ---      ---       LVL=0

      00FF3D46H   BLOCK     CODE     ---       LVL=0
      R13         REGSYM    ---      BYTE      dev_add
      R14         REGSYM    ---      BYTE      reg
      R15         REGSYM    ---      BYTE      dat
      00FF3D46H   LINE      CODE     ---       #195
      00FF3D4EH   LINE      CODE     ---       #197
      00FF3D51H   LINE      CODE     ---       #198
      00FF3D56H   LINE      CODE     ---       #199
      00FF3D5BH   LINE      CODE     ---       #200
      00FF3D60H   LINE      CODE     ---       #201
      00FF3D63H   LINE      CODE     ---       #202
      ---         BLOCKEND  ---      ---       LVL=0

      00FF3A90H   BLOCK     CODE     ---       LVL=0
      R15         REGSYM    ---      BYTE      dev_add
      R14         REGSYM    ---      BYTE      reg
      WR12        REGSYM    ---      INT       type
      00FF3A98H   BLOCK     CODE     NEAR LAB  LVL=1
      R15         REGSYM    ---      BYTE      dat
      ---         BLOCKEND  ---      ---       LVL=1
      00FF3A90H   LINE      CODE     ---       #214
      00FF3A98H   LINE      CODE     ---       #215
      00FF3A98H   LINE      CODE     ---       #217
      00FF3A9BH   LINE      CODE     ---       #218
      00FF3AA0H   LINE      CODE     ---       #219
      00FF3AA5H   LINE      CODE     ---       #220
      00FF3AAEH   LINE      CODE     ---       #222
      00FF3AB1H   LINE      CODE     ---       #223
      00FF3ABAH   LINE      CODE     ---       #224
      00FF3ABEH   LINE      CODE     ---       #225
      00FF3AC1H   LINE      CODE     ---       #227
      00FF3AC1H   LINE      CODE     ---       #228
      ---         BLOCKEND  ---      ---       LVL=0

      00FF3265H   BLOCK     CODE     ---       LVL=0
      0000043AH   SYMBOL    EDATA    BYTE      dev_add
      0000043BH   SYMBOL    EDATA    BYTE      reg
      REG=3       REGSYM    ---      ---       dat_add
      0000043CH   SYMBOL    EDATA    BYTE      num
      0000043DH   SYMBOL    EDATA    INT       type
      00FF3265H   LINE      CODE     ---       #241
      00FF3279H   LINE      CODE     ---       #243
      00FF327CH   LINE      CODE     ---       #244
      00FF3285H   LINE      CODE     ---       #245
      00FF328CH   LINE      CODE     ---       #246
      00FF3299H   LINE      CODE     ---       #248
      00FF329CH   LINE      CODE     ---       #249
      00FF32A7H   LINE      CODE     ---       #250
      00FF32A9H   LINE      CODE     ---       #252
      00FF32B1H   LINE      CODE     ---       #253
      00FF32B3H   LINE      CODE     ---       #254
      00FF32BEH   LINE      CODE     ---       #255
L251 LINKER/LOCATER V4.66.93.0                                                        07/16/2023  18:44:38  PAGE 51


      00FF32C5H   LINE      CODE     ---       #256
      00FF32C8H   LINE      CODE     ---       #257
      ---         BLOCKEND  ---      ---       LVL=0

      ---         MODULE    ---      ---       SEEKFREE_IPS114_SPI
      00FF3E07H   PUBLIC    CODE     ---       ips114_writedata_16bit
      00FF3BAEH   PUBLIC    CODE     ---       ips114_writeDatai_16bit_simspi
      00FF3C83H   PUBLIC    CODE     ---       ips114_writeIndex_simspi
      00FF3F92H   PUBLIC    CODE     ---       ips114_writeIndex
      000000D0H   SFRSYM    DATA     BYTE      PSW
      000000A0H.7 SFRSYM    DATA     BIT       P27
      000000A0H.5 SFRSYM    DATA     BIT       P25
      00000088H   SFRSYM    DATA     BYTE      TCON
      000000A0H.3 SFRSYM    DATA     BIT       P23
      00000098H   SFRSYM    DATA     BYTE      SCON
      000000A0H.2 SFRSYM    DATA     BIT       P22
      000000A0H.1 SFRSYM    DATA     BIT       P21
      000000A0H.0 SFRSYM    DATA     BIT       P20
      000000B8H   SFRSYM    DATA     BYTE      IP
      000000A8H   SFRSYM    DATA     BYTE      IE
      000000F8H   SFRSYM    DATA     BYTE      P7
      000000E8H   SFRSYM    DATA     BYTE      P6
      000000C8H   SFRSYM    DATA     BYTE      P5
      000000C0H   SFRSYM    DATA     BYTE      P4
      000000B0H   SFRSYM    DATA     BYTE      P3
      000000A0H   SFRSYM    DATA     BYTE      P2
      00000090H   SFRSYM    DATA     BYTE      P1
      00000080H   SFRSYM    DATA     BYTE      P0

      00FF3C83H   BLOCK     CODE     ---       LVL=0
      R7          REGSYM    ---      BYTE      dat
      00FF3C85H   BLOCK     CODE     NEAR LAB  LVL=1
      R6          REGSYM    ---      BYTE      i
      ---         BLOCKEND  ---      ---       LVL=1
      00FF3C83H   LINE      CODE     ---       #61
      00FF3C85H   LINE      CODE     ---       #62
      00FF3C85H   LINE      CODE     ---       #63
      00FF3C88H   LINE      CODE     ---       #64
      00FF3C8AH   LINE      CODE     ---       #65
      00FF3C8CH   LINE      CODE     ---       #67
      00FF3C8EH   LINE      CODE     ---       #69
      00FF3C90H   LINE      CODE     ---       #71
      00FF3C99H   LINE      CODE     ---       #72
      00FF3C9BH   LINE      CODE     ---       #73
      00FF3C9DH   LINE      CODE     ---       #75
      00FF3C9FH   LINE      CODE     ---       #76
      00FF3CA1H   LINE      CODE     ---       #77
      00FF3CA9H   LINE      CODE     ---       #78
      00FF3CABH   LINE      CODE     ---       #79
      ---         BLOCKEND  ---      ---       LVL=0
      R7          REGSYM    ---      BYTE      dat
      R6          REGSYM    ---      BYTE      i

      00FF3BAEH   BLOCK     CODE     ---       LVL=0
      WR4         REGSYM    ---      WORD      dat
      00FF3BB0H   BLOCK     CODE     NEAR LAB  LVL=1
      R10         REGSYM    ---      BYTE      i
      ---         BLOCKEND  ---      ---       LVL=1
      00FF3BAEH   LINE      CODE     ---       #115
      00FF3BB0H   LINE      CODE     ---       #116
      00FF3BB0H   LINE      CODE     ---       #117
      00FF3BB3H   LINE      CODE     ---       #118
      00FF3BB5H   LINE      CODE     ---       #119
      00FF3BB7H   LINE      CODE     ---       #120
      00FF3BB9H   LINE      CODE     ---       #121
L251 LINKER/LOCATER V4.66.93.0                                                        07/16/2023  18:44:38  PAGE 52


      00FF3BBBH   LINE      CODE     ---       #123
      00FF3BC7H   LINE      CODE     ---       #124
      00FF3BC9H   LINE      CODE     ---       #125
      00FF3BCBH   LINE      CODE     ---       #127
      00FF3BCDH   LINE      CODE     ---       #128
      00FF3BCFH   LINE      CODE     ---       #129
      00FF3BD7H   LINE      CODE     ---       #130
      00FF3BD9H   LINE      CODE     ---       #131
      ---         BLOCKEND  ---      ---       LVL=0
      WR12        REGSYM    ---      WORD      x2
      WR14        REGSYM    ---      WORD      y2
      WR14        REGSYM    ---      WORD      color
      R13         REGSYM    ---      BYTE      i
      WR2         REGSYM    ---      WORD      x
      WR0         REGSYM    ---      WORD      y
      WR14        REGSYM    ---      WORD      color
      WR12        REGSYM    ---      WORD      x
      WR14        REGSYM    ---      WORD      y
      REG=3       REGSYM    ---      ---       dat
      WR12        REGSYM    ---      WORD      x
      WR14        REGSYM    ---      WORD      y
      WR12        REGSYM    ---      WORD      x
      WR14        REGSYM    ---      WORD      y
      R10         REGSYM    ---      BYTE      dat
      WR12        REGSYM    ---      WORD      x
      WR14        REGSYM    ---      WORD      y
      WR12        REGSYM    ---      WORD      x
      WR14        REGSYM    ---      WORD      y
      WR2         REGSYM    ---      WORD      dat
      WR12        REGSYM    ---      WORD      y
      R15         REGSYM    ---      BYTE      num
      R14         REGSYM    ---      BYTE      length
      DR12        REGSYM    ---      FLOAT     dat
      R7          REGSYM    ---      CHAR      point

      00FF3F92H   BLOCK     CODE     ---       LVL=0
      R7          REGSYM    ---      BYTE      dat
      00FF3F92H   LINE      CODE     ---       #594
      00FF3F92H   LINE      CODE     ---       #596
      00FF3F94H   LINE      CODE     ---       #597
      00FF3F96H   LINE      CODE     ---       #599
      00FF3F99H   LINE      CODE     ---       #600
      00FF3F9BH   LINE      CODE     ---       #601
      ---         BLOCKEND  ---      ---       LVL=0
      R7          REGSYM    ---      BYTE      dat

      00FF3E07H   BLOCK     CODE     ---       LVL=0
      WR4         REGSYM    ---      WORD      dat
      00FF3E09H   BLOCK     CODE     NEAR LAB  LVL=1
      00000463H   SYMBOL    EDATA    ---       dat1
      ---         BLOCKEND  ---      ---       LVL=1
      00FF3E07H   LINE      CODE     ---       #626
      00FF3E09H   LINE      CODE     ---       #627
      00FF3E09H   LINE      CODE     ---       #629
      00FF3E0DH   LINE      CODE     ---       #630
      00FF3E11H   LINE      CODE     ---       #631
      00FF3E13H   LINE      CODE     ---       #632
      00FF3E15H   LINE      CODE     ---       #633
      00FF3E1CH   LINE      CODE     ---       #634
      00FF3E23H   LINE      CODE     ---       #635
      00FF3E25H   LINE      CODE     ---       #636
      ---         BLOCKEND  ---      ---       LVL=0
      WR12        REGSYM    ---      WORD      x2
      WR14        REGSYM    ---      WORD      y2
      WR14        REGSYM    ---      WORD      color
L251 LINKER/LOCATER V4.66.93.0                                                        07/16/2023  18:44:38  PAGE 53


      R13         REGSYM    ---      BYTE      i
      WR2         REGSYM    ---      WORD      x
      WR0         REGSYM    ---      WORD      y
      WR14        REGSYM    ---      WORD      color
      WR12        REGSYM    ---      WORD      x
      WR14        REGSYM    ---      WORD      y
      REG=3       REGSYM    ---      ---       dat
      WR12        REGSYM    ---      WORD      x
      WR14        REGSYM    ---      WORD      y
      WR12        REGSYM    ---      WORD      x
      WR14        REGSYM    ---      WORD      y
      R10         REGSYM    ---      BYTE      dat
      WR12        REGSYM    ---      WORD      x
      WR14        REGSYM    ---      WORD      y
      WR12        REGSYM    ---      WORD      x
      WR14        REGSYM    ---      WORD      y
      WR2         REGSYM    ---      WORD      dat
      WR12        REGSYM    ---      WORD      y
      R15         REGSYM    ---      BYTE      num
      R14         REGSYM    ---      BYTE      length
      DR12        REGSYM    ---      FLOAT     dat
      R7          REGSYM    ---      CHAR      point

      ---         MODULE    ---      ---       SEEKFREE_MPU6050
      00FF3491H   PUBLIC    CODE     ---       mpu6050_init
      00FF3BDAH   PUBLIC    CODE     ---       mpu6050_self1_check
      00000014H   PUBLIC    EDATA    INT       mpu_acc_x
      00000016H   PUBLIC    EDATA    INT       mpu_acc_y
      00000018H   PUBLIC    EDATA    INT       mpu_acc_z
      0000001AH   PUBLIC    EDATA    INT       mpu_gyro_x
      0000001CH   PUBLIC    EDATA    INT       mpu_gyro_y
      0000001EH   PUBLIC    EDATA    INT       mpu_gyro_z
      000000D0H   SFRSYM    DATA     BYTE      PSW
      00000088H   SFRSYM    DATA     BYTE      TCON
      00000098H   SFRSYM    DATA     BYTE      SCON
      000000B8H   SFRSYM    DATA     BYTE      IP
      000000A8H   SFRSYM    DATA     BYTE      IE
      000000F8H   SFRSYM    DATA     BYTE      P7
      000000E8H   SFRSYM    DATA     BYTE      P6
      000000C8H   SFRSYM    DATA     BYTE      P5
      000000C0H   SFRSYM    DATA     BYTE      P4
      000000B0H   SFRSYM    DATA     BYTE      P3
      000000A0H   SFRSYM    DATA     BYTE      P2
      00000090H   SFRSYM    DATA     BYTE      P1
      00000080H   SFRSYM    DATA     BYTE      P0

      00FF3BDAH   BLOCK     CODE     ---       LVL=0
      00FF3BDAH   LINE      CODE     ---       #47
      00FF3BDAH   LINE      CODE     ---       #49
      00FF3BE4H   LINE      CODE     ---       #50
      00FF3BEFH   LINE      CODE     ---       #51
      00FF3BF1H   LINE      CODE     ---       #53
      00FF3BF8H   LINE      CODE     ---       #59
      00FF3C05H   LINE      CODE     ---       #60
      ---         BLOCKEND  ---      ---       LVL=0

      00FF3491H   BLOCK     CODE     ---       LVL=0
      00FF3491H   LINE      CODE     ---       #70
      00FF3491H   LINE      CODE     ---       #72
      00FF3498H   LINE      CODE     ---       #74
      00FF349BH   LINE      CODE     ---       #75
      00FF34A5H   LINE      CODE     ---       #76
      00FF34B0H   LINE      CODE     ---       #77
      00FF34BBH   LINE      CODE     ---       #78
      00FF34C6H   LINE      CODE     ---       #79
L251 LINKER/LOCATER V4.66.93.0                                                        07/16/2023  18:44:38  PAGE 54


      00FF34D1H   LINE      CODE     ---       #80
      00FF34DBH   LINE      CODE     ---       #81
      ---         BLOCKEND  ---      ---       LVL=0

      ---         MODULE    ---      ---       SEEKFREE_OLED
      00FF3D23H   PUBLIC    CODE     ---       oled_set_pos
      00FF3CACH   PUBLIC    CODE     ---       oled_wrcmd
      00FF3CD5H   PUBLIC    CODE     ---       oled_wrdat
      00FF3D68H   PUBLIC    CODE     ---       oled_set_pos_spi
      00FF3F9CH   PUBLIC    CODE     ---       oled_wrcmd_spi
      00FF3FA6H   PUBLIC    CODE     ---       oled_wrdat_spi
      000000D0H   SFRSYM    DATA     BYTE      PSW
      000000A0H.5 SFRSYM    DATA     BIT       P25
      00000088H   SFRSYM    DATA     BYTE      TCON
      000000A0H.3 SFRSYM    DATA     BIT       P23
      00000098H   SFRSYM    DATA     BYTE      SCON
      000000A0H.2 SFRSYM    DATA     BIT       P22
      000000A0H.1 SFRSYM    DATA     BIT       P21
      000000A0H.0 SFRSYM    DATA     BIT       P20
      000000B8H   SFRSYM    DATA     BYTE      IP
      000000A8H   SFRSYM    DATA     BYTE      IE
      000000F8H   SFRSYM    DATA     BYTE      P7
      000000E8H   SFRSYM    DATA     BYTE      P6
      000000C8H   SFRSYM    DATA     BYTE      P5
      000000C0H   SFRSYM    DATA     BYTE      P4
      000000B0H   SFRSYM    DATA     BYTE      P3
      000000A0H   SFRSYM    DATA     BYTE      P2
      00000090H   SFRSYM    DATA     BYTE      P1
      00000080H   SFRSYM    DATA     BYTE      P0

      00FF3CD5H   BLOCK     CODE     ---       LVL=0
      R7          REGSYM    ---      BYTE      dat
      00FF3CD7H   BLOCK     CODE     NEAR LAB  LVL=1
      R6          REGSYM    ---      BYTE      i
      ---         BLOCKEND  ---      ---       LVL=1
      00FF3CD5H   LINE      CODE     ---       #47
      00FF3CD7H   LINE      CODE     ---       #48
      00FF3CD7H   LINE      CODE     ---       #49
      00FF3CDAH   LINE      CODE     ---       #51
      00FF3CDCH   LINE      CODE     ---       #52
      00FF3CDEH   LINE      CODE     ---       #53
      00FF3CE0H   LINE      CODE     ---       #54
      00FF3CE2H   LINE      CODE     ---       #56
      00FF3CEBH   LINE      CODE     ---       #57
      00FF3CEDH   LINE      CODE     ---       #58
      00FF3CEFH   LINE      CODE     ---       #60
      00FF3CF1H   LINE      CODE     ---       #61
      00FF3CF3H   LINE      CODE     ---       #62
      00FF3CFBH   LINE      CODE     ---       #63
      00FF3CFDH   LINE      CODE     ---       #64
      ---         BLOCKEND  ---      ---       LVL=0

      00FF3CACH   BLOCK     CODE     ---       LVL=0
      R7          REGSYM    ---      BYTE      cmd
      00FF3CAEH   BLOCK     CODE     NEAR LAB  LVL=1
      R6          REGSYM    ---      BYTE      i
      ---         BLOCKEND  ---      ---       LVL=1
      00FF3CACH   LINE      CODE     ---       #98
      00FF3CAEH   LINE      CODE     ---       #99
      00FF3CAEH   LINE      CODE     ---       #100
      00FF3CB1H   LINE      CODE     ---       #102
      00FF3CB3H   LINE      CODE     ---       #103
      00FF3CB5H   LINE      CODE     ---       #104
      00FF3CB7H   LINE      CODE     ---       #106
      00FF3CB9H   LINE      CODE     ---       #108
L251 LINKER/LOCATER V4.66.93.0                                                        07/16/2023  18:44:38  PAGE 55


      00FF3CC2H   LINE      CODE     ---       #109
      00FF3CC4H   LINE      CODE     ---       #110
      00FF3CC6H   LINE      CODE     ---       #112
      00FF3CC8H   LINE      CODE     ---       #113
      00FF3CCAH   LINE      CODE     ---       #114
      00FF3CD2H   LINE      CODE     ---       #115
      00FF3CD4H   LINE      CODE     ---       #116
      ---         BLOCKEND  ---      ---       LVL=0
      WR8         REGSYM    ---      WORD      hex
      REG=7       REGSYM    ---      ---       Print
      R5          REGSYM    ---      BYTE      hexcheck
      R10         REGSYM    ---      BYTE      TEMP

      00FF3D23H   BLOCK     CODE     ---       LVL=0
      R15         REGSYM    ---      BYTE      x
      R10         REGSYM    ---      BYTE      y
      00FF3D23H   LINE      CODE     ---       #205
      00FF3D27H   LINE      CODE     ---       #207
      00FF3D2EH   LINE      CODE     ---       #208
      00FF3D3CH   LINE      CODE     ---       #209
      00FF3D43H   LINE      CODE     ---       #210
      ---         BLOCKEND  ---      ---       LVL=0
      R15         REGSYM    ---      BYTE      bmp_data
      R14         REGSYM    ---      BYTE      y
      R13         REGSYM    ---      BYTE      x
      R15         REGSYM    ---      BYTE      x
      R14         REGSYM    ---      BYTE      y
      R13         REGSYM    ---      BYTE      data1
      R15         REGSYM    ---      BYTE      x
      R14         REGSYM    ---      BYTE      y
      REG=3       REGSYM    ---      ---       ch
      REG=3       REGSYM    ---      ---       ch
      R14         REGSYM    ---      BYTE      x
      R15         REGSYM    ---      BYTE      y
      WR4         REGSYM    ---      WORD      num
      R15         REGSYM    ---      BYTE      x
      R14         REGSYM    ---      BYTE      y
      WR12        REGSYM    ---      INT       num
      WR12        REGSYM    ---      WORD      y
      R15         REGSYM    ---      BYTE      num
      R14         REGSYM    ---      BYTE      length
      DR12        REGSYM    ---      FLOAT     dat
      R7          REGSYM    ---      CHAR      point
      WR4         REGSYM    ---      WORD      high
      REG=3       REGSYM    ---      ---       p
      REG=3       REGSYM    ---      ---       p

      00FF3FA6H   BLOCK     CODE     ---       LVL=0
      R7          REGSYM    ---      BYTE      dat
      00FF3FA6H   LINE      CODE     ---       #534
      00FF3FA6H   LINE      CODE     ---       #536
      00FF3FA8H   LINE      CODE     ---       #537
      00FF3FAAH   LINE      CODE     ---       #538
      00FF3FADH   LINE      CODE     ---       #539
      00FF3FAFH   LINE      CODE     ---       #542
      ---         BLOCKEND  ---      ---       LVL=0

      00FF3F9CH   BLOCK     CODE     ---       LVL=0
      R7          REGSYM    ---      BYTE      cmd
      00FF3F9CH   LINE      CODE     ---       #576
      00FF3F9CH   LINE      CODE     ---       #578
      00FF3F9EH   LINE      CODE     ---       #579
      00FF3FA0H   LINE      CODE     ---       #580
      00FF3FA3H   LINE      CODE     ---       #581
      00FF3FA5H   LINE      CODE     ---       #582
L251 LINKER/LOCATER V4.66.93.0                                                        07/16/2023  18:44:38  PAGE 56


      ---         BLOCKEND  ---      ---       LVL=0
      WR8         REGSYM    ---      WORD      hex
      REG=7       REGSYM    ---      ---       Print
      R5          REGSYM    ---      BYTE      hexcheck
      R10         REGSYM    ---      BYTE      TEMP

      00FF3D68H   BLOCK     CODE     ---       LVL=0
      R15         REGSYM    ---      BYTE      x
      R10         REGSYM    ---      BYTE      y
      00FF3D68H   LINE      CODE     ---       #672
      00FF3D6CH   LINE      CODE     ---       #676
      00FF3D73H   LINE      CODE     ---       #677
      00FF3D7FH   LINE      CODE     ---       #678
      00FF3D86H   LINE      CODE     ---       #679
      ---         BLOCKEND  ---      ---       LVL=0
      R15         REGSYM    ---      BYTE      bmp_data
      R14         REGSYM    ---      BYTE      y
      R13         REGSYM    ---      BYTE      x
      R15         REGSYM    ---      BYTE      x
      R14         REGSYM    ---      BYTE      y
      R13         REGSYM    ---      BYTE      data1
      R15         REGSYM    ---      BYTE      x
      R14         REGSYM    ---      BYTE      y
      REG=3       REGSYM    ---      ---       ch
      REG=3       REGSYM    ---      ---       ch
      R14         REGSYM    ---      BYTE      x
      R15         REGSYM    ---      BYTE      y
      WR4         REGSYM    ---      WORD      num
      R15         REGSYM    ---      BYTE      x
      R14         REGSYM    ---      BYTE      y
      WR12        REGSYM    ---      INT       num
      WR12        REGSYM    ---      WORD      y
      R15         REGSYM    ---      BYTE      num
      R14         REGSYM    ---      BYTE      length
      DR12        REGSYM    ---      FLOAT     dat
      R7          REGSYM    ---      CHAR      point
      WR4         REGSYM    ---      WORD      high
      REG=3       REGSYM    ---      ---       p
      REG=3       REGSYM    ---      ---       p

      ---         MODULE    ---      ---       SEEKFREE_TSL1401
      00000022H   PUBLIC    EDATA    BYTE      tsl1401_finish_flag
      00000023H   PUBLIC    EDATA    ---       ccd_data
      000000D0H   SFRSYM    DATA     BYTE      PSW
      000000B0H.3 SFRSYM    DATA     BIT       P33
      00000088H   SFRSYM    DATA     BYTE      TCON
      000000B0H.2 SFRSYM    DATA     BIT       P32
      00000098H   SFRSYM    DATA     BYTE      SCON
      000000B8H   SFRSYM    DATA     BYTE      IP
      000000A8H   SFRSYM    DATA     BYTE      IE
      000000F8H   SFRSYM    DATA     BYTE      P7
      000000E8H   SFRSYM    DATA     BYTE      P6
      000000C8H   SFRSYM    DATA     BYTE      P5
      000000C0H   SFRSYM    DATA     BYTE      P4
      000000B0H   SFRSYM    DATA     BYTE      P3
      000000A0H   SFRSYM    DATA     BYTE      P2
      00000090H   SFRSYM    DATA     BYTE      P1
      00000080H   SFRSYM    DATA     BYTE      P0
      REG=3       REGSYM    ---      ---       dat
      R15         REGSYM    ---      BYTE      i

      ---         MODULE    ---      ---       SEEKFREE_VIRSCO
      00000415H   PUBLIC    EDATA    ---       virtual_scope_data
      000000D0H   SFRSYM    DATA     BYTE      PSW
      00000088H   SFRSYM    DATA     BYTE      TCON
L251 LINKER/LOCATER V4.66.93.0                                                        07/16/2023  18:44:38  PAGE 57


      00000098H   SFRSYM    DATA     BYTE      SCON
      000000B8H   SFRSYM    DATA     BYTE      IP
      000000A8H   SFRSYM    DATA     BYTE      IE
      000000F8H   SFRSYM    DATA     BYTE      P7
      000000E8H   SFRSYM    DATA     BYTE      P6
      000000C8H   SFRSYM    DATA     BYTE      P5
      000000C0H   SFRSYM    DATA     BYTE      P4
      000000B0H   SFRSYM    DATA     BYTE      P3
      000000A0H   SFRSYM    DATA     BYTE      P2
      00000090H   SFRSYM    DATA     BYTE      P1
      00000080H   SFRSYM    DATA     BYTE      P0
      REG=7       REGSYM    ---      ---       Buf
      R10         REGSYM    ---      BYTE      CRC_CNT
      WR6         REGSYM    ---      WORD      CRC_Temp
      R5          REGSYM    ---      BYTE      i
      R4          REGSYM    ---      BYTE      j
      WR0         REGSYM    ---      INT       data1
      WR30        REGSYM    ---      INT       data2
      WR8         REGSYM    ---      INT       data3
      WR10        REGSYM    ---      INT       data4
      WR6         REGSYM    ---      WORD      CRC16

      ---         MODULE    ---      ---       SEEKFREE_WIRELESS
      00FF3E7BH   PUBLIC    CODE     ---       wireless_uart_callback
      000000D0H   SFRSYM    DATA     BYTE      PSW
      000000FEH   SFRSYM    DATA     BYTE      S4BUF
      00000080H.7 SFRSYM    DATA     BIT       P07
      00000088H   SFRSYM    DATA     BYTE      TCON
      00000098H   SFRSYM    DATA     BYTE      SCON
      000000B8H   SFRSYM    DATA     BYTE      IP
      000000A8H   SFRSYM    DATA     BYTE      IE
      000000F8H   SFRSYM    DATA     BYTE      P7
      000000E8H   SFRSYM    DATA     BYTE      P6
      000000C8H   SFRSYM    DATA     BYTE      P5
      000000C0H   SFRSYM    DATA     BYTE      P4
      000000B0H   SFRSYM    DATA     BYTE      P3
      000000A0H   SFRSYM    DATA     BYTE      P2
      00000090H   SFRSYM    DATA     BYTE      P1
      00000080H   SFRSYM    DATA     BYTE      P0
      000002FAH   SYMBOL    EDATA    BYTE      wireless_uart_data
      000002FBH   SYMBOL    EDATA    ---       wireless_uart_fifo
      0000030FH   SYMBOL    EDATA    ---       wireless_uart_buffer

      00FF3E7BH   BLOCK     CODE     ---       LVL=0
      00FF3E7BH   LINE      CODE     ---       #48
      00FF3E7BH   LINE      CODE     ---       #51
      00FF3E81H   LINE      CODE     ---       #52
      ---         BLOCKEND  ---      ---       LVL=0
      REG=3       REGSYM    ---      ---       buff
      REG=7       REGSYM    ---      ---       buff
      DR8         REGSYM    ---      DWORD     len

      ---         MODULE    ---      ---       SEEKFREE_AT24C02
      000000D0H   SFRSYM    DATA     BYTE      PSW
      00000088H   SFRSYM    DATA     BYTE      TCON
      00000098H   SFRSYM    DATA     BYTE      SCON
      000000B8H   SFRSYM    DATA     BYTE      IP
      000000A8H   SFRSYM    DATA     BYTE      IE
      000000F8H   SFRSYM    DATA     BYTE      P7
      000000E8H   SFRSYM    DATA     BYTE      P6
      000000C8H   SFRSYM    DATA     BYTE      P5
      000000C0H   SFRSYM    DATA     BYTE      P4
      000000B0H   SFRSYM    DATA     BYTE      P3
      000000A0H   SFRSYM    DATA     BYTE      P2
      00000090H   SFRSYM    DATA     BYTE      P1
L251 LINKER/LOCATER V4.66.93.0                                                        07/16/2023  18:44:38  PAGE 58


      00000080H   SFRSYM    DATA     BYTE      P0
      R14         REGSYM    ---      BYTE      byte_reg
      R15         REGSYM    ---      BYTE      dat
      R15         REGSYM    ---      BYTE      byte_reg
      REG=3       REGSYM    ---      ---       dat_add
      REG=3       REGSYM    ---      ---       dat_add

      ---         MODULE    ---      ---       SEEKFREE_BLUETOOTH_CH9141
      00FF3E94H   PUBLIC    CODE     ---       bluetooth_ch9141_uart_callback
      000000D0H   SFRSYM    DATA     BYTE      PSW
      000000FEH   SFRSYM    DATA     BYTE      S4BUF
      00000080H.7 SFRSYM    DATA     BIT       P07
      00000088H   SFRSYM    DATA     BYTE      TCON
      00000098H   SFRSYM    DATA     BYTE      SCON
      000000B8H   SFRSYM    DATA     BYTE      IP
      000000A8H   SFRSYM    DATA     BYTE      IE
      000000F8H   SFRSYM    DATA     BYTE      P7
      000000E8H   SFRSYM    DATA     BYTE      P6
      000000C8H   SFRSYM    DATA     BYTE      P5
      000000C0H   SFRSYM    DATA     BYTE      P4
      000000B0H   SFRSYM    DATA     BYTE      P3
      000000A0H   SFRSYM    DATA     BYTE      P2
      00000090H   SFRSYM    DATA     BYTE      P1
      00000080H   SFRSYM    DATA     BYTE      P0
      0000034FH   SYMBOL    EDATA    ---       bluetooth_ch9141_buffer
      0000038FH   SYMBOL    EDATA    BYTE      bluetooth_ch9141_data
      00000390H   SYMBOL    EDATA    ---       bluetooth_ch9141_fifo

      00FF3E94H   BLOCK     CODE     ---       LVL=0
      00FF3E94H   LINE      CODE     ---       #67
      00FF3E94H   LINE      CODE     ---       #70
      00FF3E9AH   LINE      CODE     ---       #71
      ---         BLOCKEND  ---      ---       LVL=0
      DR12        REGSYM    ---      DWORD     len
      REG=7       REGSYM    ---      ---       buff
      DR8         REGSYM    ---      DWORD     len

      ---         MODULE    ---      ---       SEEKFREE_WIRELESS_CH573
      00FF3EADH   PUBLIC    CODE     ---       wireless_ch573_callback
      000000D0H   SFRSYM    DATA     BYTE      PSW
      000000FEH   SFRSYM    DATA     BYTE      S4BUF
      00000080H.7 SFRSYM    DATA     BIT       P07
      00000088H   SFRSYM    DATA     BYTE      TCON
      00000098H   SFRSYM    DATA     BYTE      SCON
      000000B8H   SFRSYM    DATA     BYTE      IP
      000000A8H   SFRSYM    DATA     BYTE      IE
      000000F8H   SFRSYM    DATA     BYTE      P7
      000000E8H   SFRSYM    DATA     BYTE      P6
      000000C8H   SFRSYM    DATA     BYTE      P5
      000000C0H   SFRSYM    DATA     BYTE      P4
      000000B0H   SFRSYM    DATA     BYTE      P3
      000000A0H   SFRSYM    DATA     BYTE      P2
      00000090H   SFRSYM    DATA     BYTE      P1
      00000080H   SFRSYM    DATA     BYTE      P0
      000003A4H   SYMBOL    EDATA    ---       wireless_ch573_buffer
      000003E4H   SYMBOL    EDATA    BYTE      wireless_ch573_data
      000003E5H   SYMBOL    EDATA    ---       wireless_ch573_fifo

      00FF3EADH   BLOCK     CODE     ---       LVL=0
      00FF3EADH   LINE      CODE     ---       #39
      00FF3EADH   LINE      CODE     ---       #42
      00FF3EB3H   LINE      CODE     ---       #43
      ---         BLOCKEND  ---      ---       LVL=0
      REG=3       REGSYM    ---      ---       buff
      REG=7       REGSYM    ---      ---       buff
L251 LINKER/LOCATER V4.66.93.0                                                        07/16/2023  18:44:38  PAGE 59


      DR8         REGSYM    ---      DWORD     len

      ---         MODULE    ---      ---       SEEKFREE_VL53L0X
      0000045CH   PUBLIC    EDATA    WORD      vl53l0x_distance_mm
      0000045EH   PUBLIC    EDATA    BYTE      vl53l0x_finsh_flag
      000000D0H   SFRSYM    DATA     BYTE      PSW
      000000C0H.7 SFRSYM    DATA     BIT       P47
      000000B0H.3 SFRSYM    DATA     BIT       P33
      00000088H   SFRSYM    DATA     BYTE      TCON
      000000B0H.2 SFRSYM    DATA     BIT       P32
      00000098H   SFRSYM    DATA     BYTE      SCON
      000000B8H   SFRSYM    DATA     BYTE      IP
      000000A8H   SFRSYM    DATA     BYTE      IE
      000000F8H   SFRSYM    DATA     BYTE      P7
      000000E8H   SFRSYM    DATA     BYTE      P6
      000000C8H   SFRSYM    DATA     BYTE      P5
      000000C0H   SFRSYM    DATA     BYTE      P4
      000000B0H   SFRSYM    DATA     BYTE      P3
      000000A0H   SFRSYM    DATA     BYTE      P2
      00000090H   SFRSYM    DATA     BYTE      P1
      00000080H   SFRSYM    DATA     BYTE      P0
      00FF3DA9H   SYMBOL    CODE     ---       vl53l0x_simiic_sendack
      00FF3903H   SYMBOL    CODE     ---       vl53l0x_timeout_microseconds_to_mclks
      00FF3888H   SYMBOL    CODE     ---       vl53l0x_timeout_mclks_to_microseconds
      00FF397AH   SYMBOL    CODE     ---       vl53l0x_read_ch
      00FF3F29H   SYMBOL    CODE     ---       vl53l0x_decode_timeout
      00FF3B54H   SYMBOL    CODE     ---       vl53l0x_send_ch
      00FF3AC4H   SYMBOL    CODE     ---       vl53l0x_encode_timeout
      00FF33E1H   SYMBOL    CODE     ---       vl53l0x_get_sequence_step_enables
      00FF0066H   SYMBOL    CODE     ---       vl53l0x_sccb_waitack
      00FF0046H   SYMBOL    CODE     ---       vl53l0x_simiic_delay
      00FF2E0FH   SYMBOL    CODE     ---       vl53l0x_get_sequence_step_timeouts
      00FF3F48H   SYMBOL    CODE     ---       vl53l0x_simiic_start
      00FF353AH   SYMBOL    CODE     ---       vl53l0x_simiic_read_regs
      00FF3A26H   SYMBOL    CODE     ---       vl53l0x_simiic_write_dats
      00FF3F18H   SYMBOL    CODE     ---       vl53l0x_simiic_stop
      00FF371EH   SYMBOL    CODE     ---       vl53l0x_get_vcsel_pulse_period

      00FF0046H   BLOCK     CODE     ---       LVL=0
      WR6         REGSYM    ---      WORD      j
      00FF0046H   LINE      CODE     ---       #77
      00FF0046H   LINE      CODE     ---       #78
      00FF0046H   LINE      CODE     ---       #79
      00FF004AH   LINE      CODE     ---       #80
      00FF0052H   LINE      CODE     ---       #81
      ---         BLOCKEND  ---      ---       LVL=0

      00FF3F48H   BLOCK     CODE     ---       LVL=0
      00FF3F48H   LINE      CODE     ---       #84
      00FF3F48H   LINE      CODE     ---       #86
      00FF3F4AH   LINE      CODE     ---       #87
      00FF3F4CH   LINE      CODE     ---       #88
      00FF3F4FH   LINE      CODE     ---       #89
      00FF3F51H   LINE      CODE     ---       #90
      00FF3F54H   LINE      CODE     ---       #91
      00FF3F56H   LINE      CODE     ---       #92
      ---         BLOCKEND  ---      ---       LVL=0

      00FF3F18H   BLOCK     CODE     ---       LVL=0
      00FF3F18H   LINE      CODE     ---       #95
      00FF3F18H   LINE      CODE     ---       #97
      00FF3F1AH   LINE      CODE     ---       #98
      00FF3F1CH   LINE      CODE     ---       #99
      00FF3F1FH   LINE      CODE     ---       #100
      00FF3F21H   LINE      CODE     ---       #101
L251 LINKER/LOCATER V4.66.93.0                                                        07/16/2023  18:44:38  PAGE 60


      00FF3F24H   LINE      CODE     ---       #102
      00FF3F26H   LINE      CODE     ---       #103
      ---         BLOCKEND  ---      ---       LVL=0

      00FF3DA9H   BLOCK     CODE     ---       LVL=0
      R15         REGSYM    ---      BYTE      ack_dat
      00FF3DA9H   LINE      CODE     ---       #108
      00FF3DADH   LINE      CODE     ---       #110
      00FF3DAFH   LINE      CODE     ---       #111
      00FF3DB2H   LINE      CODE     ---       #112
      00FF3DBAH   LINE      CODE     ---       #113
      00FF3DBCH   LINE      CODE     ---       #115
      00FF3DBEH   LINE      CODE     ---       #116
      00FF3DC1H   LINE      CODE     ---       #117
      00FF3DC3H   LINE      CODE     ---       #118
      00FF3DC6H   LINE      CODE     ---       #119
      ---         BLOCKEND  ---      ---       LVL=0

      00FF0066H   BLOCK     CODE     ---       LVL=0
      00FF0066H   LINE      CODE     ---       #122
      00FF0066H   LINE      CODE     ---       #124
      00FF0068H   LINE      CODE     ---       #126
      00FF006BH   LINE      CODE     ---       #128
      00FF006DH   LINE      CODE     ---       #129
      00FF0070H   LINE      CODE     ---       #131
      00FF0073H   LINE      CODE     ---       #134
      00FF0075H   LINE      CODE     ---       #135
      00FF0078H   LINE      CODE     ---       #136
      00FF0078H   LINE      CODE     ---       #138
      00FF007AH   LINE      CODE     ---       #139
      00FF007DH   LINE      CODE     ---       #140
      00FF0081H   LINE      CODE     ---       #141
      ---         BLOCKEND  ---      ---       LVL=0

      00FF3B54H   BLOCK     CODE     ---       LVL=0
      R15         REGSYM    ---      BYTE      c
      00FF3B58H   BLOCK     CODE     NEAR LAB  LVL=1
      R14         REGSYM    ---      BYTE      i
      ---         BLOCKEND  ---      ---       LVL=1
      00FF3B54H   LINE      CODE     ---       #147
      00FF3B58H   LINE      CODE     ---       #148
      00FF3B58H   LINE      CODE     ---       #149
      00FF3B5BH   LINE      CODE     ---       #150
      00FF3B5DH   LINE      CODE     ---       #152
      00FF3B66H   LINE      CODE     ---       #153
      00FF3B68H   LINE      CODE     ---       #154
      00FF3B6AH   LINE      CODE     ---       #155
      00FF3B6DH   LINE      CODE     ---       #156
      00FF3B6FH   LINE      CODE     ---       #157
      00FF3B72H   LINE      CODE     ---       #158
      00FF3B74H   LINE      CODE     ---       #159
      00FF3B7CH   LINE      CODE     ---       #160
      00FF3B7FH   LINE      CODE     ---       #161
      ---         BLOCKEND  ---      ---       LVL=0

      00FF397AH   BLOCK     CODE     ---       LVL=0
      R15         REGSYM    ---      BYTE      ack_x
      00FF3980H   BLOCK     CODE     NEAR LAB  LVL=1
      R13         REGSYM    ---      BYTE      i
      R14         REGSYM    ---      BYTE      c
      ---         BLOCKEND  ---      ---       LVL=1
      00FF397AH   LINE      CODE     ---       #167
      00FF3980H   LINE      CODE     ---       #168
      00FF3980H   LINE      CODE     ---       #171
      00FF3982H   LINE      CODE     ---       #172
L251 LINKER/LOCATER V4.66.93.0                                                        07/16/2023  18:44:38  PAGE 61


      00FF3984H   LINE      CODE     ---       #173
      00FF3987H   LINE      CODE     ---       #174
      00FF3989H   LINE      CODE     ---       #176
      00FF398CH   LINE      CODE     ---       #178
      00FF398FH   LINE      CODE     ---       #179
      00FF3991H   LINE      CODE     ---       #180
      00FF3994H   LINE      CODE     ---       #181
      00FF3996H   LINE      CODE     ---       #182
      00FF3999H   LINE      CODE     ---       #183
      00FF399BH   LINE      CODE     ---       #184
      00FF399EH   LINE      CODE     ---       #186
      00FF39A0H   LINE      CODE     ---       #187
      00FF39A4H   LINE      CODE     ---       #190
      00FF39A6H   LINE      CODE     ---       #191
      00FF39A9H   LINE      CODE     ---       #192
      00FF39AEH   LINE      CODE     ---       #194
      00FF39B0H   LINE      CODE     ---       #195
      ---         BLOCKEND  ---      ---       LVL=0

      00FF3A26H   BLOCK     CODE     ---       LVL=0
      0000043FH   SYMBOL    EDATA    BYTE      dev_add
      00000440H   SYMBOL    EDATA    ---       dat
      DR12        REGSYM    ---      DWORD     len
      00FF3A26H   LINE      CODE     ---       #207
      00FF3A32H   LINE      CODE     ---       #209
      00FF3A35H   LINE      CODE     ---       #210
      00FF3A3BH   LINE      CODE     ---       #211
      00FF3A3DH   LINE      CODE     ---       #213
      00FF3A4DH   LINE      CODE     ---       #214
      00FF3A55H   LINE      CODE     ---       #217
      00FF3A58H   LINE      CODE     ---       #218
      ---         BLOCKEND  ---      ---       LVL=0
      R13         REGSYM    ---      BYTE      dev_add
      R14         REGSYM    ---      BYTE      reg
      R15         REGSYM    ---      BYTE      dat
      R15         REGSYM    ---      BYTE      dev_add
      R14         REGSYM    ---      BYTE      reg
      R15         REGSYM    ---      BYTE      dat

      00FF353AH   BLOCK     CODE     ---       LVL=0
      0000042EH   SYMBOL    EDATA    BYTE      dev_add
      0000042FH   SYMBOL    EDATA    BYTE      reg
      REG=3       REGSYM    ---      ---       dat_add
      00000430H   SYMBOL    EDATA    DWORD     num
      00FF353AH   LINE      CODE     ---       #275
      00FF3546H   LINE      CODE     ---       #277
      00FF3549H   LINE      CODE     ---       #278
      00FF3552H   LINE      CODE     ---       #279
      00FF3559H   LINE      CODE     ---       #282
      00FF355CH   LINE      CODE     ---       #283
      00FF3567H   LINE      CODE     ---       #284
      00FF3569H   LINE      CODE     ---       #286
      00FF3571H   LINE      CODE     ---       #287
      00FF3573H   LINE      CODE     ---       #288
      00FF3581H   LINE      CODE     ---       #289
      00FF3588H   LINE      CODE     ---       #290
      00FF358BH   LINE      CODE     ---       #291
      ---         BLOCKEND  ---      ---       LVL=0
      REG=3       REGSYM    ---      ---       dat_add
      REG=3       REGSYM    ---      ---       type_is_aperture

      00FF3888H   BLOCK     CODE     ---       LVL=0
      WR30        REGSYM    ---      WORD      timeout_period_mclks
      R5          REGSYM    ---      BYTE      vcsel_period_pclks
      00FF388AH   BLOCK     CODE     NEAR LAB  LVL=1
L251 LINKER/LOCATER V4.66.93.0                                                        07/16/2023  18:44:38  PAGE 62


      DR24        REGSYM    ---      DWORD     macro_period_ns
      ---         BLOCKEND  ---      ---       LVL=1
      00FF3888H   LINE      CODE     ---       #419
      00FF388AH   LINE      CODE     ---       #420
      00FF388AH   LINE      CODE     ---       #421
      00FF38ABH   LINE      CODE     ---       #423
      ---         BLOCKEND  ---      ---       LVL=0

      00FF3903H   BLOCK     CODE     ---       LVL=0
      DR28        REGSYM    ---      DWORD     timeout_period_us
      R3          REGSYM    ---      BYTE      vcsel_period_pclks
      00FF3905H   BLOCK     CODE     NEAR LAB  LVL=1
      DR8         REGSYM    ---      DWORD     macro_period_ns
      ---         BLOCKEND  ---      ---       LVL=1
      00FF3903H   LINE      CODE     ---       #434
      00FF3905H   LINE      CODE     ---       #435
      00FF3905H   LINE      CODE     ---       #436
      00FF3926H   LINE      CODE     ---       #438
      ---         BLOCKEND  ---      ---       LVL=0

      00FF3F29H   BLOCK     CODE     ---       LVL=0
      WR4         REGSYM    ---      WORD      reg_val
      00FF3F29H   LINE      CODE     ---       #448
      00FF3F2BH   LINE      CODE     ---       #451
      00FF3F38H   LINE      CODE     ---       #453
      ---         BLOCKEND  ---      ---       LVL=0

      00FF3AC4H   BLOCK     CODE     ---       LVL=0
      WR2         REGSYM    ---      WORD      timeout_mclks
      00FF3AC6H   BLOCK     CODE     NEAR LAB  LVL=1
      DR8         REGSYM    ---      DWORD     ls_byte
      WR4         REGSYM    ---      WORD      ms_byte
      WR6         REGSYM    ---      WORD      return_data
      ---         BLOCKEND  ---      ---       LVL=1
      00FF3AC4H   LINE      CODE     ---       #462
      00FF3AC6H   LINE      CODE     ---       #463
      00FF3AC6H   LINE      CODE     ---       #464
      00FF3AC6H   LINE      CODE     ---       #465
      00FF3ACAH   LINE      CODE     ---       #466
      00FF3ACAH   LINE      CODE     ---       #468
      00FF3AD0H   LINE      CODE     ---       #471
      00FF3AD6H   LINE      CODE     ---       #472
      00FF3AD8H   LINE      CODE     ---       #474
      00FF3AE1H   LINE      CODE     ---       #475
      00FF3AE3H   LINE      CODE     ---       #476
      00FF3AEDH   LINE      CODE     ---       #477
      00FF3AF7H   LINE      CODE     ---       #478
      00FF3AF7H   LINE      CODE     ---       #479
      00FF3AF7H   LINE      CODE     ---       #480
      ---         BLOCKEND  ---      ---       LVL=0

      00FF33E1H   BLOCK     CODE     ---       LVL=0
      REG=3       REGSYM    ---      ---       enables
      00FF33E5H   BLOCK     CODE     NEAR LAB  LVL=1
      00000466H   SYMBOL    EDATA    BYTE      sequence_config
      ---         BLOCKEND  ---      ---       LVL=1
      00FF33E1H   LINE      CODE     ---       #489
      00FF33E5H   LINE      CODE     ---       #490
      00FF33E5H   LINE      CODE     ---       #491
      00FF33EAH   LINE      CODE     ---       #492
      00FF33FBH   LINE      CODE     ---       #494
      00FF3405H   LINE      CODE     ---       #495
      00FF3411H   LINE      CODE     ---       #496
      00FF341FH   LINE      CODE     ---       #497
      00FF342BH   LINE      CODE     ---       #498
L251 LINKER/LOCATER V4.66.93.0                                                        07/16/2023  18:44:38  PAGE 63


      00FF3436H   LINE      CODE     ---       #499
      ---         BLOCKEND  ---      ---       LVL=0

      00FF371EH   BLOCK     CODE     ---       LVL=0
      WR6         REGSYM    ---      INT       type
      00000467H   SYMBOL    EDATA    BYTE      data_buffer
      00FF371EH   LINE      CODE     ---       #508
      00FF371EH   LINE      CODE     ---       #509
      00FF371EH   LINE      CODE     ---       #510
      00FF3723H   LINE      CODE     ---       #511
      00FF3727H   LINE      CODE     ---       #513
      00FF3734H   LINE      CODE     ---       #514
      00FF3734H   LINE      CODE     ---       #515
      00FF3736H   LINE      CODE     ---       #516
      00FF373CH   LINE      CODE     ---       #518
      00FF3750H   LINE      CODE     ---       #519
      00FF375EH   LINE      CODE     ---       #520
      00FF3760H   LINE      CODE     ---       #523
      00FF3766H   LINE      CODE     ---       #524
      00FF3766H   LINE      CODE     ---       #525
      00FF376AH   LINE      CODE     ---       #526
      ---         BLOCKEND  ---      ---       LVL=0

      00FF2E0FH   BLOCK     CODE     ---       LVL=0
      00000434H   SYMBOL    EDATA    ---       enables
      REG=3       REGSYM    ---      ---       timeouts
      00FF2E17H   BLOCK     CODE     NEAR LAB  LVL=1
      00000438H   SYMBOL    EDATA    ---       reg_buffer
      WR6         REGSYM    ---      WORD      reg16_buffer
      ---         BLOCKEND  ---      ---       LVL=1
      00FF2E0FH   LINE      CODE     ---       #536
      00FF2E17H   LINE      CODE     ---       #537
      00FF2E17H   LINE      CODE     ---       #539
      00FF2E17H   LINE      CODE     ---       #541
      00FF2E21H   LINE      CODE     ---       #543
      00FF2E35H   LINE      CODE     ---       #544
      00FF2E41H   LINE      CODE     ---       #545
      00FF2E4FH   LINE      CODE     ---       #547
      00FF2E63H   LINE      CODE     ---       #548
      00FF2E6FH   LINE      CODE     ---       #549
      00FF2E76H   LINE      CODE     ---       #550
      00FF2E84H   LINE      CODE     ---       #552
      00FF2E91H   LINE      CODE     ---       #554
      00FF2EA5H   LINE      CODE     ---       #555
      00FF2EB1H   LINE      CODE     ---       #556
      00FF2EB8H   LINE      CODE     ---       #558
      00FF2EC2H   LINE      CODE     ---       #560
      00FF2ED4H   LINE      CODE     ---       #561
      00FF2ED4H   LINE      CODE     ---       #563
      00FF2EE7H   LINE      CODE     ---       #564
      ---         BLOCKEND  ---      ---       LVL=0
      R10         REGSYM    ---      BYTE      vhv_init_byte
      R15         REGSYM    ---      BYTE      return_state
      DR12        REGSYM    ---      DWORD     budget_us
      WR6         REGSYM    ---      WORD      dat
      DR4         REGSYM    ---      DWORD     final_range_timeout_us
      WR6         REGSYM    ---      WORD      final_range_timeout_mclks
      DR12        REGSYM    ---      DWORD     budget_us
      DR4         REGSYM    ---      FLOAT     limit_mcps
      WR6         REGSYM    ---      WORD      limit_mcps_16bit
      R15         REGSYM    ---      BYTE      return_state
      R14         REGSYM    ---      BYTE      reg_data_buffer
      R13         REGSYM    ---      BYTE      i

      ---         MODULE    ---      ---       isr
L251 LINKER/LOCATER V4.66.93.0                                                        07/16/2023  18:44:38  PAGE 64


      00FF38C6H   PUBLIC    CODE     ---       UART1_Isr
      00FF3E26H   PUBLIC    CODE     ---       UART2_Isr
      00FF3E44H   PUBLIC    CODE     ---       UART3_Isr
      00FF31FCH   PUBLIC    CODE     ---       UART4_Isr
      00FF0011H   PUBLIC    CODE     ---       INT0_Isr
      00FF0012H   PUBLIC    CODE     ---       INT1_Isr
      00FF3FB0H   PUBLIC    CODE     ---       INT2_Isr
      00FF3FB8H   PUBLIC    CODE     ---       INT3_Isr
      00FF3FC0H   PUBLIC    CODE     ---       INT4_Isr
      00FF0019H   PUBLIC    CODE     ---       TM0_Isr
      00FF001AH   PUBLIC    CODE     ---       TM1_Isr
      00FF3FC8H   PUBLIC    CODE     ---       TM2_Isr
      00FF3FD0H   PUBLIC    CODE     ---       TM3_Isr
      00FF3A5BH   PUBLIC    CODE     ---       TM4_Isr
      000000D0H   SFRSYM    DATA     BYTE      PSW
      000000EFH   SFRSYM    DATA     BYTE      AUXINTIF
      000000FDH   SFRSYM    DATA     BYTE      S4CON
      000000ACH   SFRSYM    DATA     BYTE      S3CON
      0000009AH   SFRSYM    DATA     BYTE      S2CON
      000000C7H   SFRSYM    DATA     BYTE      IAP_CONTR
      00000088H   SFRSYM    DATA     BYTE      TCON
      00000098H   SFRSYM    DATA     BYTE      SCON
      00000099H   SFRSYM    DATA     BYTE      SBUF
      000000B8H   SFRSYM    DATA     BYTE      IP
      000000A8H   SFRSYM    DATA     BYTE      IE
      000000F8H   SFRSYM    DATA     BYTE      P7
      000000E8H   SFRSYM    DATA     BYTE      P6
      000000C8H   SFRSYM    DATA     BYTE      P5
      000000C0H   SFRSYM    DATA     BYTE      P4
      000000B0H   SFRSYM    DATA     BYTE      P3
      000000A0H   SFRSYM    DATA     BYTE      P2
      00000090H   SFRSYM    DATA     BYTE      P1
      00000080H   SFRSYM    DATA     BYTE      P0

      00FF38C6H   BLOCK     CODE     ---       LVL=0
      00FF38CAH   BLOCK     CODE     NEAR LAB  LVL=1
      R11         REGSYM    ---      BYTE      res
      00000468H   SYMBOL    EDATA    BYTE      dwon_count
      ---         BLOCKEND  ---      ---       LVL=1
      00FF38C6H   LINE      CODE     ---       #22
      00FF38CAH   LINE      CODE     ---       #23
      00FF38CAH   LINE      CODE     ---       #26
      00FF38CFH   LINE      CODE     ---       #28
      00FF38D2H   LINE      CODE     ---       #29
      00FF38D7H   LINE      CODE     ---       #30
      00FF38D7H   LINE      CODE     ---       #31
      00FF38DCH   LINE      CODE     ---       #33
      00FF38DFH   LINE      CODE     ---       #34
      00FF38E1H   LINE      CODE     ---       #36
      00FF38E4H   LINE      CODE     ---       #38
      00FF38F4H   LINE      CODE     ---       #39
      00FF38F7H   LINE      CODE     ---       #40
      00FF38F9H   LINE      CODE     ---       #43
      00FF38FEH   LINE      CODE     ---       #44
      00FF38FEH   LINE      CODE     ---       #45
      ---         BLOCKEND  ---      ---       LVL=0

      00FF3E26H   BLOCK     CODE     ---       LVL=0
      00FF3E26H   LINE      CODE     ---       #49
      00FF3E2AH   LINE      CODE     ---       #51
      00FF3E2FH   LINE      CODE     ---       #53
      00FF3E32H   LINE      CODE     ---       #54
      00FF3E37H   LINE      CODE     ---       #55
      00FF3E37H   LINE      CODE     ---       #56
      00FF3E3CH   LINE      CODE     ---       #58
L251 LINKER/LOCATER V4.66.93.0                                                        07/16/2023  18:44:38  PAGE 65


      00FF3E3FH   LINE      CODE     ---       #61
      ---         BLOCKEND  ---      ---       LVL=0

      00FF3E44H   BLOCK     CODE     ---       LVL=0
      00FF3E44H   LINE      CODE     ---       #66
      00FF3E48H   LINE      CODE     ---       #68
      00FF3E4DH   LINE      CODE     ---       #70
      00FF3E50H   LINE      CODE     ---       #71
      00FF3E55H   LINE      CODE     ---       #72
      00FF3E55H   LINE      CODE     ---       #73
      00FF3E5AH   LINE      CODE     ---       #75
      00FF3E5DH   LINE      CODE     ---       #78
      ---         BLOCKEND  ---      ---       LVL=0

      00FF31FCH   BLOCK     CODE     ---       LVL=0
      00FF31FCH   LINE      CODE     ---       #83
      00FF3214H   LINE      CODE     ---       #85
      00FF3219H   LINE      CODE     ---       #87
      00FF321CH   LINE      CODE     ---       #88
      00FF3221H   LINE      CODE     ---       #89
      00FF3221H   LINE      CODE     ---       #90
      00FF3226H   LINE      CODE     ---       #92
      00FF3229H   LINE      CODE     ---       #95
      00FF3233H   LINE      CODE     ---       #97
      00FF3236H   LINE      CODE     ---       #98
      00FF3238H   LINE      CODE     ---       #99
      00FF323EH   LINE      CODE     ---       #101
      00FF3241H   LINE      CODE     ---       #102
      00FF3243H   LINE      CODE     ---       #103
      00FF3249H   LINE      CODE     ---       #105
      00FF324CH   LINE      CODE     ---       #106
      00FF324CH   LINE      CODE     ---       #108
      ---         BLOCKEND  ---      ---       LVL=0

      00FF0011H   BLOCK     CODE     ---       LVL=0
      00FF0011H   LINE      CODE     ---       #112
      00FF0011H   LINE      CODE     ---       #116
      ---         BLOCKEND  ---      ---       LVL=0

      00FF0012H   BLOCK     CODE     ---       LVL=0
      00FF0012H   LINE      CODE     ---       #117
      00FF0012H   LINE      CODE     ---       #120
      ---         BLOCKEND  ---      ---       LVL=0

      00FF3FB0H   BLOCK     CODE     ---       LVL=0
      00FF3FB0H   LINE      CODE     ---       #121
      00FF3FB2H   LINE      CODE     ---       #123
      00FF3FB5H   LINE      CODE     ---       #124
      ---         BLOCKEND  ---      ---       LVL=0

      00FF3FB8H   BLOCK     CODE     ---       LVL=0
      00FF3FB8H   LINE      CODE     ---       #125
      00FF3FBAH   LINE      CODE     ---       #127
      00FF3FBDH   LINE      CODE     ---       #128
      ---         BLOCKEND  ---      ---       LVL=0

      00FF3FC0H   BLOCK     CODE     ---       LVL=0
      00FF3FC0H   LINE      CODE     ---       #130
      00FF3FC2H   LINE      CODE     ---       #132
      00FF3FC5H   LINE      CODE     ---       #133
      ---         BLOCKEND  ---      ---       LVL=0

      00FF0019H   BLOCK     CODE     ---       LVL=0
      00FF0019H   LINE      CODE     ---       #135
      00FF0019H   LINE      CODE     ---       #138
L251 LINKER/LOCATER V4.66.93.0                                                        07/16/2023  18:44:38  PAGE 66


      ---         BLOCKEND  ---      ---       LVL=0

      00FF001AH   BLOCK     CODE     ---       LVL=0
      00FF001AH   LINE      CODE     ---       #139
      00FF001AH   LINE      CODE     ---       #142
      ---         BLOCKEND  ---      ---       LVL=0

      00FF3FC8H   BLOCK     CODE     ---       LVL=0
      00FF3FC8H   LINE      CODE     ---       #143
      00FF3FCAH   LINE      CODE     ---       #145
      00FF3FCDH   LINE      CODE     ---       #147
      ---         BLOCKEND  ---      ---       LVL=0

      00FF3FD0H   BLOCK     CODE     ---       LVL=0
      00FF3FD0H   LINE      CODE     ---       #148
      00FF3FD2H   LINE      CODE     ---       #150
      00FF3FD5H   LINE      CODE     ---       #152
      ---         BLOCKEND  ---      ---       LVL=0

      00FF3A5BH   BLOCK     CODE     ---       LVL=0
      00FF3A5BH   LINE      CODE     ---       #156
      00FF3A71H   LINE      CODE     ---       #158
      00FF3A74H   LINE      CODE     ---       #159
      00FF3A77H   LINE      CODE     ---       #160
      00FF3A79H   LINE      CODE     ---       #161
      ---         BLOCKEND  ---      ---       LVL=0

      ---         MODULE    ---      ---       main
      00FF3439H   PUBLIC    CODE     ---       main
      00000020H.0 PUBLIC    BIT      BIT       Garage_in_flag
      00000020H.1 PUBLIC    BIT      BIT       Garage_out_flag
      00000020H.2 PUBLIC    BIT      BIT       flag
      00000020H.3 PUBLIC    BIT      BIT       Stop_flag
      00000020H.4 PUBLIC    BIT      BIT       Barrier_flag
      00000020H.5 PUBLIC    BIT      BIT       encoder_start
      00000020H.6 PUBLIC    BIT      BIT       first_barrier
      000001F0H   PUBLIC    EDATA    INT       encoder_num
      000001F2H   PUBLIC    EDATA    INT       element_num
      000001F4H   PUBLIC    EDATA    ---       PID_Right
      0000022CH   PUBLIC    EDATA    ---       PID_Servos
      00000264H   PUBLIC    EDATA    ---       PID_Left
      0000029CH   PUBLIC    EDATA    FLOAT     Speed
      000000D0H   SFRSYM    DATA     BYTE      PSW
      000000A0H.6 SFRSYM    DATA     BIT       P26
      000000C8H.2 SFRSYM    DATA     BIT       P52
      00000088H   SFRSYM    DATA     BYTE      TCON
      00000098H   SFRSYM    DATA     BYTE      SCON
      000000B8H   SFRSYM    DATA     BYTE      IP
      000000A8H   SFRSYM    DATA     BYTE      IE
      000000F8H   SFRSYM    DATA     BYTE      P7
      000000E8H   SFRSYM    DATA     BYTE      P6
      000000C8H   SFRSYM    DATA     BYTE      P5
      000000C0H   SFRSYM    DATA     BYTE      P4
      000000B0H   SFRSYM    DATA     BYTE      P3
      000000A0H   SFRSYM    DATA     BYTE      P2
      00000090H   SFRSYM    DATA     BYTE      P1
      00000080H   SFRSYM    DATA     BYTE      P0

      00FF3439H   BLOCK     CODE     ---       LVL=0
      00FF3439H   LINE      CODE     ---       #45
      00FF3439H   LINE      CODE     ---       #47
      00FF343CH   LINE      CODE     ---       #48
      00FF343CH   LINE      CODE     ---       #67
      00FF3442H   LINE      CODE     ---       #68
      00FF3445H   LINE      CODE     ---       #69
L251 LINKER/LOCATER V4.66.93.0                                                        07/16/2023  18:44:38  PAGE 67


      00FF344BH   LINE      CODE     ---       #70
      00FF344DH   LINE      CODE     ---       #71
      00FF3454H   LINE      CODE     ---       #72
      00FF3457H   LINE      CODE     ---       #80
      00FF345DH   LINE      CODE     ---       #82
      00FF3463H   LINE      CODE     ---       #84
      00FF3466H   LINE      CODE     ---       #85
      00FF3469H   LINE      CODE     ---       #86
      00FF346CH   LINE      CODE     ---       #88
      00FF346EH   LINE      CODE     ---       #89
      00FF3470H   LINE      CODE     ---       #93
      00FF347BH   LINE      CODE     ---       #94
      00FF3484H   LINE      CODE     ---       #95
      00FF348DH   LINE      CODE     ---       #96
      00FF348FH   LINE      CODE     ---       #97
      ---         BLOCKEND  ---      ---       LVL=0

      ---         MODULE    ---      ---       init
      00FF27CAH   PUBLIC    CODE     ---       Init_all
      000000D0H   SFRSYM    DATA     BYTE      PSW
      000000E9H   SFRSYM    DATA     BYTE      WTST
      00000088H   SFRSYM    DATA     BYTE      TCON
      00000098H   SFRSYM    DATA     BYTE      SCON
      000000B8H   SFRSYM    DATA     BYTE      IP
      000000A8H   SFRSYM    DATA     BYTE      IE
      000000F8H   SFRSYM    DATA     BYTE      P7
      000000E8H   SFRSYM    DATA     BYTE      P6
      000000C8H   SFRSYM    DATA     BYTE      P5
      000000C0H   SFRSYM    DATA     BYTE      P4
      000000B0H   SFRSYM    DATA     BYTE      P3
      000000A0H   SFRSYM    DATA     BYTE      P2
      00000090H   SFRSYM    DATA     BYTE      P1
      00000080H   SFRSYM    DATA     BYTE      P0

      00FF27CAH   BLOCK     CODE     ---       LVL=0
      00FF27CAH   LINE      CODE     ---       #7
      00FF27CAH   LINE      CODE     ---       #9
      00FF27CDH   LINE      CODE     ---       #10
      00FF27D0H   LINE      CODE     ---       #11
      00FF27DCH   LINE      CODE     ---       #12
      00FF27DFH   LINE      CODE     ---       #15
      00FF27E2H   LINE      CODE     ---       #18
      00FF27EBH   LINE      CODE     ---       #19
      00FF27F4H   LINE      CODE     ---       #20
      00FF27FDH   LINE      CODE     ---       #21
      00FF2806H   LINE      CODE     ---       #24
      00FF280BH   LINE      CODE     ---       #25
      00FF2812H   LINE      CODE     ---       #26
      00FF281DH   LINE      CODE     ---       #29
      00FF282EH   LINE      CODE     ---       #30
      00FF283FH   LINE      CODE     ---       #31
      00FF2850H   LINE      CODE     ---       #32
      00FF2861H   LINE      CODE     ---       #33
      00FF2872H   LINE      CODE     ---       #36
      00FF28A3H   LINE      CODE     ---       #37
      00FF28D4H   LINE      CODE     ---       #38
      00FF28F3H   LINE      CODE     ---       #40
      00FF28FAH   LINE      CODE     ---       #42
      ---         BLOCKEND  ---      ---       LVL=0

      ---         MODULE    ---      ---       move
      00FF39EEH   PUBLIC    CODE     ---       Getspeed
      00FF3682H   PUBLIC    CODE     ---       Speedcontrol
      00000454H   PUBLIC    EDATA    INT       encoder_right
      00000456H   PUBLIC    EDATA    INT       encoder_left
L251 LINKER/LOCATER V4.66.93.0                                                        07/16/2023  18:44:38  PAGE 68


      000000D0H   SFRSYM    DATA     BYTE      PSW
      00000088H   SFRSYM    DATA     BYTE      TCON
      00000098H   SFRSYM    DATA     BYTE      SCON
      000000B8H   SFRSYM    DATA     BYTE      IP
      000000A8H   SFRSYM    DATA     BYTE      IE
      000000F8H   SFRSYM    DATA     BYTE      P7
      000000E8H   SFRSYM    DATA     BYTE      P6
      000000C8H   SFRSYM    DATA     BYTE      P5
      000000C0H   SFRSYM    DATA     BYTE      P4
      000000B0H   SFRSYM    DATA     BYTE      P3
      000000A0H   SFRSYM    DATA     BYTE      P2
      00000090H   SFRSYM    DATA     BYTE      P1
      00000080H   SFRSYM    DATA     BYTE      P0

      00FF39EEH   BLOCK     CODE     ---       LVL=0
      00FF39EEH   LINE      CODE     ---       #11
      00FF39EEH   LINE      CODE     ---       #13
      00FF39F9H   LINE      CODE     ---       #14
      00FF3A02H   LINE      CODE     ---       #15
      00FF3A09H   LINE      CODE     ---       #16
      00FF3A0EH   LINE      CODE     ---       #17
      00FF3A25H   LINE      CODE     ---       #18
      ---         BLOCKEND  ---      ---       LVL=0

      00FF3682H   BLOCK     CODE     ---       LVL=0
      WR6         REGSYM    ---      INT       left_speed
      WR14        REGSYM    ---      INT       right_speed
      00FF3682H   LINE      CODE     ---       #20
      00FF3686H   LINE      CODE     ---       #22
      00FF3691H   LINE      CODE     ---       #23
      00FF369EH   LINE      CODE     ---       #24
      00FF36B6H   LINE      CODE     ---       #25
      00FF36CEH   LINE      CODE     ---       #26
      ---         BLOCKEND  ---      ---       LVL=0

      ---         MODULE    ---      ---       pid
      00FF3C06H   PUBLIC    CODE     ---       Limit
      00FF2392H   PUBLIC    CODE     ---       PID_Calc_Incremental
      00FF2A23H   PUBLIC    CODE     ---       PID_Calc_Positional
      00FF3329H   PUBLIC    CODE     ---       PID_Init
      00000458H   PUBLIC    EDATA    FLOAT     err_add
      000003FDH   PUBLIC    EDATA    BYTE      ?PID_Init?BYTE
      000003FDH   PUBLIC    EDATA    BYTE      ?PID_Calc_Positional?BYTE
      000000D0H   SFRSYM    DATA     BYTE      PSW
      00000088H   SFRSYM    DATA     BYTE      TCON
      00000098H   SFRSYM    DATA     BYTE      SCON
      000000B8H   SFRSYM    DATA     BYTE      IP
      000000A8H   SFRSYM    DATA     BYTE      IE
      000000F8H   SFRSYM    DATA     BYTE      P7
      000000E8H   SFRSYM    DATA     BYTE      P6
      000000C8H   SFRSYM    DATA     BYTE      P5
      000000C0H   SFRSYM    DATA     BYTE      P4
      000000B0H   SFRSYM    DATA     BYTE      P3
      000000A0H   SFRSYM    DATA     BYTE      P2
      00000090H   SFRSYM    DATA     BYTE      P1
      00000080H   SFRSYM    DATA     BYTE      P0

      00FF3329H   BLOCK     CODE     ---       LVL=0
      REG=2       REGSYM    ---      ---       PID_InitStruct
      DR4         REGSYM    ---      FLOAT     kp
      00000405H   SYMBOL    EDATA    FLOAT     ki
      00000409H   SYMBOL    EDATA    FLOAT     kd
      0000040DH   SYMBOL    EDATA    FLOAT     out_limit
      00000411H   SYMBOL    EDATA    FLOAT     integral_limit
      00FF3329H   LINE      CODE     ---       #9
L251 LINKER/LOCATER V4.66.93.0                                                        07/16/2023  18:44:38  PAGE 69


      00FF332BH   LINE      CODE     ---       #11
      00FF3333H   LINE      CODE     ---       #12
      00FF333FH   LINE      CODE     ---       #13
      00FF334BH   LINE      CODE     ---       #14
      00FF3355H   LINE      CODE     ---       #15
      00FF335DH   LINE      CODE     ---       #16
      00FF3365H   LINE      CODE     ---       #17
      00FF336DH   LINE      CODE     ---       #18
      00FF3379H   LINE      CODE     ---       #19
      00FF3385H   LINE      CODE     ---       #20
      ---         BLOCKEND  ---      ---       LVL=0

      00FF3C06H   BLOCK     CODE     ---       LVL=0
      DR28        REGSYM    ---      FLOAT     value
      DR24        REGSYM    ---      FLOAT     limit
      00FF3C06H   LINE      CODE     ---       #22
      00FF3C0AH   LINE      CODE     ---       #24
      00FF3C1FH   LINE      CODE     ---       #25
      00FF3C2EH   LINE      CODE     ---       #26
      00FF3C30H   LINE      CODE     ---       #27
      ---         BLOCKEND  ---      ---       LVL=0

      00FF2A23H   BLOCK     CODE     ---       LVL=0
      REG=3       REGSYM    ---      ---       PID_InitStruct
      DR4         REGSYM    ---      FLOAT     deviation_expected
      00000405H   SYMBOL    EDATA    FLOAT     deviation_now
      00FF2A23H   LINE      CODE     ---       #29
      00FF2A27H   LINE      CODE     ---       #31
      00FF2A2EH   LINE      CODE     ---       #32
      00FF2A3AH   LINE      CODE     ---       #34
      00FF2A54H   LINE      CODE     ---       #36
      00FF2A69H   LINE      CODE     ---       #38
      00FF2A7EH   LINE      CODE     ---       #39
      00FF2A95H   LINE      CODE     ---       #40
      00FF2ABBH   LINE      CODE     ---       #42
      00FF2AD6H   LINE      CODE     ---       #44
      00FF2AFCH   LINE      CODE     ---       #45
      00FF2B17H   LINE      CODE     ---       #47
      00FF2B27H   LINE      CODE     ---       #48
      ---         BLOCKEND  ---      ---       LVL=0

      00FF2392H   BLOCK     CODE     ---       LVL=0
      REG=3       REGSYM    ---      ---       PID_InitStruct
      WR30        REGSYM    ---      INT       speed_expected
      WR8         REGSYM    ---      INT       speed_now
      00FF2392H   LINE      CODE     ---       #50
      00FF2398H   LINE      CODE     ---       #52
      00FF23A6H   LINE      CODE     ---       #53
      00FF23B5H   LINE      CODE     ---       #55
      00FF23CFH   LINE      CODE     ---       #57
      00FF2404H   LINE      CODE     ---       #59
      00FF242EH   LINE      CODE     ---       #60
      00FF2449H   LINE      CODE     ---       #62
      00FF2494H   LINE      CODE     ---       #64
      00FF24BAH   LINE      CODE     ---       #65
      00FF24D5H   LINE      CODE     ---       #66
      00FF24F8H   LINE      CODE     ---       #68
      00FF2508H   LINE      CODE     ---       #69
      00FF2518H   LINE      CODE     ---       #70
      ---         BLOCKEND  ---      ---       LVL=0

      ---         MODULE    ---      ---       sensor
      00FF251BH   PUBLIC    CODE     ---       ADC_Read
      00FF2673H   PUBLIC    CODE     ---       Pos_Deviation
      00FF28FDH   PUBLIC    CODE     ---       Servos_Control
L251 LINKER/LOCATER V4.66.93.0                                                        07/16/2023  18:44:38  PAGE 70


      000002A0H   PUBLIC    EDATA    INT       ADC_MIN
      000002A2H   PUBLIC    EDATA    INT       ADC_MAX
      000002A4H   PUBLIC    EDATA    ---       sensor
      000002ACH   PUBLIC    EDATA    FLOAT     speed_add
      000002B0H   PUBLIC    EDATA    INT       servos_flag
      000002B2H   PUBLIC    EDATA    INT       cross_flag
      000002B4H   PUBLIC    EDATA    INT       rightspeed
      000002B6H   PUBLIC    EDATA    INT       temp
      000002B8H   PUBLIC    EDATA    INT       time_count
      000002BAH   PUBLIC    EDATA    FLOAT     speed_err
      000002BEH   PUBLIC    EDATA    INT       leftspeed
      000002C0H   PUBLIC    EDATA    ---       ad
      000002D8H   PUBLIC    EDATA    FLOAT     speed_low
      000002DCH   PUBLIC    EDATA    FLOAT     sensor_err
      000002E0H   PUBLIC    EDATA    FLOAT     servos_err
      000002E4H   PUBLIC    EDATA    FLOAT     lm
      000002E8H   PUBLIC    EDATA    FLOAT     rm
      000002ECH   PUBLIC    EDATA    INT       cross_num
      000002EEH   PUBLIC    EDATA    INT       READ_MAX
      000002F0H   PUBLIC    EDATA    FLOAT     l
      000002F4H   PUBLIC    EDATA    FLOAT     r
      000002F8H   PUBLIC    EDATA    INT       servos_middle
      000000D0H   SFRSYM    DATA     BYTE      PSW
      00000088H   SFRSYM    DATA     BYTE      TCON
      00000098H   SFRSYM    DATA     BYTE      SCON
      000000B8H   SFRSYM    DATA     BYTE      IP
      000000A8H   SFRSYM    DATA     BYTE      IE
      000000F8H   SFRSYM    DATA     BYTE      P7
      000000E8H   SFRSYM    DATA     BYTE      P6
      000000C8H   SFRSYM    DATA     BYTE      P5
      000000C0H   SFRSYM    DATA     BYTE      P4
      000000B0H   SFRSYM    DATA     BYTE      P3
      000000A0H   SFRSYM    DATA     BYTE      P2
      00000090H   SFRSYM    DATA     BYTE      P1
      00000080H   SFRSYM    DATA     BYTE      P0

      00FF251BH   BLOCK     CODE     ---       LVL=0
      00FF251DH   BLOCK     CODE     NEAR LAB  LVL=1
      WR14        REGSYM    ---      INT       i
      ---         BLOCKEND  ---      ---       LVL=1
      00FF251BH   LINE      CODE     ---       #27
      00FF251DH   LINE      CODE     ---       #28
      00FF251DH   LINE      CODE     ---       #30
      00FF251FH   LINE      CODE     ---       #32
      00FF2532H   LINE      CODE     ---       #33
      00FF2545H   LINE      CODE     ---       #34
      00FF2558H   LINE      CODE     ---       #35
      00FF256BH   LINE      CODE     ---       #36
      00FF2573H   LINE      CODE     ---       #37
      00FF2575H   LINE      CODE     ---       #39
      00FF2587H   LINE      CODE     ---       #41
      00FF258BH   LINE      CODE     ---       #42
      00FF258FH   LINE      CODE     ---       #43
      00FF2597H   LINE      CODE     ---       #44
      00FF2597H   LINE      CODE     ---       #45
      00FF25A3H   LINE      CODE     ---       #47
      00FF25ABH   LINE      CODE     ---       #48
      00FF25AFH   LINE      CODE     ---       #49
      00FF25B7H   LINE      CODE     ---       #50
      00FF25B7H   LINE      CODE     ---       #51
      00FF25C3H   LINE      CODE     ---       #53
      00FF25C7H   LINE      CODE     ---       #54
      00FF25CBH   LINE      CODE     ---       #55
      00FF25D3H   LINE      CODE     ---       #56
      00FF25D3H   LINE      CODE     ---       #57
L251 LINKER/LOCATER V4.66.93.0                                                        07/16/2023  18:44:38  PAGE 71


      00FF25EBH   LINE      CODE     ---       #58
      00FF2608H   LINE      CODE     ---       #59
      00FF2613H   LINE      CODE     ---       #60
      00FF2620H   LINE      CODE     ---       #61
      00FF262DH   LINE      CODE     ---       #62
      00FF263AH   LINE      CODE     ---       #63
      00FF2647H   LINE      CODE     ---       #64
      00FF266BH   LINE      CODE     ---       #65
      00FF266DH   LINE      CODE     ---       #66
      00FF2670H   LINE      CODE     ---       #67
      ---         BLOCKEND  ---      ---       LVL=0

      00FF2673H   BLOCK     CODE     ---       LVL=0
      00FF2673H   LINE      CODE     ---       #70
      00FF2675H   LINE      CODE     ---       #72
      00FF267FH   LINE      CODE     ---       #74
      00FF2689H   LINE      CODE     ---       #75
      00FF268FH   LINE      CODE     ---       #77
      00FF2695H   LINE      CODE     ---       #78
      00FF2699H   LINE      CODE     ---       #79
      00FF269BH   LINE      CODE     ---       #83
      00FF26BFH   LINE      CODE     ---       #85
      00FF26C7H   LINE      CODE     ---       #86
      00FF26D1H   LINE      CODE     ---       #87
      00FF26D1H   LINE      CODE     ---       #89
      00FF26D9H   LINE      CODE     ---       #90
      00FF26DEH   LINE      CODE     ---       #92
      00FF274BH   LINE      CODE     ---       #93
      00FF2769H   LINE      CODE     ---       #95
      00FF2773H   LINE      CODE     ---       #96
      00FF277BH   LINE      CODE     ---       #97
      00FF2783H   LINE      CODE     ---       #98
      00FF278FH   LINE      CODE     ---       #99
      00FF2795H   LINE      CODE     ---       #100
      00FF2799H   LINE      CODE     ---       #101
      00FF279BH   LINE      CODE     ---       #104
      00FF27A1H   LINE      CODE     ---       #105
      00FF27A9H   LINE      CODE     ---       #106
      00FF27B1H   LINE      CODE     ---       #107
      00FF27B9H   LINE      CODE     ---       #108
      00FF27BFH   LINE      CODE     ---       #109
      00FF27C7H   LINE      CODE     ---       #110
      00FF27C7H   LINE      CODE     ---       #111
      ---         BLOCKEND  ---      ---       LVL=0

      00FF28FDH   BLOCK     CODE     ---       LVL=0
      00FF28FDH   LINE      CODE     ---       #113
      00FF28FFH   LINE      CODE     ---       #116
      00FF2907H   LINE      CODE     ---       #117
      00FF2911H   LINE      CODE     ---       #121
      00FF2922H   LINE      CODE     ---       #122
      00FF2942H   LINE      CODE     ---       #125
      00FF294DH   LINE      CODE     ---       #127
      00FF2982H   LINE      CODE     ---       #128
      00FF29B0H   LINE      CODE     ---       #130
      00FF29B2H   LINE      CODE     ---       #133
      00FF29E9H   LINE      CODE     ---       #134
      00FF2A15H   LINE      CODE     ---       #136
      00FF2A15H   LINE      CODE     ---       #137
      00FF2A20H   LINE      CODE     ---       #138
      ---         BLOCKEND  ---      ---       LVL=0

      ---         MODULE    ---      ---       barrier
      0000041FH   PUBLIC    EDATA    FLOAT     angle
      00000423H   PUBLIC    EDATA    INT       adc_rm
L251 LINKER/LOCATER V4.66.93.0                                                        07/16/2023  18:44:38  PAGE 72


      00000425H   PUBLIC    EDATA    INT       barrier_time
      00000020H.7 PUBLIC    BIT      BIT       barrier_in
      00000021H.0 PUBLIC    BIT      BIT       barrier_out
      00000021H.1 PUBLIC    BIT      BIT       barrier_forward
      00000021H.2 PUBLIC    BIT      BIT       barrier_back
      000000D0H   SFRSYM    DATA     BYTE      PSW
      00000088H   SFRSYM    DATA     BYTE      TCON
      00000098H   SFRSYM    DATA     BYTE      SCON
      000000B8H   SFRSYM    DATA     BYTE      IP
      000000A8H   SFRSYM    DATA     BYTE      IE
      000000F8H   SFRSYM    DATA     BYTE      P7
      000000E8H   SFRSYM    DATA     BYTE      P6
      000000C8H   SFRSYM    DATA     BYTE      P5
      000000C0H   SFRSYM    DATA     BYTE      P4
      000000B0H   SFRSYM    DATA     BYTE      P3
      000000A0H   SFRSYM    DATA     BYTE      P2
      00000090H   SFRSYM    DATA     BYTE      P1
      00000080H   SFRSYM    DATA     BYTE      P0

      ---         MODULE    ---      ---       garage
      00FF2C2FH   PUBLIC    CODE     ---       Garage_in
      00FF358EH   PUBLIC    CODE     ---       Garage_out
      000000D0H   SFRSYM    DATA     BYTE      PSW
      00000088H   SFRSYM    DATA     BYTE      TCON
      00000098H   SFRSYM    DATA     BYTE      SCON
      000000B8H   SFRSYM    DATA     BYTE      IP
      000000A8H   SFRSYM    DATA     BYTE      IE
      000000F8H   SFRSYM    DATA     BYTE      P7
      000000E8H   SFRSYM    DATA     BYTE      P6
      000000C8H   SFRSYM    DATA     BYTE      P5
      000000C0H   SFRSYM    DATA     BYTE      P4
      000000B0H   SFRSYM    DATA     BYTE      P3
      000000A0H   SFRSYM    DATA     BYTE      P2
      00000090H   SFRSYM    DATA     BYTE      P1
      00000080H   SFRSYM    DATA     BYTE      P0

      00FF358EH   BLOCK     CODE     ---       LVL=0
      00FF358EH   LINE      CODE     ---       #7
      00FF358EH   LINE      CODE     ---       #10
      00FF3599H   LINE      CODE     ---       #11
      00FF35A4H   LINE      CODE     ---       #12
      00FF35AFH   LINE      CODE     ---       #13
      00FF35B6H   LINE      CODE     ---       #15
      00FF35C1H   LINE      CODE     ---       #16
      00FF35CCH   LINE      CODE     ---       #17
      00FF35D7H   LINE      CODE     ---       #18
      00FF35DEH   LINE      CODE     ---       #19
      00FF35E0H   LINE      CODE     ---       #20
      ---         BLOCKEND  ---      ---       LVL=0

      00FF2C2FH   BLOCK     CODE     ---       LVL=0
      00FF2C2FH   LINE      CODE     ---       #50
      00FF2C2FH   LINE      CODE     ---       #53
      00FF2C3AH   LINE      CODE     ---       #54
      00FF2C43H   LINE      CODE     ---       #55
      00FF2C4CH   LINE      CODE     ---       #57
      00FF2C57H   LINE      CODE     ---       #58
      00FF2C62H   LINE      CODE     ---       #59
      00FF2C6DH   LINE      CODE     ---       #60
      00FF2C74H   LINE      CODE     ---       #62
      00FF2C7FH   LINE      CODE     ---       #63
      00FF2C8AH   LINE      CODE     ---       #64
      00FF2C95H   LINE      CODE     ---       #65
      00FF2C9CH   LINE      CODE     ---       #67
      00FF2CA7H   LINE      CODE     ---       #68
L251 LINKER/LOCATER V4.66.93.0                                                        07/16/2023  18:44:38  PAGE 73


      00FF2CB2H   LINE      CODE     ---       #69
      00FF2CBDH   LINE      CODE     ---       #70
      00FF2CC4H   LINE      CODE     ---       #72
      00FF2CCFH   LINE      CODE     ---       #73
      00FF2CD8H   LINE      CODE     ---       #74
      00FF2CE3H   LINE      CODE     ---       #75
      00FF2CEEH   LINE      CODE     ---       #76
      00FF2CF7H   LINE      CODE     ---       #77
      00FF2CFEH   LINE      CODE     ---       #79
      00FF2D09H   LINE      CODE     ---       #80
      00FF2D12H   LINE      CODE     ---       #81
      00FF2D1BH   LINE      CODE     ---       #82
      00FF2D24H   LINE      CODE     ---       #83
      00FF2D2DH   LINE      CODE     ---       #84
      ---         BLOCKEND  ---      ---       LVL=0

      ---         MODULE    ---      ---       circle
      00FF2B2AH   PUBLIC    CODE     ---       circle_move
      00FF2FA2H   PUBLIC    CODE     ---       circle_judge
      00000021H.3 PUBLIC    BIT      BIT       servos_flag_move
      00000021H.4 PUBLIC    BIT      BIT       servos_flag_in
      00000021H.5 PUBLIC    BIT      BIT       servos_flag_out
      000000D0H   SFRSYM    DATA     BYTE      PSW
      00000088H   SFRSYM    DATA     BYTE      TCON
      000000C8H.0 SFRSYM    DATA     BIT       P50
      00000098H   SFRSYM    DATA     BYTE      SCON
      000000B8H   SFRSYM    DATA     BYTE      IP
      000000A8H   SFRSYM    DATA     BYTE      IE
      000000F8H   SFRSYM    DATA     BYTE      P7
      000000E8H   SFRSYM    DATA     BYTE      P6
      000000C8H   SFRSYM    DATA     BYTE      P5
      000000C0H   SFRSYM    DATA     BYTE      P4
      000000B0H   SFRSYM    DATA     BYTE      P3
      000000A0H   SFRSYM    DATA     BYTE      P2
      00000090H   SFRSYM    DATA     BYTE      P1
      00000080H   SFRSYM    DATA     BYTE      P0

      00FF2FA2H   BLOCK     CODE     ---       LVL=0
      00FF2FA2H   LINE      CODE     ---       #22
      00FF2FA2H   LINE      CODE     ---       #24
      00FF2FC9H   LINE      CODE     ---       #26
      00FF2FCBH   LINE      CODE     ---       #27
      00FF2FE6H   LINE      CODE     ---       #28
      00FF2FE6H   LINE      CODE     ---       #29
      00FF2FF6H   LINE      CODE     ---       #31
      00FF2FF8H   LINE      CODE     ---       #32
      00FF2FFEH   LINE      CODE     ---       #33
      00FF3000H   LINE      CODE     ---       #34
      00FF3000H   LINE      CODE     ---       #35
      00FF3017H   LINE      CODE     ---       #36
      00FF3019H   LINE      CODE     ---       #37
      00FF304CH   LINE      CODE     ---       #39
      00FF3052H   LINE      CODE     ---       #40
      00FF3054H   LINE      CODE     ---       #41
      ---         BLOCKEND  ---      ---       LVL=0

      00FF2B2AH   BLOCK     CODE     ---       LVL=0
      00FF2B2AH   LINE      CODE     ---       #44
      00FF2B2CH   LINE      CODE     ---       #46
      00FF2B33H   LINE      CODE     ---       #48
      00FF2B3DH   LINE      CODE     ---       #50
      00FF2B43H   LINE      CODE     ---       #51
      00FF2B47H   LINE      CODE     ---       #52
      00FF2B49H   LINE      CODE     ---       #53
      00FF2B4BH   LINE      CODE     ---       #54
L251 LINKER/LOCATER V4.66.93.0                                                        07/16/2023  18:44:38  PAGE 74


      00FF2B4DH   LINE      CODE     ---       #55
      00FF2B57H   LINE      CODE     ---       #56
      00FF2B5AH   LINE      CODE     ---       #57
      00FF2B60H   LINE      CODE     ---       #58
      00FF2B62H   LINE      CODE     ---       #60
      00FF2B77H   LINE      CODE     ---       #61
      00FF2B7AH   LINE      CODE     ---       #62
      00FF2B81H   LINE      CODE     ---       #64
      00FF2BECH   LINE      CODE     ---       #65
      00FF2BEEH   LINE      CODE     ---       #68
      00FF2BF4H   LINE      CODE     ---       #69
      00FF2C0FH   LINE      CODE     ---       #71
      00FF2C2CH   LINE      CODE     ---       #72
      00FF2C2CH   LINE      CODE     ---       #73
      ---         BLOCKEND  ---      ---       LVL=0

      ---         MODULE    ---      ---       ?C?FPADD
      00FF0EB4H   PUBLIC    CODE     ---       ?C?FPADD
      00FF0EB1H   PUBLIC    CODE     ---       ?C?FPSUB

      ---         MODULE    ---      ---       ?C?FPMUL
      00FF0F6CH   PUBLIC    CODE     ---       ?C?FPMUL

      ---         MODULE    ---      ---       ?C?FPDIV
      00FF100CH   PUBLIC    CODE     ---       ?C?FPDIV

      ---         MODULE    ---      ---       ?C?FPCMP
      00FF108FH   PUBLIC    CODE     ---       ?C?FPCMP
      00FF108DH   PUBLIC    CODE     ---       ?C?FPCMP3

      ---         MODULE    ---      ---       ?C?FPNEG
      00FF10D3H   PUBLIC    CODE     ---       ?C?FPNEG

      ---         MODULE    ---      ---       ?C?FCAST
      00FF10EBH   PUBLIC    CODE     NEAR LAB  ?C?FCASTC
      00FF10E6H   PUBLIC    CODE     NEAR LAB  ?C?FCASTI
      00FF10E1H   PUBLIC    CODE     NEAR LAB  ?C?FCASTL

      ---         MODULE    ---      ---       ?C?CASTF
      00FF111EH   PUBLIC    CODE     NEAR LAB  ?C?CASTF

      ---         MODULE    ---      ---       PRINTF
      00FF115BH   PUBLIC    CODE     NEAR LAB  PRINTF

      ---         MODULE    ---      ---       ?C?FPGETOPN
      00FF1187H   PUBLIC    CODE     ---       ?C?FPGETOPN2
      00FF11C4H   PUBLIC    CODE     ---       ?C?FPNANRESULT
      00FF11CCH   PUBLIC    CODE     ---       ?C?FPOVERFLOW
      00FF11A0H   PUBLIC    CODE     ---       ?C?FPRESULT
      00FF11B6H   PUBLIC    CODE     ---       ?C?FPRESULT2
      00FF11C9H   PUBLIC    CODE     ---       ?C?FPUNDERFLOW

      ---         MODULE    ---      ---       ?C?PRNFMT
      00FF1205H   PUBLIC    CODE     ---       ?C?PRNFMT

      ---         MODULE    ---      ---       ?C?FPCONVERT
      00FF1622H   PUBLIC    CODE     ---       ?C?FPCONVERT
      00FF16DAH   PUBLIC    CODE     ---       ?C?FPROUND

      ---         MODULE    ---      ---       ?C?FTNPWR
      00FF174DH   PUBLIC    CODE     ---       ?C?FTNPWR

      ---         MODULE    ---      ---       ?C_START
      00FF0000H   PUBLIC    CODE     ---       ?C?STARTUP
      00FF0000H   PUBLIC    CODE     ---       ?C_STARTUP
L251 LINKER/LOCATER V4.66.93.0                                                        07/16/2023  18:44:38  PAGE 75



      ---         MODULE    ---      ---       ?C?INITEDATA
      00FF33B5H   PUBLIC    CODE     ---       ?C?INITEDATA

      ---         MODULE    ---      ---       ?C?SIDIV
      00FF1784H   PUBLIC    CODE     ---       ?C?SIDIV

      ---         MODULE    ---      ---       ?C?LMUL
      00FF17B6H   PUBLIC    CODE     ---       ?C?LMUL

      ---         MODULE    ---      ---       ?C?LIMUL
      00FF17C7H   PUBLIC    CODE     ---       ?C?LIMUL

      ---         MODULE    ---      ---       ?C?ULDIV
      00FF17D2H   PUBLIC    CODE     NEAR LAB  ?C?ULDIV
      00FF17D0H   PUBLIC    CODE     NEAR LAB  ?C?ULIDIV

      ---         MODULE    ---      ---       ?C?SLDIV
      00FF1823H   PUBLIC    CODE     NEAR LAB  ?C?SLDIV

      ---         MODULE    ---      ---       memcpy
      00FF3CFEH   PUBLIC    CODE     ---       memcpy?_

      ---         MODULE    ---      ---       memset

      ---         MODULE    ---      ---       ?C?INITEDATA_END
      00FF406AH   PUBLIC    HCONST   WORD      ?C?INITEDATA_END

Program Size: data=9.6 edata+hdata=1375 xdata=0 const=297 code=16307
L251 RUN COMPLETE.  0 WARNING(S),  0 ERROR(S)
