L251 LINKER/LOCATER V4.66.93.0                                                          11/16/2023  12:01:34  PAGE 1


L251 LINKER/LOCATER V4.66.93.0, INVOKED BY:
D:\KEIL5\KEIL5_MDK\KEIL5_MDK_32\C251\BIN\L251.EXE .\Out_File\board.obj, .\Out_File\common.obj, .\Out_File\SEEKFREE_PRINT
>> F.obj, .\Out_File\zf_adc.obj, .\Out_File\zf_delay.obj, .\Out_File\zf_eeprom.obj, .\Out_File\zf_exti.obj, .\Out_File\z
>> f_gpio.obj, .\Out_File\zf_iic.obj, .\Out_File\zf_nvic.obj, .\Out_File\zf_pwm.obj, .\Out_File\zf_spi.obj, .\Out_File\z
>> f_tim.obj, .\Out_File\zf_uart.obj, .\Out_File\zf_fifo.obj, .\Out_File\SEEKFREE_18TFT.obj, .\Out_File\SEEKFREE_ABSOLUT
>> E_ENCODER.obj, .\Out_File\SEEKFREE_FONT.obj, .\Out_File\SEEKFREE_ICM20602.obj, .\Out_File\SEEKFREE_IIC.obj, .\Out_Fil
>> e\SEEKFREE_IPS114_SPI.obj, .\Out_File\SEEKFREE_MPU6050.obj, .\Out_File\SEEKFREE_OLED.obj, .\Out_File\SEEKFREE_TSL1401
>> .obj, .\Out_File\SEEKFREE_VIRSCO.obj, .\Out_File\SEEKFREE_WIRELESS.obj, .\Out_File\SEEKFREE_AT24C02.obj, .\Out_File\S
>> EEKFREE_BLUETOOTH_CH9141.obj, .\Out_File\SEEKFREE_WIRELESS_CH573.obj, .\Out_File\isr.obj, .\Out_File\main.obj TO .\Ou
>> t_File\SEEKFREE PRINT (.\Out_File\SEEKFREE.map) CASE DISABLEWARNING (16, 57) REMOVEUNUSED CLASSES (EDATA (0X0-0XFFF),
>>  HDATA (0X0-0XFFF))


CPU MODE:     251 SOURCE MODE
INTR FRAME:   2 BYTES SAVED ON INTERRUPT
MEMORY MODEL: XSMALL WITH FLOATING POINT ARITHMETIC


INPUT MODULES INCLUDED:
  .\Out_File\board.obj (board)
         COMMENT TYPE 0: C251 V5.60.0
  .\Out_File\common.obj (common)
         COMMENT TYPE 0: C251 V5.60.0
  .\Out_File\SEEKFREE_PRINTF.obj (SEEKFREE_PRINTF)
         COMMENT TYPE 0: C251 V5.60.0
  .\Out_File\zf_adc.obj (zf_adc)
         COMMENT TYPE 0: C251 V5.60.0
  .\Out_File\zf_delay.obj (zf_delay)
         COMMENT TYPE 0: C251 V5.60.0
  .\Out_File\zf_eeprom.obj (zf_eeprom)
         COMMENT TYPE 0: C251 V5.60.0
  .\Out_File\zf_exti.obj (zf_exti)
         COMMENT TYPE 0: C251 V5.60.0
  .\Out_File\zf_gpio.obj (zf_gpio)
         COMMENT TYPE 0: C251 V5.60.0
  .\Out_File\zf_iic.obj (zf_iic)
         COMMENT TYPE 0: C251 V5.60.0
  .\Out_File\zf_nvic.obj (zf_nvic)
         COMMENT TYPE 0: C251 V5.60.0
  .\Out_File\zf_pwm.obj (zf_pwm)
         COMMENT TYPE 0: C251 V5.60.0
  .\Out_File\zf_spi.obj (zf_spi)
         COMMENT TYPE 0: C251 V5.60.0
  .\Out_File\zf_tim.obj (zf_tim)
         COMMENT TYPE 0: C251 V5.60.0
  .\Out_File\zf_uart.obj (zf_uart)
         COMMENT TYPE 0: C251 V5.60.0
  .\Out_File\zf_fifo.obj (zf_fifo)
         COMMENT TYPE 0: C251 V5.60.0
  .\Out_File\SEEKFREE_18TFT.obj (SEEKFREE_18TFT)
         COMMENT TYPE 0: C251 V5.60.0
  .\Out_File\SEEKFREE_ABSOLUTE_ENCODER.obj (SEEKFREE_ABSOLUTE_ENCODER)
         COMMENT TYPE 0: C251 V5.60.0
  .\Out_File\SEEKFREE_FONT.obj (SEEKFREE_FONT)
         COMMENT TYPE 0: C251 V5.60.0
  .\Out_File\SEEKFREE_ICM20602.obj (SEEKFREE_ICM20602)
         COMMENT TYPE 0: C251 V5.60.0
  .\Out_File\SEEKFREE_IIC.obj (SEEKFREE_IIC)
         COMMENT TYPE 0: C251 V5.60.0
  .\Out_File\SEEKFREE_IPS114_SPI.obj (SEEKFREE_IPS114_SPI)
         COMMENT TYPE 0: C251 V5.60.0
  .\Out_File\SEEKFREE_MPU6050.obj (SEEKFREE_MPU6050)
         COMMENT TYPE 0: C251 V5.60.0
  .\Out_File\SEEKFREE_OLED.obj (SEEKFREE_OLED)
         COMMENT TYPE 0: C251 V5.60.0
  .\Out_File\SEEKFREE_TSL1401.obj (SEEKFREE_TSL1401)
L251 LINKER/LOCATER V4.66.93.0                                                        11/16/2023  12:01:34  PAGE 2


         COMMENT TYPE 0: C251 V5.60.0
  .\Out_File\SEEKFREE_VIRSCO.obj (SEEKFREE_VIRSCO)
         COMMENT TYPE 0: C251 V5.60.0
  .\Out_File\SEEKFREE_WIRELESS.obj (SEEKFREE_WIRELESS)
         COMMENT TYPE 0: C251 V5.60.0
  .\Out_File\SEEKFREE_AT24C02.obj (SEEKFREE_AT24C02)
         COMMENT TYPE 0: C251 V5.60.0
  .\Out_File\SEEKFREE_BLUETOOTH_CH9141.obj (SEEKFREE_BLUETOOTH_CH9141)
         COMMENT TYPE 0: C251 V5.60.0
  .\Out_File\SEEKFREE_WIRELESS_CH573.obj (SEEKFREE_WIRELESS_CH573)
         COMMENT TYPE 0: C251 V5.60.0
  .\Out_File\isr.obj (isr)
         COMMENT TYPE 0: C251 V5.60.0
  .\Out_File\main.obj (main)
         COMMENT TYPE 0: C251 V5.60.0
  D:\KEIL5\KEIL5_MDK\KEIL5_MDK_32\C251\LIB\C2SFPXS.LIB (?C?FPADD)
         COMMENT TYPE 0: A251 V4.69.6.0
  D:\KEIL5\KEIL5_MDK\KEIL5_MDK_32\C251\LIB\C2SFPXS.LIB (?C?FPMUL)
         COMMENT TYPE 0: A251 V4.69.6.0
  D:\KEIL5\KEIL5_MDK\KEIL5_MDK_32\C251\LIB\C2SFPXS.LIB (?C?FPDIV)
         COMMENT TYPE 0: A251 V4.69.6.0
  D:\KEIL5\KEIL5_MDK\KEIL5_MDK_32\C251\LIB\C2SFPXS.LIB (?C?FPCMP)
         COMMENT TYPE 0: A251 V4.69.6.0
  D:\KEIL5\KEIL5_MDK\KEIL5_MDK_32\C251\LIB\C2SFPXS.LIB (?C?FCAST)
         COMMENT TYPE 0: A251 V4.69.6.0
  D:\KEIL5\KEIL5_MDK\KEIL5_MDK_32\C251\LIB\C2SFPXS.LIB (?C?CASTF)
         COMMENT TYPE 0: A251 V4.69.6.0
  D:\KEIL5\KEIL5_MDK\KEIL5_MDK_32\C251\LIB\C2SFPXS.LIB (?C?FPGETOPN)
         COMMENT TYPE 0: A251 V4.69.6.0
  D:\KEIL5\KEIL5_MDK\KEIL5_MDK_32\C251\LIB\C2SXS.LIB (?C_START)
         COMMENT TYPE 0: A251 V4.69.6.0
  D:\KEIL5\KEIL5_MDK\KEIL5_MDK_32\C251\LIB\C2SXS.LIB (?C?INITEDATA)
         COMMENT TYPE 0: A251 V4.69.6.0
  D:\KEIL5\KEIL5_MDK\KEIL5_MDK_32\C251\LIB\C2SXS.LIB (?C?SIDIV)
         COMMENT TYPE 0: A251 V4.69.6.0
  D:\KEIL5\KEIL5_MDK\KEIL5_MDK_32\C251\LIB\C2SXS.LIB (?C?ULDIV)
         COMMENT TYPE 0: A251 V4.69.6.0
  D:\KEIL5\KEIL5_MDK\KEIL5_MDK_32\C251\LIB\C2SXS.LIB (?C?SLDIV)
         COMMENT TYPE 0: A251 V4.69.6.0
  D:\KEIL5\KEIL5_MDK\KEIL5_MDK_32\C251\LIB\C2SXS.LIB (memcpy)
         COMMENT TYPE 0: C251 V5.58.7
  D:\KEIL5\KEIL5_MDK\KEIL5_MDK_32\C251\LIB\C2SXS.LIB (?C?INITEDATA_END)
         COMMENT TYPE 0: A251 V4.69.6.0


ACTIVE MEMORY CLASSES OF MODULE:  .\Out_File\SEEKFREE (board)

BASE        START       END         USED      MEMORY CLASS
==========================================================
000000H     000000H     000FFFH     000498H   EDATA
000000H     000000H     000FFFH               HDATA
FF0000H     FF0000H     FFFFFFH     0027C0H   CODE
000000H     FF0000H     FFFFFFH     00009EH   HCONST
000000H     000000H     00007FH     000008H   DATA


MEMORY MAP OF MODULE:  .\Out_File\SEEKFREE (board)


START     STOP      LENGTH    ALIGN  RELOC    MEMORY CLASS   SEGMENT NAME
=========================================================================
000000H   000007H   000008H   ---    AT..     DATA           "REG BANK 0"
000008H   000108H   000101H   BYTE   UNIT     EDATA          ?ED?SEEKFREE_TSL1401
000109H   0001D5H   0000CDH   BYTE   UNIT     EDATA          ?ED?ZF_UART
0001D6H   00026CH   000097H   BYTE   UNIT     EDATA          _EDATA_GROUP_
L251 LINKER/LOCATER V4.66.93.0                                                        11/16/2023  12:01:34  PAGE 3


00026DH   0002C1H   000055H   BYTE   UNIT     EDATA          ?ED?SEEKFREE_WIRELESS
0002C2H   000316H   000055H   BYTE   UNIT     EDATA          ?ED?SEEKFREE_BLUETOOTH_CH9141
000317H   00036BH   000055H   BYTE   UNIT     EDATA          ?ED?SEEKFREE_WIRELESS_CH573
00036CH   000377H   00000CH   BYTE   UNIT     EDATA          ?ED?SEEKFREE_ICM20602
000378H   000383H   00000CH   BYTE   UNIT     EDATA          ?ED?SEEKFREE_MPU6050
000384H   00038DH   00000AH   BYTE   UNIT     EDATA          ?ED?SEEKFREE_VIRSCO
00038EH   000394H   000007H   BYTE   UNIT     EDATA          ?ED?SEEKFREE_IIC
000395H   000398H   000004H   BYTE   UNIT     EDATA          ?ED?BOARD
000399H   00039CH   000004H   BYTE   UNIT     EDATA          ?ED?ZF_DELAY
00039DH   00039EH   000002H   BYTE   UNIT     EDATA          ?ED?COMMON
00039FH   00039FH   000001H   BYTE   UNIT     EDATA          ?ED?ISR
0003A0H   00049FH   000100H   BYTE   UNIT     EDATA          ?STACK
0004A0H   FEFFFFH   FEFB60H   ---    ---      **GAP**
FF0000H   FF0002H   000003H   ---    OFFS..   CODE           ?CO?start251?4
FF0003H   FF0005H   000003H   ---    OFFS..   CODE           ?PR?IV?0
FF0006H   FF0008H   000003H   BYTE   INSEG    CODE           ?PR?ENABLEGLOBALIRQ?BOARD
FF0009H   FF0009H   000001H   BYTE   INSEG    CODE           ?PR?INT1_ISR?ISR
FF000AH   FF000AH   000001H   BYTE   INSEG    CODE           ?PR?TM0_ISR?ISR
FF000BH   FF000DH   000003H   ---    OFFS..   CODE           ?PR?IV?1
FF000EH   FF0010H   000003H   BYTE   INSEG    CODE           ?PR?DISABLEGLOBALIRQ?BOARD
FF0011H   FF0011H   000001H   BYTE   INSEG    CODE           ?PR?TM1_ISR?ISR
FF0012H   FF0012H   000001H   ---    ---      **GAP**
FF0013H   FF0015H   000003H   ---    OFFS..   CODE           ?PR?IV?2
FF0016H   FF001AH   000005H   ---    ---      **GAP**
FF001BH   FF001DH   000003H   ---    OFFS..   CODE           ?PR?IV?3
FF001EH   FF0022H   000005H   ---    ---      **GAP**
FF0023H   FF0025H   000003H   ---    OFFS..   CODE           ?PR?IV?4
FF0026H   FF003EH   000019H   BYTE   INSEG    CODE           ?PR?WIRELESS_UART_CALLBACK?SEEKFREE_WIRELESS
FF003FH   FF0042H   000004H   ---    ---      **GAP**
FF0043H   FF0045H   000003H   ---    OFFS..   CODE           ?PR?IV?8
FF0046H   FF004FH   00000AH   BYTE   INSEG    CODE           ?PR?IPS114_WRITEINDEX?SEEKFREE_IPS114_SPI
FF0050H   FF0052H   000003H   ---    ---      **GAP**
FF0053H   FF0055H   000003H   ---    OFFS..   CODE           ?PR?IV?10
FF0056H   FF005AH   000005H   ---    ---      **GAP**
FF005BH   FF005DH   000003H   ---    OFFS..   CODE           ?PR?IV?11
FF005EH   FF0062H   000005H   ---    ---      **GAP**
FF0063H   FF0065H   000003H   ---    OFFS..   CODE           ?PR?IV?12
FF0066H   FF007EH   000019H   BYTE   INSEG    CODE           ?PR?BLUETOOTH_CH9141_UART_CALLBACK?SEEKFREE_BLUETOOTH_CH91
                                                             -41
FF007FH   FF0082H   000004H   ---    ---      **GAP**
FF0083H   FF0085H   000003H   ---    OFFS..   CODE           ?PR?IV?16
FF0086H   FF008AH   000005H   ---    ---      **GAP**
FF008BH   FF008DH   000003H   ---    OFFS..   CODE           ?PR?IV?17
FF008EH   FF0092H   000005H   ---    ---      **GAP**
FF0093H   FF0095H   000003H   ---    OFFS..   CODE           ?PR?IV?18
FF0096H   FF009AH   000005H   ---    ---      **GAP**
FF009BH   FF009DH   000003H   ---    OFFS..   CODE           ?PR?IV?19
FF009EH   FF00A2H   000005H   ---    ---      **GAP**
FF00A3H   FF00A5H   000003H   ---    OFFS..   CODE           ?PR?IV?20
FF00A6H   FF0EADH   000E08H   BYTE   UNIT     CODE           ?CO?SEEKFREE_FONT
FF0EAEH   FF13A7H   0004FAH   BYTE   INSEG    CODE           ?PR?ZF_SPRINTF?SEEKFREE_PRINTF
FF13A8H   FF179EH   0003F7H   BYTE   INSEG    CODE           ?PR?GPIO_MODE?ZF_GPIO
FF179FH   FF1B47H   0003A9H   BYTE   UNIT     CODE           ?C?LIB_CODE
FF1B48H   FF1D06H   0001BFH   BYTE   INSEG    CODE           ?PR?UART_INIT?ZF_UART
FF1D07H   FF1E73H   00016DH   BYTE   INSEG    CODE           ?PR?IPS114_INIT?SEEKFREE_IPS114_SPI
FF1E74H   FF1F6BH   0000F8H   BYTE   INSEG    CODE           ?PR?IPS114_SHOWFLOAT?SEEKFREE_IPS114_SPI
FF1F6CH   FF204BH   0000E0H   BYTE   INSEG    CODE           ?PR?FIFO_WRITE_BUFFER?ZF_FIFO
FF204CH   FF212AH   0000DFH   BYTE   INSEG    CODE           ?PR?SPI_INIT?ZF_SPI
FF212BH   FF21D6H   0000ACH   BYTE   INSEG    CODE           ?PR?MAIN?MAIN
FF21D7H   FF2268H   000092H   BYTE   INSEG    CODE           ?PR?NUMBER_CONVERSION_ASCII?SEEKFREE_PRINTF
FF2269H   FF22F6H   00008EH   BYTE   INSEG    CODE           ?PR?IPS114_SHOWCHAR?SEEKFREE_IPS114_SPI
FF22F7H   FF2381H   00008BH   BYTE   INSEG    CODE           ?PR?IPS114_SHOWUINT16?SEEKFREE_IPS114_SPI
FF2382H   FF2403H   000082H   BYTE   INSEG    CODE           ?PR?IPS114_SHOWINT32?SEEKFREE_IPS114_SPI
FF2404H   FF2484H   000081H   BYTE   INSEG    CODE           ?PR?BOARD_INIT?BOARD
FF2485H   FF24EDH   000069H   BYTE   INSEG    CODE           ?PR?UART4_ISR?ISR
L251 LINKER/LOCATER V4.66.93.0                                                        11/16/2023  12:01:34  PAGE 4


FF24EEH   FF253BH   00004EH   BYTE   INSEG    CODE           ?PR?IPS114_SHOWSTR?SEEKFREE_IPS114_SPI
FF253CH   FF2583H   000048H   BYTE   INSEG    CODE           ?PR?IPS114_SET_REGION?SEEKFREE_IPS114_SPI
FF2584H   FF25C5H   000042H   BYTE   INSEG    CODE           ?PR?FIFO_HEAD_OFFSET?ZF_FIFO
FF25C6H   FF25D8H   000013H   BYTE   UNIT     CODE           ?C_C51STARTUP
FF25D9H   FF2601H   000029H   BYTE   UNIT     CODE           ?C_C51STARTUP?2
FF2602H   FF2604H   000003H   BYTE   UNIT     CODE           ?C_C51STARTUP?3
FF2605H   FF2642H   00003EH   BYTE   INSEG    CODE           ?PR?PRINTF_REVERSE_ORDER?SEEKFREE_PRINTF
FF2643H   FF267FH   00003DH   BYTE   INSEG    CODE           ?PR?UART1_ISR?ISR
FF2680H   FF26BBH   00003CH   BYTE   INSEG    CODE           ?PR?IPS114_CLEAR?SEEKFREE_IPS114_SPI
FF26BCH   FF26F4H   000039H   BYTE   INSEG    CODE           ?PR?DELAY_INIT?ZF_DELAY
FF26F5H   FF2719H   000025H   BYTE   INSEG    CODE           ?PR?MEMCPY?_?MEMCPY
FF271AH   FF2738H   00001FH   BYTE   INSEG    CODE           ?PR?IPS114_WRITEDATA_16BIT?SEEKFREE_IPS114_SPI
FF2739H   FF2756H   00001EH   BYTE   INSEG    CODE           ?PR?UART2_ISR?ISR
FF2757H   FF2774H   00001EH   BYTE   INSEG    CODE           ?PR?UART3_ISR?ISR
FF2775H   FF278DH   000019H   BYTE   INSEG    CODE           ?PR?WIRELESS_CH573_CALLBACK?SEEKFREE_WIRELESS_CH573
FF278EH   FF27A4H   000017H   BYTE   INSEG    CODE           ?PR?DELAY_MS?ZF_DELAY
FF27A5H   FF27B2H   00000EH   BYTE   INSEG    CODE           ?PR?SPI_MOSI?ZF_SPI
FF27B3H   FF27BCH   00000AH   BYTE   INSEG    CODE           ?PR?IPS114_WRITEDATA?SEEKFREE_IPS114_SPI
FF27BDH   FF27C4H   000008H   BYTE   INSEG    CODE           ?PR?INT2_ISR?ISR
FF27C5H   FF27CCH   000008H   BYTE   INSEG    CODE           ?PR?INT3_ISR?ISR
FF27CDH   FF27D4H   000008H   BYTE   INSEG    CODE           ?PR?INT4_ISR?ISR
FF27D5H   FF27DCH   000008H   BYTE   INSEG    CODE           ?PR?TM2_ISR?ISR
FF27DDH   FF27E4H   000008H   BYTE   INSEG    CODE           ?PR?TM3_ISR?ISR
FF27E5H   FF27ECH   000008H   BYTE   INSEG    CODE           ?PR?TM4_ISR?ISR
FF27EDH   FF27F3H   000007H   BYTE   INSEG    CODE           ?PR?INT0_ISR?ISR
FF27F4H   FF284BH   000058H   BYTE   UNIT     HCONST         ?HC?ZF_PWM
FF284CH   FF2867H   00001CH   BYTE   UNIT     HCONST         ?C_INITEDATA
FF2868H   FF287BH   000014H   BYTE   UNIT     HCONST         ?HC?MAIN
FF287CH   FF2885H   00000AH   BYTE   UNIT     HCONST         ?HC?SEEKFREE_OLED
FF2886H   FF288BH   000006H   BYTE   UNIT     HCONST         ?HC?SEEKFREE_18TFT
FF288CH   FF2891H   000006H   BYTE   UNIT     HCONST         ?HC?SEEKFREE_IPS114_SPI

* * * * * * * * *   R E M O V E D     S E G M E N T S   * * * * * * * *
   *DEL*:           00000EH   BYTE   INSEG    CODE           ?PR?PUTCHAR?BOARD
   *DEL*:           00002EH   BYTE   INSEG    CODE           ?PR?ADC_ONCE?ZF_ADC
   *DEL*:           00005EH   BYTE   INSEG    CODE           ?PR?ADC_INIT?ZF_ADC
   *DEL*:           000019H   BYTE   INSEG    CODE           ?PR?DELAY_US?ZF_DELAY
   *DEL*:           000016H   BYTE   INSEG    CODE           ?PR?IAP_SET_TPS?ZF_EEPROM
   *DEL*:           000015H   BYTE   INSEG    CODE           ?PR?EEPROM_TRIG?ZF_EEPROM
   *DEL*:           00000EH   BYTE   INSEG    CODE           ?PR?IAP_ERASE_PAGE?ZF_EEPROM
   *DEL*:           000004H   BYTE   INSEG    CODE           ?PR?IAP_IDLE?ZF_EEPROM
   *DEL*:           000047H   BYTE   INSEG    CODE           ?PR?IAP_READ_BYTES?ZF_EEPROM
   *DEL*:           00006DH   BYTE   INSEG    CODE           ?PR?EXTERN_IAP_WRITE_BYTES?ZF_EEPROM
   *DEL*:           000006H   BYTE   INSEG    CODE           ?PR?IAP_INIT?ZF_EEPROM
   *DEL*:           000047H   BYTE   INSEG    CODE           ?PR?IAP_WRITE_BYTES?ZF_EEPROM
   *DEL*:           00000CH   BYTE   INSEG    CODE           ?PR?IAP_GET_CMD_STATE?ZF_EEPROM
   *DEL*:           000004H   BYTE   UNIT     EDATA          ?ED?IAP_READ_BYTES?ZF_EEPROM
   *DEL*:           000004H   BYTE   UNIT     EDATA          ?ED?IAP_WRITE_BYTES?ZF_EEPROM
   *DEL*:           000204H   BYTE   UNIT     EDATA          ?ED?EXTERN_IAP_WRITE_BYTES?ZF_EEPROM
   *DEL*:           00003EH   BYTE   INSEG    CODE           ?PR?EXIT_INIT?ZF_EXTI
   *DEL*:           00006EH   BYTE   INSEG    CODE           ?PR?GPIO_PULL_SET?ZF_GPIO
   *DEL*:           000017H   BYTE   INSEG    CODE           ?PR?SEND_DATA?ZF_IIC
   *DEL*:           00002FH   BYTE   INSEG    CODE           ?PR?IIC_CHANGE_PIN?ZF_IIC
   *DEL*:           00001CH   BYTE   INSEG    CODE           ?PR?RECV_DATA?ZF_IIC
   *DEL*:           000010H   BYTE   INSEG    CODE           ?PR?START?ZF_IIC
   *DEL*:           000045H   BYTE   INSEG    CODE           ?PR?WAIT?ZF_IIC
   *DEL*:           000018H   BYTE   INSEG    CODE           ?PR?SEND_ACK?ZF_IIC
   *DEL*:           000010H   BYTE   INSEG    CODE           ?PR?RECV_ACK?ZF_IIC
   *DEL*:           000010H   BYTE   INSEG    CODE           ?PR?STOP?ZF_IIC
   *DEL*:           000019H   BYTE   INSEG    CODE           ?PR?SEND_NAK?ZF_IIC
   *DEL*:           00005EH   BYTE   INSEG    CODE           ?PR?IIC_INIT?ZF_IIC
   *DEL*:           000075H   BYTE   INSEG    CODE           ?PR?IIC_READ_REG?ZF_IIC
   *DEL*:           00009CH   BYTE   INSEG    CODE           ?PR?IIC_READ_REG_BYTES?ZF_IIC
   *DEL*:           000060H   BYTE   INSEG    CODE           ?PR?IIC_WRITE_REG?ZF_IIC
   *DEL*:           000015H   BYTE   INSEG    CODE           ?PR?IIC_DELAY_US?ZF_IIC
L251 LINKER/LOCATER V4.66.93.0                                                        11/16/2023  12:01:34  PAGE 5


   *DEL*:           000004H   BYTE   UNIT     EDATA          ?ED?IIC_INIT?ZF_IIC
   *DEL*:           000004H   BYTE   UNIT     EDATA          ?ED?IIC_READ_REG?ZF_IIC
   *DEL*:           000003H   BYTE   UNIT     EDATA          ?ED?IIC_READ_REG_BYTES?ZF_IIC
   *DEL*:           00006CH   BYTE   INSEG    CODE           ?PR?NVIC_SETPRIORITY?ZF_NVIC
   *DEL*:           0000B8H   BYTE   INSEG    CODE           ?PR?PWM_DUTY?ZF_PWM
   *DEL*:           0002A1H   BYTE   INSEG    CODE           ?PR?PWM_SET_GPIO?ZF_PWM
   *DEL*:           000121H   BYTE   INSEG    CODE           ?PR?PWM_FREQ?ZF_PWM
   *DEL*:           0002E4H   BYTE   INSEG    CODE           ?PR?PWM_INIT?ZF_PWM
   *DEL*:           000008H   BYTE   UNIT     EDATA          ?ED?PWM_INIT?ZF_PWM
   *DEL*:           000004H   BYTE   UNIT     EDATA          ?ED?PWM_FREQ?ZF_PWM
   *DEL*:           00001DH   BYTE   INSEG    CODE           ?PR?SPI_CHANGE_MODE?ZF_SPI
   *DEL*:           0000AEH   BYTE   INSEG    CODE           ?PR?SPI_CHANGE_PIN?ZF_SPI
   *DEL*:           00004DH   BYTE   INSEG    CODE           ?PR?CTIMER_COUNT_READ?ZF_TIM
   *DEL*:           000094H   BYTE   INSEG    CODE           ?PR?PIT_TIMER_MS?ZF_TIM
   *DEL*:           00004AH   BYTE   INSEG    CODE           ?PR?CTIMER_COUNT_INIT?ZF_TIM
   *DEL*:           000051H   BYTE   INSEG    CODE           ?PR?CTIMER_COUNT_CLEAN?ZF_TIM
   *DEL*:           000054H   BYTE   INSEG    CODE           ?PR?UART_PUTCHAR?ZF_UART
   *DEL*:           00002DH   BYTE   INSEG    CODE           ?PR?UART_PUTBUFF?ZF_UART
   *DEL*:           00001EH   BYTE   INSEG    CODE           ?PR?UART_PUTSTR?ZF_UART
   *DEL*:           000004H   BYTE   UNIT     EDATA          ?ED?UART_PUTBUFF?ZF_UART
   *DEL*:           000002H   BYTE   UNIT     EDATA          ?ED?UART_PUTSTR?ZF_UART
   *DEL*:           000113H   BYTE   INSEG    CODE           ?PR?FIFO_READ_BUFFER?ZF_FIFO
   *DEL*:           000025H   BYTE   INSEG    CODE           ?PR?FIFO_CLEAR?ZF_FIFO
   *DEL*:           000046H   BYTE   INSEG    CODE           ?PR?FIFO_END_OFFSET?ZF_FIFO
   *DEL*:           000015H   BYTE   INSEG    CODE           ?PR?FIFO_USED?ZF_FIFO
   *DEL*:           000043H   BYTE   INSEG    CODE           ?PR?FIFO_INIT?ZF_FIFO
   *DEL*:           000004H   BYTE   UNIT     EDATA          ?ED?FIFO_INIT?ZF_FIFO
   *DEL*:           00000FH   BYTE   UNIT     EDATA          ?ED?FIFO_READ_BUFFER?ZF_FIFO
   *DEL*:           00008BH   BYTE   INSEG    CODE           ?PR?LCD_SHOWUINT16?SEEKFREE_18TFT
   *DEL*:           000082H   BYTE   INSEG    CODE           ?PR?LCD_SHOWINT32_SIMSPI?SEEKFREE_18TFT
   *DEL*:           0000DDH   BYTE   INSEG    CODE           ?PR?LCD_SHOWINT16_SIMSPI?SEEKFREE_18TFT
   *DEL*:           000082H   BYTE   INSEG    CODE           ?PR?LCD_SHOWINT32?SEEKFREE_18TFT
   *DEL*:           0000DDH   BYTE   INSEG    CODE           ?PR?LCD_SHOWINT16?SEEKFREE_18TFT
   *DEL*:           00002BH   BYTE   INSEG    CODE           ?PR?LCD_CLEAR_SIMSPI?SEEKFREE_18TFT
   *DEL*:           00002BH   BYTE   INSEG    CODE           ?PR?LCD_CLEAR?SEEKFREE_18TFT
   *DEL*:           00004EH   BYTE   INSEG    CODE           ?PR?LCD_SHOWSTR_SIMSPI?SEEKFREE_18TFT
   *DEL*:           00004EH   BYTE   INSEG    CODE           ?PR?LCD_SHOWSTR?SEEKFREE_18TFT
   *DEL*:           000029H   BYTE   INSEG    CODE           ?PR?LCD_WRITEINDEX_SIMSPI?SEEKFREE_18TFT
   *DEL*:           000029H   BYTE   INSEG    CODE           ?PR?LCD_WRITEDATA_SIMSPI?SEEKFREE_18TFT
   *DEL*:           00000AH   BYTE   INSEG    CODE           ?PR?LCD_WRITEINDEX?SEEKFREE_18TFT
   *DEL*:           00000AH   BYTE   INSEG    CODE           ?PR?LCD_WRITEDATA?SEEKFREE_18TFT
   *DEL*:           00002CH   BYTE   INSEG    CODE           ?PR?LCD_WRITEDATA_16BIT_SIMSPI?SEEKFREE_18TFT
   *DEL*:           00004CH   BYTE   INSEG    CODE           ?PR?LCD_SET_REGION_SIMSPI?SEEKFREE_18TFT
   *DEL*:           0001EFH   BYTE   INSEG    CODE           ?PR?LCD_INIT_SIMSPI?SEEKFREE_18TFT
   *DEL*:           00009AH   BYTE   INSEG    CODE           ?PR?SHOWIMAGE?SEEKFREE_18TFT
   *DEL*:           000050H   BYTE   INSEG    CODE           ?PR?LCD_SET_REGION?SEEKFREE_18TFT
   *DEL*:           0001EEH   BYTE   INSEG    CODE           ?PR?LCD_INIT?SEEKFREE_18TFT
   *DEL*:           00007BH   BYTE   INSEG    CODE           ?PR?LCD_SHOWUINT8_SIMSPI?SEEKFREE_18TFT
   *DEL*:           00007BH   BYTE   INSEG    CODE           ?PR?LCD_SHOWUINT8?SEEKFREE_18TFT
   *DEL*:           0000B9H   BYTE   INSEG    CODE           ?PR?LCD_SHOWINT8_SIMSPI?SEEKFREE_18TFT
   *DEL*:           0000B9H   BYTE   INSEG    CODE           ?PR?LCD_SHOWINT8?SEEKFREE_18TFT
   *DEL*:           00001FH   BYTE   INSEG    CODE           ?PR?LCD_WRITEDATA_16BIT?SEEKFREE_18TFT
   *DEL*:           0000F8H   BYTE   INSEG    CODE           ?PR?LCD_SHOWFLOAT_SIMSPI?SEEKFREE_18TFT
   *DEL*:           000013H   BYTE   INSEG    CODE           ?PR?LCD_DRAWPOINT_SIMSPI?SEEKFREE_18TFT
   *DEL*:           0000F8H   BYTE   INSEG    CODE           ?PR?LCD_SHOWFLOAT?SEEKFREE_18TFT
   *DEL*:           000013H   BYTE   INSEG    CODE           ?PR?LCD_DRAWPOINT?SEEKFREE_18TFT
   *DEL*:           00008EH   BYTE   INSEG    CODE           ?PR?LCD_SHOWCHAR_SIMSPI?SEEKFREE_18TFT
   *DEL*:           00008EH   BYTE   INSEG    CODE           ?PR?LCD_SHOWCHAR?SEEKFREE_18TFT
   *DEL*:           00008BH   BYTE   INSEG    CODE           ?PR?LCD_SHOWUINT16_SIMSPI?SEEKFREE_18TFT
   *DEL*:           000004H   BYTE   UNIT     EDATA          ?ED?LCD_SET_REGION_SIMSPI?SEEKFREE_18TFT
   *DEL*:           000004H   BYTE   UNIT     EDATA          ?ED?LCD_SHOWCHAR_SIMSPI?SEEKFREE_18TFT
   *DEL*:           000006H   BYTE   UNIT     EDATA          ?ED?LCD_SHOWSTR_SIMSPI?SEEKFREE_18TFT
   *DEL*:           000005H   BYTE   UNIT     EDATA          ?ED?LCD_SHOWINT8_SIMSPI?SEEKFREE_18TFT
   *DEL*:           000004H   BYTE   UNIT     EDATA          ?ED?LCD_SHOWUINT8_SIMSPI?SEEKFREE_18TFT
   *DEL*:           000008H   BYTE   UNIT     EDATA          ?ED?LCD_SHOWINT16_SIMSPI?SEEKFREE_18TFT
L251 LINKER/LOCATER V4.66.93.0                                                        11/16/2023  12:01:34  PAGE 6


   *DEL*:           000006H   BYTE   UNIT     EDATA          ?ED?LCD_SHOWUINT16_SIMSPI?SEEKFREE_18TFT
   *DEL*:           000028H   BYTE   UNIT     EDATA          ?ED?LCD_SHOWINT32_SIMSPI?SEEKFREE_18TFT
   *DEL*:           00002BH   BYTE   UNIT     EDATA          ?ED?LCD_SHOWFLOAT_SIMSPI?SEEKFREE_18TFT
   *DEL*:           000002H   BYTE   UNIT     EDATA          ?ED?LCD_WRITEDATA_16BIT?SEEKFREE_18TFT
   *DEL*:           000004H   BYTE   UNIT     EDATA          ?ED?LCD_SET_REGION?SEEKFREE_18TFT
   *DEL*:           000004H   BYTE   UNIT     EDATA          ?ED?LCD_SHOWCHAR?SEEKFREE_18TFT
   *DEL*:           000006H   BYTE   UNIT     EDATA          ?ED?LCD_SHOWSTR?SEEKFREE_18TFT
   *DEL*:           000005H   BYTE   UNIT     EDATA          ?ED?LCD_SHOWINT8?SEEKFREE_18TFT
   *DEL*:           000004H   BYTE   UNIT     EDATA          ?ED?LCD_SHOWUINT8?SEEKFREE_18TFT
   *DEL*:           000008H   BYTE   UNIT     EDATA          ?ED?LCD_SHOWINT16?SEEKFREE_18TFT
   *DEL*:           000006H   BYTE   UNIT     EDATA          ?ED?LCD_SHOWUINT16?SEEKFREE_18TFT
   *DEL*:           000028H   BYTE   UNIT     EDATA          ?ED?LCD_SHOWINT32?SEEKFREE_18TFT
   *DEL*:           00002BH   BYTE   UNIT     EDATA          ?ED?LCD_SHOWFLOAT?SEEKFREE_18TFT
   *DEL*:           000008H   BYTE   UNIT     EDATA          ?ED?SHOWIMAGE?SEEKFREE_18TFT
   *DEL*:           000011H   BYTE   INSEG    CODE           ?PR?ENCODER_SELF4_CHECK?SEEKFREE_ABSOLUTE_ENCODER
   *DEL*:           000011H   BYTE   INSEG    CODE           ?PR?ENCODER_SELF5_CHECK?SEEKFREE_ABSOLUTE_ENCODER
   *DEL*:           00002FH   BYTE   INSEG    CODE           ?PR?ENCODER_SPI_R_REG_BYTE?SEEKFREE_ABSOLUTE_ENCODER
   *DEL*:           000005H   BYTE   INSEG    CODE           ?PR?ENCODER_DELAY_US?SEEKFREE_ABSOLUTE_ENCODER
   *DEL*:           000038H   BYTE   INSEG    CODE           ?PR?ENCODER_SPI_W_REG_BYTE?SEEKFREE_ABSOLUTE_ENCODER
   *DEL*:           00001CH   BYTE   INSEG    CODE           ?PR?SIMSPI_R_REG_BYTE?SEEKFREE_ABSOLUTE_ENCODER
   *DEL*:           00001AH   BYTE   INSEG    CODE           ?PR?SIMSPI_W_REG_BYTE?SEEKFREE_ABSOLUTE_ENCODER
   *DEL*:           000029H   BYTE   INSEG    CODE           ?PR?ENCODER_INIT_SPI?SEEKFREE_ABSOLUTE_ENCODER
   *DEL*:           000004H   BYTE   INSEG    CODE           ?PR?SPI_WR_BYTE?SEEKFREE_ABSOLUTE_ENCODER
   *DEL*:           000024H   BYTE   INSEG    CODE           ?PR?SET_ZERO_POSITION_SIMSPI?SEEKFREE_ABSOLUTE_ENCODER
   *DEL*:           000023H   BYTE   INSEG    CODE           ?PR?ENCODER_ANGLE_SIMSPI?SEEKFREE_ABSOLUTE_ENCODER
   *DEL*:           00001CH   BYTE   INSEG    CODE           ?PR?SPI_R_REG_BYTE?SEEKFREE_ABSOLUTE_ENCODER
   *DEL*:           00001AH   BYTE   INSEG    CODE           ?PR?SPI_W_REG_BYTE?SEEKFREE_ABSOLUTE_ENCODER
   *DEL*:           00002FH   BYTE   INSEG    CODE           ?PR?ENCODER_SIMSPI_R_REG_BYTE?SEEKFREE_ABSOLUTE_ENCODER
   *DEL*:           000038H   BYTE   INSEG    CODE           ?PR?ENCODER_SIMSPI_W_REG_BYTE?SEEKFREE_ABSOLUTE_ENCODER
   *DEL*:           00000FH   BYTE   INSEG    CODE           ?PR?ENCODER_INIT_SIMSPI?SEEKFREE_ABSOLUTE_ENCODER
   *DEL*:           000024H   BYTE   INSEG    CODE           ?PR?SET_ZERO_POSITION_SPI?SEEKFREE_ABSOLUTE_ENCODER
   *DEL*:           00001FH   BYTE   INSEG    CODE           ?PR?SIMSPI_WR_BYTE?SEEKFREE_ABSOLUTE_ENCODER
   *DEL*:           000023H   BYTE   INSEG    CODE           ?PR?ENCODER_ANGLE_SPI?SEEKFREE_ABSOLUTE_ENCODER
   *DEL*:           000001H   BYTE   UNIT     EDATA          ?ED?ENCODER_SELF4_CHECK?SEEKFREE_ABSOLUTE_ENCODER
   *DEL*:           000001H   BYTE   UNIT     EDATA          ?ED?ENCODER_SELF5_CHECK?SEEKFREE_ABSOLUTE_ENCODER
   *DEL*:           00001FH   BYTE   INSEG    CODE           ?PR?ICM_SIMSPI_WR_BYTE?SEEKFREE_ICM20602
   *DEL*:           000075H   BYTE   INSEG    CODE           ?PR?ICM20602_INIT_SIMIIC?SEEKFREE_ICM20602
   *DEL*:           000040H   BYTE   INSEG    CODE           ?PR?ICM_SIMSPI_R_REG_BYTES?SEEKFREE_ICM20602
   *DEL*:           00001CH   BYTE   INSEG    CODE           ?PR?ICM_SIMSPI_R_REG_BYTE?SEEKFREE_ICM20602
   *DEL*:           000013H   BYTE   INSEG    CODE           ?PR?ICM_SIMSPI_W_REG_BYTE?SEEKFREE_ICM20602
   *DEL*:           000059H   BYTE   INSEG    CODE           ?PR?ICM20602_INIT_SIMSPI?SEEKFREE_ICM20602
   *DEL*:           00002BH   BYTE   INSEG    CODE           ?PR?ICM20602_SELF1_CHECK?SEEKFREE_ICM20602
   *DEL*:           000011H   BYTE   INSEG    CODE           ?PR?ICM20602_SELF4_CHECK?SEEKFREE_ICM20602
   *DEL*:           000044H   BYTE   INSEG    CODE           ?PR?GET_ICM20602_GYRO_SIMIIC?SEEKFREE_ICM20602
   *DEL*:           000044H   BYTE   INSEG    CODE           ?PR?GET_ICM20602_ACCDATA_SIMIIC?SEEKFREE_ICM20602
   *DEL*:           00003DH   BYTE   INSEG    CODE           ?PR?GET_ICM20602_GYRO_SIMSPI?SEEKFREE_ICM20602
   *DEL*:           00003DH   BYTE   INSEG    CODE           ?PR?GET_ICM20602_ACCDATA_SIMSPI?SEEKFREE_ICM20602
   *DEL*:           000006H   BYTE   UNIT     EDATA          ?ED?GET_ICM20602_ACCDATA_SIMIIC?SEEKFREE_ICM20602
   *DEL*:           000006H   BYTE   UNIT     EDATA          ?ED?GET_ICM20602_GYRO_SIMIIC?SEEKFREE_ICM20602
   *DEL*:           000003H   BYTE   UNIT     EDATA          ?ED?ICM_SIMSPI_R_REG_BYTES?SEEKFREE_ICM20602
   *DEL*:           000001H   BYTE   UNIT     EDATA          ?ED?ICM20602_SELF4_CHECK?SEEKFREE_ICM20602
   *DEL*:           000001H   BYTE   UNIT     EDATA          ?ED?ICM20602_INIT_SIMSPI?SEEKFREE_ICM20602
   *DEL*:           000006H   BYTE   UNIT     EDATA          ?ED?GET_ICM20602_ACCDATA_SIMSPI?SEEKFREE_ICM20602
   *DEL*:           000006H   BYTE   UNIT     EDATA          ?ED?GET_ICM20602_GYRO_SIMSPI?SEEKFREE_ICM20602
   *DEL*:           00000FH   BYTE   INSEG    CODE           ?PR?SIMIIC_START?SEEKFREE_IIC
   *DEL*:           000066H   BYTE   INSEG    CODE           ?PR?SIMIIC_READ_REGS?SEEKFREE_IIC
   *DEL*:           000001H   BYTE   INSEG    CODE           ?PR?SIMIIC_INIT?SEEKFREE_IIC
   *DEL*:           000034H   BYTE   INSEG    CODE           ?PR?SIMIIC_READ_REG?SEEKFREE_IIC
   *DEL*:           000011H   BYTE   INSEG    CODE           ?PR?SIMIIC_STOP?SEEKFREE_IIC
   *DEL*:           000022H   BYTE   INSEG    CODE           ?PR?SIMIIC_WRITE_REG?SEEKFREE_IIC
   *DEL*:           000020H   BYTE   INSEG    CODE           ?PR?SIMIIC_SENDACK?SEEKFREE_IIC
   *DEL*:           00003BH   BYTE   INSEG    CODE           ?PR?READ_CH?SEEKFREE_IIC
   *DEL*:           00002EH   BYTE   INSEG    CODE           ?PR?SEND_CH?SEEKFREE_IIC
   *DEL*:           00001CH   BYTE   INSEG    CODE           ?PR?SCCB_WAITACK?SEEKFREE_IIC
   *DEL*:           00000BH   BYTE   INSEG    CODE           ?PR?SIMIIC_DELAY?SEEKFREE_IIC
L251 LINKER/LOCATER V4.66.93.0                                                        11/16/2023  12:01:34  PAGE 7


   *DEL*:           000005H   BYTE   UNIT     EDATA          ?ED?SIMIIC_READ_REGS?SEEKFREE_IIC
   *DEL*:           00007BH   BYTE   INSEG    CODE           ?PR?IPS114_SHOWUINT8_SIMSPI?SEEKFREE_IPS114_SPI
   *DEL*:           000077H   BYTE   INSEG    CODE           ?PR?IPS114_SHOWUINT8?SEEKFREE_IPS114_SPI
   *DEL*:           0000B9H   BYTE   INSEG    CODE           ?PR?IPS114_SHOWINT8_SIMSPI?SEEKFREE_IPS114_SPI
   *DEL*:           0000B5H   BYTE   INSEG    CODE           ?PR?IPS114_SHOWINT8?SEEKFREE_IPS114_SPI
   *DEL*:           0000F8H   BYTE   INSEG    CODE           ?PR?IPS114_SHOWFLOAT_SIMSPI?SEEKFREE_IPS114_SPI
   *DEL*:           000013H   BYTE   INSEG    CODE           ?PR?IPS114_DRAWPOINT_SIMSPI?SEEKFREE_IPS114_SPI
   *DEL*:           000013H   BYTE   INSEG    CODE           ?PR?IPS114_DRAWPOINT?SEEKFREE_IPS114_SPI
   *DEL*:           00008EH   BYTE   INSEG    CODE           ?PR?IPS114_SHOWCHAR_SIMSPI?SEEKFREE_IPS114_SPI
   *DEL*:           00008BH   BYTE   INSEG    CODE           ?PR?IPS114_SHOWUINT16_SIMSPI?SEEKFREE_IPS114_SPI
   *DEL*:           000082H   BYTE   INSEG    CODE           ?PR?IPS114_SHOWINT32_SIMSPI?SEEKFREE_IPS114_SPI
   *DEL*:           0000DDH   BYTE   INSEG    CODE           ?PR?IPS114_SHOWINT16_SIMSPI?SEEKFREE_IPS114_SPI
   *DEL*:           0000D9H   BYTE   INSEG    CODE           ?PR?IPS114_SHOWINT16?SEEKFREE_IPS114_SPI
   *DEL*:           00003CH   BYTE   INSEG    CODE           ?PR?IPS114_CLEAR_SIMSPI?SEEKFREE_IPS114_SPI
   *DEL*:           00002CH   BYTE   INSEG    CODE           ?PR?IPS114_WRITEDATAI_16BIT_SIMSPI?SEEKFREE_IPS114_SPI
   *DEL*:           00004EH   BYTE   INSEG    CODE           ?PR?IPS114_SHOWSTR_SIMSPI?SEEKFREE_IPS114_SPI
   *DEL*:           000029H   BYTE   INSEG    CODE           ?PR?IPS114_WRITEINDEX_SIMSPI?SEEKFREE_IPS114_SPI
   *DEL*:           000029H   BYTE   INSEG    CODE           ?PR?IPS114_WRITEDATA_SIMSPI?SEEKFREE_IPS114_SPI
   *DEL*:           000044H   BYTE   INSEG    CODE           ?PR?IPS114_SET_REGION_SIMSPI?SEEKFREE_IPS114_SPI
   *DEL*:           00014FH   BYTE   INSEG    CODE           ?PR?IPS114_INIT_SIMSPI?SEEKFREE_IPS114_SPI
   *DEL*:           000004H   BYTE   UNIT     EDATA          ?ED?IPS114_SET_REGION_SIMSPI?SEEKFREE_IPS114_SPI
   *DEL*:           000002H   BYTE   UNIT     EDATA          ?ED?IPS114_CLEAR_SIMSPI?SEEKFREE_IPS114_SPI
   *DEL*:           000004H   BYTE   UNIT     EDATA          ?ED?IPS114_SHOWCHAR_SIMSPI?SEEKFREE_IPS114_SPI
   *DEL*:           000006H   BYTE   UNIT     EDATA          ?ED?IPS114_SHOWSTR_SIMSPI?SEEKFREE_IPS114_SPI
   *DEL*:           000005H   BYTE   UNIT     EDATA          ?ED?IPS114_SHOWINT8_SIMSPI?SEEKFREE_IPS114_SPI
   *DEL*:           000004H   BYTE   UNIT     EDATA          ?ED?IPS114_SHOWUINT8_SIMSPI?SEEKFREE_IPS114_SPI
   *DEL*:           000008H   BYTE   UNIT     EDATA          ?ED?IPS114_SHOWINT16_SIMSPI?SEEKFREE_IPS114_SPI
   *DEL*:           000006H   BYTE   UNIT     EDATA          ?ED?IPS114_SHOWUINT16_SIMSPI?SEEKFREE_IPS114_SPI
   *DEL*:           000028H   BYTE   UNIT     EDATA          ?ED?IPS114_SHOWINT32_SIMSPI?SEEKFREE_IPS114_SPI
   *DEL*:           00002BH   BYTE   UNIT     EDATA          ?ED?IPS114_SHOWFLOAT_SIMSPI?SEEKFREE_IPS114_SPI
   *DEL*:           000005H   BYTE   UNIT     EDATA          ?ED?IPS114_SHOWINT8?SEEKFREE_IPS114_SPI
   *DEL*:           000004H   BYTE   UNIT     EDATA          ?ED?IPS114_SHOWUINT8?SEEKFREE_IPS114_SPI
   *DEL*:           000008H   BYTE   UNIT     EDATA          ?ED?IPS114_SHOWINT16?SEEKFREE_IPS114_SPI
   *DEL*:           000055H   BYTE   INSEG    CODE           ?PR?MPU6050_INIT?SEEKFREE_MPU6050
   *DEL*:           00002CH   BYTE   INSEG    CODE           ?PR?MPU6050_SELF1_CHECK?SEEKFREE_MPU6050
   *DEL*:           000044H   BYTE   INSEG    CODE           ?PR?MPU6050_GET_GYRO?SEEKFREE_MPU6050
   *DEL*:           000044H   BYTE   INSEG    CODE           ?PR?MPU6050_GET_ACCDATA?SEEKFREE_MPU6050
   *DEL*:           000006H   BYTE   UNIT     EDATA          ?ED?MPU6050_GET_ACCDATA?SEEKFREE_MPU6050
   *DEL*:           000006H   BYTE   UNIT     EDATA          ?ED?MPU6050_GET_GYRO?SEEKFREE_MPU6050
   *DEL*:           000033H   BYTE   INSEG    CODE           ?PR?OLED_PUTPIXEL?SEEKFREE_OLED
   *DEL*:           000032H   BYTE   INSEG    CODE           ?PR?OLED_HEXASCII_SPI?SEEKFREE_OLED
   *DEL*:           000023H   BYTE   INSEG    CODE           ?PR?OLED_SET_POS?SEEKFREE_OLED
   *DEL*:           000325H   BYTE   INSEG    CODE           ?PR?OLED_DIS_BMP_SPI?SEEKFREE_OLED
   *DEL*:           0000F8H   BYTE   INSEG    CODE           ?PR?OLED_PRINTF_FLOAT?SEEKFREE_OLED
   *DEL*:           0000E8H   BYTE   INSEG    CODE           ?PR?OLED_P8X16STR_SPI?SEEKFREE_OLED
   *DEL*:           00002AH   BYTE   INSEG    CODE           ?PR?OLED_CLRPIXEL_SPI?SEEKFREE_OLED
   *DEL*:           000029H   BYTE   INSEG    CODE           ?PR?OLED_WRCMD?SEEKFREE_OLED
   *DEL*:           000090H   BYTE   INSEG    CODE           ?PR?OLED_PRINT_CHINESE_SPI?SEEKFREE_OLED
   *DEL*:           000029H   BYTE   INSEG    CODE           ?PR?OLED_WRDAT?SEEKFREE_OLED
   *DEL*:           000033H   BYTE   INSEG    CODE           ?PR?OLED_FILL?SEEKFREE_OLED
   *DEL*:           000082H   BYTE   INSEG    CODE           ?PR?OLED_PRINTF_INT32?SEEKFREE_OLED
   *DEL*:           00001DH   BYTE   INSEG    CODE           ?PR?OLED_UINT16?SEEKFREE_OLED
   *DEL*:           000031H   BYTE   INSEG    CODE           ?PR?OLED_PUTPIXEL_SPI?SEEKFREE_OLED
   *DEL*:           000021H   BYTE   INSEG    CODE           ?PR?OLED_SET_POS_SPI?SEEKFREE_OLED
   *DEL*:           0000A9H   BYTE   INSEG    CODE           ?PR?OLED_P6X8STR?SEEKFREE_OLED
   *DEL*:           00004BH   BYTE   INSEG    CODE           ?PR?OLED_INT16?SEEKFREE_OLED
   *DEL*:           0000A3H   BYTE   INSEG    CODE           ?PR?OLED_INIT?SEEKFREE_OLED
   *DEL*:           0000F8H   BYTE   INSEG    CODE           ?PR?OLED_PRINTF_FLOAT_SPI?SEEKFREE_OLED
   *DEL*:           00000AH   BYTE   INSEG    CODE           ?PR?OLED_WRCMD_SPI?SEEKFREE_OLED
   *DEL*:           00000AH   BYTE   INSEG    CODE           ?PR?OLED_WRDAT_SPI?SEEKFREE_OLED
   *DEL*:           000032H   BYTE   INSEG    CODE           ?PR?OLED_HEXASCII?SEEKFREE_OLED
   *DEL*:           000033H   BYTE   INSEG    CODE           ?PR?OLED_FILL_SPI?SEEKFREE_OLED
   *DEL*:           000082H   BYTE   INSEG    CODE           ?PR?OLED_PRINTF_INT32_SPI?SEEKFREE_OLED
   *DEL*:           00001DH   BYTE   INSEG    CODE           ?PR?OLED_UINT16_SPI?SEEKFREE_OLED
   *DEL*:           0000A9H   BYTE   INSEG    CODE           ?PR?OLED_P6X8STR_SPI?SEEKFREE_OLED
L251 LINKER/LOCATER V4.66.93.0                                                        11/16/2023  12:01:34  PAGE 8


   *DEL*:           00004BH   BYTE   INSEG    CODE           ?PR?OLED_INT16_SPI?SEEKFREE_OLED
   *DEL*:           00033BH   BYTE   INSEG    CODE           ?PR?OLED_DIS_BMP?SEEKFREE_OLED
   *DEL*:           0000BFH   BYTE   INSEG    CODE           ?PR?OLED_INIT_SPI?SEEKFREE_OLED
   *DEL*:           0000E8H   BYTE   INSEG    CODE           ?PR?OLED_P8X16STR?SEEKFREE_OLED
   *DEL*:           00002CH   BYTE   INSEG    CODE           ?PR?OLED_CLRPIXEL?SEEKFREE_OLED
   *DEL*:           000090H   BYTE   INSEG    CODE           ?PR?OLED_PRINT_CHINESE?SEEKFREE_OLED
   *DEL*:           000005H   BYTE   UNIT     EDATA          ?ED?OLED_P6X8STR?SEEKFREE_OLED
   *DEL*:           000005H   BYTE   UNIT     EDATA          ?ED?OLED_P8X16STR?SEEKFREE_OLED
   *DEL*:           000007H   BYTE   UNIT     EDATA          ?ED?OLED_UINT16?SEEKFREE_OLED
   *DEL*:           000007H   BYTE   UNIT     EDATA          ?ED?OLED_INT16?SEEKFREE_OLED
   *DEL*:           000028H   BYTE   UNIT     EDATA          ?ED?OLED_PRINTF_INT32?SEEKFREE_OLED
   *DEL*:           00002BH   BYTE   UNIT     EDATA          ?ED?OLED_PRINTF_FLOAT?SEEKFREE_OLED
   *DEL*:           00000CH   BYTE   UNIT     EDATA          ?ED?OLED_DIS_BMP?SEEKFREE_OLED
   *DEL*:           00000AH   BYTE   UNIT     EDATA          ?ED?OLED_PRINT_CHINESE?SEEKFREE_OLED
   *DEL*:           000005H   BYTE   UNIT     EDATA          ?ED?OLED_P6X8STR_SPI?SEEKFREE_OLED
   *DEL*:           000005H   BYTE   UNIT     EDATA          ?ED?OLED_P8X16STR_SPI?SEEKFREE_OLED
   *DEL*:           000007H   BYTE   UNIT     EDATA          ?ED?OLED_UINT16_SPI?SEEKFREE_OLED
   *DEL*:           000007H   BYTE   UNIT     EDATA          ?ED?OLED_INT16_SPI?SEEKFREE_OLED
   *DEL*:           000028H   BYTE   UNIT     EDATA          ?ED?OLED_PRINTF_INT32_SPI?SEEKFREE_OLED
   *DEL*:           00002BH   BYTE   UNIT     EDATA          ?ED?OLED_PRINTF_FLOAT_SPI?SEEKFREE_OLED
   *DEL*:           00000CH   BYTE   UNIT     EDATA          ?ED?OLED_DIS_BMP_SPI?SEEKFREE_OLED
   *DEL*:           00000AH   BYTE   UNIT     EDATA          ?ED?OLED_PRINT_CHINESE_SPI?SEEKFREE_OLED
   *DEL*:           000070H   BYTE   INSEG    CODE           ?PR?CCD_SEND_DATA?SEEKFREE_TSL1401
   *DEL*:           000016H   BYTE   INSEG    CODE           ?PR?CCD_INIT?SEEKFREE_TSL1401
   *DEL*:           000035H   BYTE   INSEG    CODE           ?PR?CCD_COLLECT?SEEKFREE_TSL1401
   *DEL*:           000003H   BYTE   UNIT     EDATA          ?ED?CCD_SEND_DATA?SEEKFREE_TSL1401
   *DEL*:           00003AH   BYTE   INSEG    CODE           ?PR?CRC_CHECK?SEEKFREE_VIRSCO
   *DEL*:           000069H   BYTE   INSEG    CODE           ?PR?DATA_CONVERSION?SEEKFREE_VIRSCO
   *DEL*:           000004H   BYTE   UNIT     EDATA          ?ED?DATA_CONVERSION?SEEKFREE_VIRSCO
   *DEL*:           000022H   BYTE   INSEG    CODE           ?PR?WIRELESS_UART_READ_BUFF?SEEKFREE_WIRELESS
   *DEL*:           00005DH   BYTE   INSEG    CODE           ?PR?WIRELESS_UART_SEND_BUFF?SEEKFREE_WIRELESS
   *DEL*:           00003CH   BYTE   INSEG    CODE           ?PR?WIRELESS_UART_INIT?SEEKFREE_WIRELESS
   *DEL*:           000002H   BYTE   UNIT     EDATA          ?ED?WIRELESS_UART_SEND_BUFF?SEEKFREE_WIRELESS
   *DEL*:           000004H   BYTE   UNIT     EDATA          ?ED?WIRELESS_UART_READ_BUFF?SEEKFREE_WIRELESS
   *DEL*:           00005EH   BYTE   INSEG    CODE           ?PR?AT24C02_READ_BYTES?SEEKFREE_AT24C02
   *DEL*:           000017H   BYTE   INSEG    CODE           ?PR?AT24C02_READ_BYTE?SEEKFREE_AT24C02
   *DEL*:           00005BH   BYTE   INSEG    CODE           ?PR?AT24C02_WRITE_BYTES?SEEKFREE_AT24C02
   *DEL*:           000019H   BYTE   INSEG    CODE           ?PR?AT24C02_WRITE_BYTE?SEEKFREE_AT24C02
   *DEL*:           000002H   BYTE   UNIT     EDATA          ?ED?AT24C02_WRITE_BYTES?SEEKFREE_AT24C02
   *DEL*:           000002H   BYTE   UNIT     EDATA          ?ED?AT24C02_READ_BYTES?SEEKFREE_AT24C02
   *DEL*:           000022H   BYTE   INSEG    CODE           ?PR?BLUETOOTH_CH9141_READ_BUFF?SEEKFREE_BLUETOOTH_CH9141
   *DEL*:           0000ABH   BYTE   INSEG    CODE           ?PR?BLUETOOTH_CH9141_SEND_BUFF?SEEKFREE_BLUETOOTH_CH9141
   *DEL*:           00003CH   BYTE   INSEG    CODE           ?PR?BLUETOOTH_CH9141_INIT?SEEKFREE_BLUETOOTH_CH9141
   *DEL*:           000006H   BYTE   UNIT     EDATA          ?ED?BLUETOOTH_CH9141_SEND_BUFF?SEEKFREE_BLUETOOTH_CH9141
   *DEL*:           000004H   BYTE   UNIT     EDATA          ?ED?BLUETOOTH_CH9141_READ_BUFF?SEEKFREE_BLUETOOTH_CH9141
   *DEL*:           000022H   BYTE   INSEG    CODE           ?PR?WIRELESS_CH573_READ_BUFF?SEEKFREE_WIRELESS_CH573
   *DEL*:           00005DH   BYTE   INSEG    CODE           ?PR?WIRELESS_CH573_SEND_BUFF?SEEKFREE_WIRELESS_CH573
   *DEL*:           00003CH   BYTE   INSEG    CODE           ?PR?WIRELESS_CH573_INIT?SEEKFREE_WIRELESS_CH573
   *DEL*:           000002H   BYTE   UNIT     EDATA          ?ED?WIRELESS_CH573_SEND_BUFF?SEEKFREE_WIRELESS_CH573
   *DEL*:           000004H   BYTE   UNIT     EDATA          ?ED?WIRELESS_CH573_READ_BUFF?SEEKFREE_WIRELESS_CH573



OVERLAY MAP OF MODULE:   .\Out_File\SEEKFREE (board)


FUNCTION/MODULE                               EDATA_GROUP
--> CALLED FUNCTION/MODULE                    START  STOP
=========================================================
UART1_Isr/isr                                 ----- -----

*** NEW ROOT ********************************

UART2_Isr/isr                                 ----- -----

L251 LINKER/LOCATER V4.66.93.0                                                        11/16/2023  12:01:34  PAGE 9


*** NEW ROOT ********************************

UART3_Isr/isr                                 ----- -----

*** NEW ROOT ********************************

UART4_Isr/isr                                 ----- -----
  +--> wireless_uart_callback/SEEKFREE_WIRELESS
  +--> bluetooth_ch9141_uart_callback/SEEKFREE_BLUETOOTH_CH9141
  +--> wireless_ch573_callback/SEEKFREE_WIRELESS_CH573

wireless_uart_callback/SEEKFREE_WIRELESS      ----- -----
  +--> fifo_write_buffer/zf_fifo

fifo_write_buffer/zf_fifo                     01D6H 01E1H
  +--> memcpy?_/memcpy
  +--> fifo_head_offset/zf_fifo

memcpy?_/memcpy                               ----- -----

fifo_head_offset/zf_fifo                      ----- -----

bluetooth_ch9141_uart_callback/SEEKFREE_+     ----- -----
... BLUETOOTH_CH9141
  +--> fifo_write_buffer/zf_fifo

wireless_ch573_callback/SEEKFREE_WIRELES+     ----- -----
... S_CH573
  +--> fifo_write_buffer/zf_fifo

*** NEW ROOT ********************************

INT0_Isr/isr                                  ----- -----

*** NEW ROOT ********************************

INT1_Isr/isr                                  ----- -----

*** NEW ROOT ********************************

INT2_Isr/isr                                  ----- -----

*** NEW ROOT ********************************

INT3_Isr/isr                                  ----- -----

*** NEW ROOT ********************************

INT4_Isr/isr                                  ----- -----

*** NEW ROOT ********************************

TM0_Isr/isr                                   ----- -----

*** NEW ROOT ********************************

TM1_Isr/isr                                   ----- -----

*** NEW ROOT ********************************

TM2_Isr/isr                                   ----- -----

*** NEW ROOT ********************************

TM3_Isr/isr                                   ----- -----
L251 LINKER/LOCATER V4.66.93.0                                                        11/16/2023  12:01:34  PAGE 10



*** NEW ROOT ********************************

TM4_Isr/isr                                   ----- -----

*** NEW ROOT ********************************

?C_C51STARTUP                                 ----- -----

*** NEW ROOT ********************************

?C_C51STARTUP?3                               ----- -----
  +--> main/main

main/main                                     ----- -----
  +--> DisableGlobalIRQ/board
  +--> board_init/board
  +--> ips114_init/SEEKFREE_IPS114_SPI
  +--> EnableGlobalIRQ/board
  +--> ips114_clear/SEEKFREE_IPS114_SPI
  +--> ips114_showstr/SEEKFREE_IPS114_SPI
  +--> ips114_showuint16/SEEKFREE_IPS114_SPI
  +--> ips114_showint32/SEEKFREE_IPS114_SPI
  +--> ips114_showfloat/SEEKFREE_IPS114_SPI
  +--> delay_ms/zf_delay

DisableGlobalIRQ/board                        ----- -----

board_init/board                              ----- -----
  +--> delay_init/zf_delay
  +--> uart_init/zf_uart

delay_init/zf_delay                           ----- -----
  +--> ?C?SLDIV/?C?SLDIV

?C?SLDIV/?C?SLDIV                             ----- -----
  +--> ?C?ULIDIV/?C?ULDIV

?C?ULIDIV/?C?ULDIV                            ----- -----

uart_init/zf_uart                             01E2H 01E7H
  +--> ?C?ULIDIV/?C?ULDIV

ips114_init/SEEKFREE_IPS114_SPI               ----- -----
  +--> spi_init/zf_spi
  +--> delay_ms/zf_delay
  +--> ips114_writeIndex/SEEKFREE_IPS114_SPI
  +--> ips114_writeData/SEEKFREE_IPS114_SPI
  +--> ips114_clear/SEEKFREE_IPS114_SPI

spi_init/zf_spi                               01E2H 01E5H
  +--> gpio_mode/zf_gpio

gpio_mode/zf_gpio                             ----- -----

delay_ms/zf_delay                             ----- -----

ips114_writeIndex/SEEKFREE_IPS114_SPI         ----- -----
  +--> spi_mosi/zf_spi

spi_mosi/zf_spi                               ----- -----

ips114_writeData/SEEKFREE_IPS114_SPI          ----- -----
  +--> spi_mosi/zf_spi

L251 LINKER/LOCATER V4.66.93.0                                                        11/16/2023  12:01:34  PAGE 11


ips114_clear/SEEKFREE_IPS114_SPI              01E2H 01E3H
  +--> ips114_set_region/SEEKFREE_IPS114_SPI
  +--> ips114_writedata_16bit/SEEKFREE_IPS114_SPI

ips114_set_region/SEEKFREE_IPS114_SPI         0217H 021AH
  +--> ips114_writeIndex/SEEKFREE_IPS114_SPI
  +--> ips114_writedata_16bit/SEEKFREE_IPS114_SPI

ips114_writedata_16bit/SEEKFREE_IPS114_S+     021BH 021CH
... PI
  +--> spi_mosi/zf_spi

EnableGlobalIRQ/board                         ----- -----

ips114_showstr/SEEKFREE_IPS114_SPI            020DH 0212H
  +--> ips114_showchar/SEEKFREE_IPS114_SPI

ips114_showchar/SEEKFREE_IPS114_SPI           0213H 0216H
  +--> ips114_set_region/SEEKFREE_IPS114_SPI
  +--> ips114_writedata_16bit/SEEKFREE_IPS114_SPI

ips114_showuint16/SEEKFREE_IPS114_SPI         01E2H 01E7H
  +--> ips114_showchar/SEEKFREE_IPS114_SPI

ips114_showint32/SEEKFREE_IPS114_SPI          01E2H 0209H
  +--> zf_sprintf/SEEKFREE_PRINTF
  +--> ips114_showstr/SEEKFREE_IPS114_SPI

zf_sprintf/SEEKFREE_PRINTF                    020DH 026BH
  +--> number_conversion_ascii/SEEKFREE_PRINTF
  +--> printf_reverse_order/SEEKFREE_PRINTF
  +--> memcpy?_/memcpy

number_conversion_ascii/SEEKFREE_PRINTF       026CH 026CH
  +--> ?C?SLDIV/?C?SLDIV
  +--> ?C?ULIDIV/?C?ULDIV

printf_reverse_order/SEEKFREE_PRINTF          ----- -----

ips114_showfloat/SEEKFREE_IPS114_SPI          01E2H 020CH
  +--> zf_sprintf/SEEKFREE_PRINTF
  +--> ips114_showstr/SEEKFREE_IPS114_SPI

*** NEW ROOT ********************************

?C_C51STARTUP?2                               ----- -----



PUBLIC SYMBOLS OF MODULE:  .\Out_File\SEEKFREE (board)


      VALUE       CLASS    TYPE      PUBLIC SYMBOL NAME
      =================================================
      00FF1A01H   CODE     NEAR LAB  ?C?CASTF
      000000FFH   NUMBER   ---       ?C?CODESEG
      00FF19CEH   CODE     NEAR LAB  ?C?FCASTC
      00FF19C9H   CODE     NEAR LAB  ?C?FCASTI
      00FF19C4H   CODE     NEAR LAB  ?C?FCASTL
      00FF17A5H   CODE     ---       ?C?FPADD
      00FF1980H   CODE     ---       ?C?FPCMP
      00FF197EH   CODE     ---       ?C?FPCMP3
      00FF18FDH   CODE     ---       ?C?FPDIV
      00FF1A3EH   CODE     ---       ?C?FPGETOPN2
      00FF185DH   CODE     ---       ?C?FPMUL
L251 LINKER/LOCATER V4.66.93.0                                                        11/16/2023  12:01:34  PAGE 12


      00FF1A7BH   CODE     ---       ?C?FPNANRESULT
      00FF1A83H   CODE     ---       ?C?FPOVERFLOW
      00FF1A57H   CODE     ---       ?C?FPRESULT
      00FF1A6DH   CODE     ---       ?C?FPRESULT2
      00FF17A2H   CODE     ---       ?C?FPSUB
      00FF1A80H   CODE     ---       ?C?FPUNDERFLOW
      00FF25D9H   CODE     ---       ?C?INITEDATA
      00FF2866H   HCONST   WORD      ?C?INITEDATA_END
      00FF1A8FH   CODE     ---       ?C?SIDIV
      00FF1B14H   CODE     NEAR LAB  ?C?SLDIV
      00FF0000H   CODE     ---       ?C?STARTUP
      00FF1AC3H   CODE     NEAR LAB  ?C?ULDIV
      00FF1AC1H   CODE     NEAR LAB  ?C?ULIDIV
      00000001H   NUMBER   ---       ?C?XDATASEG
      00FF0000H   CODE     ---       ?C_STARTUP
*DEL*:1FFFFFF8H   EDATA    BYTE      ?data_conversion?BYTE
*DEL*:1FFFFFF8H   EDATA    BYTE      ?fifo_init?BYTE
*DEL*:1FFFFFFCH   EDATA    BYTE      ?fifo_read_buffer?BYTE
      000001D2H   EDATA    BYTE      ?fifo_write_buffer?BYTE
*DEL*:1FFFFFFAH   EDATA    BYTE      ?iic_init?BYTE
      000001DEH   EDATA    BYTE      ?ips114_showfloat?BYTE
*DEL*:1FFFFFFCH   EDATA    BYTE      ?ips114_showfloat_simspi?BYTE
*DEL*:1FFFFFFCH   EDATA    BYTE      ?lcd_showfloat?BYTE
*DEL*:1FFFFFFCH   EDATA    BYTE      ?lcd_showfloat_simspi?BYTE
      00000263H   EDATA    BYTE      ?number_conversion_ascii?BYTE
*DEL*:1FFFFFFCH   EDATA    BYTE      ?oled_printf_float?BYTE
*DEL*:1FFFFFFCH   EDATA    BYTE      ?oled_printf_float_spi?BYTE
*DEL*:1FFFFFFAH   EDATA    BYTE      ?pwm_freq?BYTE
*DEL*:1FFFFFFEH   EDATA    BYTE      ?pwm_init?BYTE
      000001D9H   EDATA    BYTE      ?spi_init?BYTE
      000001DCH   EDATA    BYTE      ?uart_init?BYTE
      00000235H   EDATA    BYTE      ?zf_sprintf?BYTE
*SFR* 000000BCH   DATA     BYTE      ADC_CONTR
*DEL*:00000000H   CODE     ---       adc_init
*DEL*:00000000H   CODE     ---       adc_once
*SFR* 000000BDH   DATA     BYTE      ADC_RES
*SFR* 000000BEH   DATA     BYTE      ADC_RESL
*SFR* 000000DEH   DATA     BYTE      ADCCFG
*DEL*:00000000H   CODE     ---       at24c02_read_byte
*DEL*:00000000H   CODE     ---       at24c02_read_bytes
*DEL*:00000000H   CODE     ---       at24c02_write_byte
*DEL*:00000000H   CODE     ---       at24c02_write_bytes
*SFR* 000000EFH   DATA     BYTE      AUXINTIF
*SFR* 0000008EH   DATA     BYTE      AUXR
*DEL*:00000000H   CODE     ---       bluetooth_ch9141_init
*DEL*:00000000H   CODE     ---       bluetooth_ch9141_read_buff
*DEL*:00000000H   CODE     ---       bluetooth_ch9141_send_buff
      00FF0066H   CODE     ---       bluetooth_ch9141_uart_callback
      00FF2404H   CODE     ---       board_init
      000001D1H   EDATA    ---       busy
*DEL*:00000000H   CODE     ---       ccd_collect
      00000009H   EDATA    ---       ccd_data
*DEL*:00000000H   CODE     ---       ccd_init
*DEL*:00000000H   CODE     ---       ccd_send_data
*DEL*:00000000H   CODE     ---       CRC_CHECK
*DEL*:00000000H   CODE     ---       ctimer_count_clean
*DEL*:00000000H   CODE     ---       ctimer_count_init
*DEL*:00000000H   CODE     ---       ctimer_count_read
*DEL*:00000000H   CODE     ---       data_conversion
      00FF26BCH   CODE     ---       delay_init
      00FF278EH   CODE     ---       delay_ms
*DEL*:00000000H   CODE     ---       delay_us
      00FF000EH   CODE     ---       DisableGlobalIRQ
*SFR* 000000A8H.7 DATA     BIT       EA
*DEL*:00000000H   CODE     ---       eeprom_trig
L251 LINKER/LOCATER V4.66.93.0                                                        11/16/2023  12:01:34  PAGE 13


      00FF0006H   CODE     ---       EnableGlobalIRQ
*DEL*:00000000H   CODE     ---       encoder_angle_simspi
*DEL*:00000000H   CODE     ---       encoder_angle_spi
*DEL*:00000000H   CODE     ---       encoder_delay_us
*DEL*:00000000H   CODE     ---       encoder_init_simspi
*DEL*:00000000H   CODE     ---       encoder_init_spi
*DEL*:00000000H   CODE     ---       encoder_self4_check
*DEL*:00000000H   CODE     ---       encoder_self5_check
*DEL*:00000000H   CODE     ---       encoder_simspi_r_reg_byte
*DEL*:00000000H   CODE     ---       encoder_simspi_w_reg_byte
*DEL*:00000000H   CODE     ---       encoder_spi_r_reg_byte
*DEL*:00000000H   CODE     ---       encoder_spi_w_reg_byte
*SFR* 000000A8H.4 DATA     BIT       ES
*SFR* 000000A8H.1 DATA     BIT       ET0
*SFR* 000000A8H.3 DATA     BIT       ET1
*SFR* 000000A8H.0 DATA     BIT       EX0
*SFR* 000000A8H.2 DATA     BIT       EX1
*DEL*:00000000H   CODE     ---       exit_init
*DEL*:00000000H   CODE     ---       extern_iap_write_bytes
*SFR* 000000D0H.5 DATA     BIT       F0
*DEL*:00000000H   CODE     ---       fifo_clear
*DEL*:00000000H   CODE     ---       fifo_end_offset
      00FF2584H   CODE     ---       fifo_head_offset
*DEL*:00000000H   CODE     ---       fifo_init
*DEL*:00000000H   CODE     ---       fifo_read_buffer
*DEL*:00000000H   CODE     ---       fifo_used
      00FF1F6CH   CODE     ---       fifo_write_buffer
*DEL*:00000000H   CODE     ---       get_icm20602_accdata_simiic
*DEL*:00000000H   CODE     ---       get_icm20602_accdata_simspi
*DEL*:00000000H   CODE     ---       get_icm20602_gyro_simiic
*DEL*:00000000H   CODE     ---       get_icm20602_gyro_simspi
      00FF13A8H   CODE     ---       gpio_mode
*DEL*:00000000H   CODE     ---       gpio_pull_set
*SFR* 000000F6H   DATA     BYTE      IAP_ADDRE
*SFR* 000000C3H   DATA     BYTE      IAP_ADDRH
*SFR* 000000C4H   DATA     BYTE      IAP_ADDRL
*SFR* 000000C5H   DATA     BYTE      IAP_CMD
*SFR* 000000C7H   DATA     BYTE      IAP_CONTR
*SFR* 000000C2H   DATA     BYTE      IAP_DATA
*DEL*:00000000H   CODE     ---       iap_erase_page
*DEL*:00000000H   CODE     ---       iap_get_cmd_state
*DEL*:00000000H   CODE     ---       iap_idle
*DEL*:00000000H   CODE     ---       iap_init
*DEL*:00000000H   CODE     ---       iap_read_bytes
*DEL*:00000000H   CODE     ---       iap_set_tps
*SFR* 000000F5H   DATA     BYTE      IAP_TPS
*SFR* 000000C6H   DATA     BYTE      IAP_TRIG
*DEL*:00000000H   CODE     ---       iap_write_bytes
*DEL*:00000000H   CODE     ---       icm20602_init_simiic
*DEL*:00000000H   CODE     ---       icm20602_init_simspi
*DEL*:00000000H   CODE     ---       icm20602_self1_check
*DEL*:00000000H   CODE     ---       icm20602_self4_check
      0000036CH   EDATA    INT       icm_acc_x
      0000036EH   EDATA    INT       icm_acc_y
      00000370H   EDATA    INT       icm_acc_z
      00000372H   EDATA    INT       icm_gyro_x
      00000374H   EDATA    INT       icm_gyro_y
      00000376H   EDATA    INT       icm_gyro_z
*DEL*:00000000H   CODE     ---       icm_simspi_r_reg_byte
*DEL*:00000000H   CODE     ---       icm_simspi_r_reg_bytes
*DEL*:00000000H   CODE     ---       icm_simspi_w_reg_byte
*DEL*:00000000H   CODE     ---       icm_simspi_wr_byte
*SFR* 000000A8H   DATA     BYTE      IE
*SFR* 000000AFH   DATA     BYTE      IE2
      0000038EH   EDATA    BYTE      IIC_ad_main
L251 LINKER/LOCATER V4.66.93.0                                                        11/16/2023  12:01:34  PAGE 14


      00000390H   EDATA    BYTE      IIC_ad_sub
      00000391H   EDATA    ---       IIC_buf
*DEL*:00000000H   CODE     ---       iic_change_pin
*DEL*:00000000H   CODE     ---       iic_delay_us
*DEL*:00000000H   CODE     ---       iic_init
      0000038FH   EDATA    BYTE      IIC_num
*DEL*:00000000H   CODE     ---       iic_read_reg
*DEL*:00000000H   CODE     ---       iic_read_reg_bytes
*DEL*:00000000H   CODE     ---       iic_write_reg
      00FF27EDH   CODE     ---       INT0_Isr
      00FF0009H   CODE     ---       INT1_Isr
      00FF27BDH   CODE     ---       INT2_Isr
      00FF27C5H   CODE     ---       INT3_Isr
      00FF27CDH   CODE     ---       INT4_Isr
*SFR* 0000008FH   DATA     BYTE      INTCLKO
*SFR* 000000B8H   DATA     BYTE      IP
*SFR* 000000B5H   DATA     BYTE      IP2
*SFR* 000000B6H   DATA     BYTE      IP2H
*SFR* 000000B7H   DATA     BYTE      IPH
      00FF2680H   CODE     ---       ips114_clear
*DEL*:00000000H   CODE     ---       ips114_clear_simspi
*DEL*:00000000H   CODE     ---       ips114_drawpoint
*DEL*:00000000H   CODE     ---       ips114_drawpoint_simspi
      00FF1D07H   CODE     ---       ips114_init
*DEL*:00000000H   CODE     ---       ips114_init_simspi
      00FF253CH   CODE     ---       ips114_set_region
*DEL*:00000000H   CODE     ---       ips114_set_region_simspi
      00FF2269H   CODE     ---       ips114_showchar
*DEL*:00000000H   CODE     ---       ips114_showchar_simspi
      00FF1E74H   CODE     ---       ips114_showfloat
*DEL*:00000000H   CODE     ---       ips114_showfloat_simspi
*DEL*:00000000H   CODE     ---       ips114_showint16
*DEL*:00000000H   CODE     ---       ips114_showint16_simspi
      00FF2382H   CODE     ---       ips114_showint32
*DEL*:00000000H   CODE     ---       ips114_showint32_simspi
*DEL*:00000000H   CODE     ---       ips114_showint8
*DEL*:00000000H   CODE     ---       ips114_showint8_simspi
      00FF24EEH   CODE     ---       ips114_showstr
*DEL*:00000000H   CODE     ---       ips114_showstr_simspi
      00FF22F7H   CODE     ---       ips114_showuint16
*DEL*:00000000H   CODE     ---       ips114_showuint16_simspi
*DEL*:00000000H   CODE     ---       ips114_showuint8
*DEL*:00000000H   CODE     ---       ips114_showuint8_simspi
      00FF27B3H   CODE     ---       ips114_writeData
      00FF271AH   CODE     ---       ips114_writedata_16bit
*DEL*:00000000H   CODE     ---       ips114_writeData_simspi
*DEL*:00000000H   CODE     ---       ips114_writeDatai_16bit_simspi
      00FF0046H   CODE     ---       ips114_writeIndex
*DEL*:00000000H   CODE     ---       ips114_writeIndex_simspi
*SFR* 00000088H.0 DATA     BIT       IT0
*SFR* 00000088H.2 DATA     BIT       IT1
*DEL*:00000000H   CODE     ---       lcd_clear
*DEL*:00000000H   CODE     ---       lcd_clear_simspi
*DEL*:00000000H   CODE     ---       lcd_drawpoint
*DEL*:00000000H   CODE     ---       lcd_drawpoint_simspi
*DEL*:00000000H   CODE     ---       lcd_init
*DEL*:00000000H   CODE     ---       lcd_init_simspi
*DEL*:00000000H   CODE     ---       lcd_set_region
*DEL*:00000000H   CODE     ---       lcd_set_region_simspi
*DEL*:00000000H   CODE     ---       lcd_showchar
*DEL*:00000000H   CODE     ---       lcd_showchar_simspi
*DEL*:00000000H   CODE     ---       lcd_showfloat
*DEL*:00000000H   CODE     ---       lcd_showfloat_simspi
*DEL*:00000000H   CODE     ---       lcd_showint16
*DEL*:00000000H   CODE     ---       lcd_showint16_simspi
L251 LINKER/LOCATER V4.66.93.0                                                        11/16/2023  12:01:34  PAGE 15


*DEL*:00000000H   CODE     ---       lcd_showint32
*DEL*:00000000H   CODE     ---       lcd_showint32_simspi
*DEL*:00000000H   CODE     ---       lcd_showint8
*DEL*:00000000H   CODE     ---       lcd_showint8_simspi
*DEL*:00000000H   CODE     ---       lcd_showstr
*DEL*:00000000H   CODE     ---       lcd_showstr_simspi
*DEL*:00000000H   CODE     ---       lcd_showuint16
*DEL*:00000000H   CODE     ---       lcd_showuint16_simspi
*DEL*:00000000H   CODE     ---       lcd_showuint8
*DEL*:00000000H   CODE     ---       lcd_showuint8_simspi
*DEL*:00000000H   CODE     ---       lcd_writeData
*DEL*:00000000H   CODE     ---       lcd_writedata_16bit
*DEL*:00000000H   CODE     ---       lcd_writeData_16bit_simspi
*DEL*:00000000H   CODE     ---       lcd_writeData_simspi
*DEL*:00000000H   CODE     ---       lcd_writeIndex
*DEL*:00000000H   CODE     ---       lcd_writeIndex_simspi
      00FF212BH   CODE     ---       main
      00FF26F5H   CODE     ---       memcpy?_
*DEL*:00000000H   CODE     ---       mpu6050_get_accdata
*DEL*:00000000H   CODE     ---       mpu6050_get_gyro
*DEL*:00000000H   CODE     ---       mpu6050_init
*DEL*:00000000H   CODE     ---       mpu6050_self1_check
      00000378H   EDATA    INT       mpu_acc_x
      0000037AH   EDATA    INT       mpu_acc_y
      0000037CH   EDATA    INT       mpu_acc_z
      0000037EH   EDATA    INT       mpu_gyro_x
      00000380H   EDATA    INT       mpu_gyro_y
      00000382H   EDATA    INT       mpu_gyro_z
      00FF21D7H   CODE     ---       number_conversion_ascii
*DEL*:00000000H   CODE     ---       NVIC_SetPriority
      00FF0C86H   CODE     ---       oled_6x8
      00FF00A6H   CODE     ---       oled_8x16
*DEL*:00000000H   CODE     ---       oled_clrpixel
*DEL*:00000000H   CODE     ---       oled_clrpixel_spi
*DEL*:00000000H   CODE     ---       oled_dis_bmp
*DEL*:00000000H   CODE     ---       oled_dis_bmp_spi
*DEL*:00000000H   CODE     ---       oled_fill
*DEL*:00000000H   CODE     ---       oled_fill_spi
*DEL*:00000000H   CODE     ---       oled_hexascii
*DEL*:00000000H   CODE     ---       oled_hexascii_spi
*DEL*:00000000H   CODE     ---       oled_init
*DEL*:00000000H   CODE     ---       oled_init_spi
*DEL*:00000000H   CODE     ---       oled_int16
*DEL*:00000000H   CODE     ---       oled_int16_spi
*DEL*:00000000H   CODE     ---       oled_p6x8str
*DEL*:00000000H   CODE     ---       oled_p6x8str_spi
*DEL*:00000000H   CODE     ---       oled_p8x16str
*DEL*:00000000H   CODE     ---       oled_p8x16str_spi
*DEL*:00000000H   CODE     ---       oled_print_chinese
*DEL*:00000000H   CODE     ---       oled_print_chinese_spi
*DEL*:00000000H   CODE     ---       oled_printf_float
*DEL*:00000000H   CODE     ---       oled_printf_float_spi
*DEL*:00000000H   CODE     ---       oled_printf_int32
*DEL*:00000000H   CODE     ---       oled_printf_int32_spi
*DEL*:00000000H   CODE     ---       oled_putpixel
*DEL*:00000000H   CODE     ---       oled_putpixel_spi
*DEL*:00000000H   CODE     ---       oled_set_pos
*DEL*:00000000H   CODE     ---       oled_set_pos_spi
*DEL*:00000000H   CODE     ---       oled_uint16
*DEL*:00000000H   CODE     ---       oled_uint16_spi
*DEL*:00000000H   CODE     ---       oled_wrcmd
*DEL*:00000000H   CODE     ---       oled_wrcmd_spi
*DEL*:00000000H   CODE     ---       oled_wrdat
*DEL*:00000000H   CODE     ---       oled_wrdat_spi
*SFR* 00000080H   DATA     BYTE      P0
L251 LINKER/LOCATER V4.66.93.0                                                        11/16/2023  12:01:34  PAGE 16


*SFR* 00000080H.7 DATA     BIT       P07
*SFR* 00000094H   DATA     BYTE      P0M0
*SFR* 00000093H   DATA     BYTE      P0M1
*SFR* 00000090H   DATA     BYTE      P1
*SFR* 00000092H   DATA     BYTE      P1M0
*SFR* 00000091H   DATA     BYTE      P1M1
*SFR* 000000A0H   DATA     BYTE      P2
*SFR* 000000A0H.0 DATA     BIT       P20
*SFR* 000000A0H.1 DATA     BIT       P21
*SFR* 000000A0H.2 DATA     BIT       P22
*SFR* 000000A0H.3 DATA     BIT       P23
*SFR* 000000A0H.4 DATA     BIT       P24
*SFR* 000000A0H.5 DATA     BIT       P25
*SFR* 000000A0H.6 DATA     BIT       P26
*SFR* 000000A0H.7 DATA     BIT       P27
*SFR* 00000096H   DATA     BYTE      P2M0
*SFR* 00000095H   DATA     BYTE      P2M1
*SFR* 000000B0H   DATA     BYTE      P3
*SFR* 000000B0H.2 DATA     BIT       P32
*SFR* 000000B0H.3 DATA     BIT       P33
*SFR* 000000B2H   DATA     BYTE      P3M0
*SFR* 000000B1H   DATA     BYTE      P3M1
*SFR* 000000C0H   DATA     BYTE      P4
*SFR* 000000C0H.0 DATA     BIT       P40
*SFR* 000000C0H.1 DATA     BIT       P41
*SFR* 000000C0H.2 DATA     BIT       P42
*SFR* 000000C0H.3 DATA     BIT       P43
*SFR* 000000B4H   DATA     BYTE      P4M0
*SFR* 000000B3H   DATA     BYTE      P4M1
*SFR* 000000C8H   DATA     BYTE      P5
*SFR* 000000C8H.2 DATA     BIT       P52
*SFR* 000000CAH   DATA     BYTE      P5M0
*SFR* 000000C9H   DATA     BYTE      P5M1
*SFR* 000000E8H   DATA     BYTE      P6
*SFR* 000000CCH   DATA     BYTE      P6M0
*SFR* 000000CBH   DATA     BYTE      P6M1
*SFR* 000000F8H   DATA     BYTE      P7
*SFR* 000000E2H   DATA     BYTE      P7M0
*SFR* 000000E1H   DATA     BYTE      P7M1
*SFR* 000000A2H   DATA     BYTE      P_SW1
*SFR* 000000BAH   DATA     BYTE      P_SW2
*DEL*:00000000H   CODE     ---       pit_timer_ms
      00FF2605H   CODE     ---       printf_reverse_order
*SFR* 000000D0H   DATA     BYTE      PSW
*DEL*:00000000H   CODE     ---       putchar
      00FF2814H   HCONST   ---       PWM_ARR_ADDR
      00FF281CH   HCONST   ---       PWM_CCER_ADDR
      00FF282CH   HCONST   ---       PWM_CCMR_ADDR
      00FF27F4H   HCONST   ---       PWM_CCR_ADDR
*DEL*:00000000H   CODE     ---       pwm_duty
*DEL*:00000000H   CODE     ---       pwm_freq
*DEL*:00000000H   CODE     ---       pwm_init
*DEL*:00000000H   CODE     ---       pwm_set_gpio
*DEL*:00000000H   CODE     ---       read_ch
*DEL*:00000000H   CODE     ---       recv_ack
*DEL*:00000000H   CODE     ---       recv_data
*SFR* 000000FFH   DATA     BYTE      RSTCFG
*SFR* 0000009BH   DATA     BYTE      S2BUF
*SFR* 0000009AH   DATA     BYTE      S2CON
*SFR* 000000ADH   DATA     BYTE      S3BUF
*SFR* 000000ACH   DATA     BYTE      S3CON
*SFR* 000000FEH   DATA     BYTE      S4BUF
*SFR* 000000FDH   DATA     BYTE      S4CON
*SFR* 00000099H   DATA     BYTE      SBUF
*SFR* 00000098H   DATA     BYTE      SCON
L251 LINKER/LOCATER V4.66.93.0                                                        11/16/2023  12:01:34  PAGE 17


*DEL*:00000000H   CODE     ---       send_ack
*DEL*:00000000H   CODE     ---       send_ch
*DEL*:00000000H   CODE     ---       send_data
*DEL*:00000000H   CODE     ---       send_nak
*DEL*:00000000H   CODE     ---       set_zero_position_simspi
*DEL*:00000000H   CODE     ---       set_zero_position_spi
*DEL*:00000000H   CODE     ---       showimage
*DEL*:00000000H   CODE     ---       simiic_delay
*DEL*:00000000H   CODE     ---       simiic_init
*DEL*:00000000H   CODE     ---       simiic_read_reg
*DEL*:00000000H   CODE     ---       simiic_read_regs
*DEL*:00000000H   CODE     ---       simiic_sendack
*DEL*:00000000H   CODE     ---       simiic_start
*DEL*:00000000H   CODE     ---       simiic_stop
*DEL*:00000000H   CODE     ---       simiic_write_reg
*DEL*:00000000H   CODE     ---       simspi_r_reg_byte
*DEL*:00000000H   CODE     ---       simspi_w_reg_byte
*DEL*:00000000H   CODE     ---       simspi_wr_byte
*SFR* 000000CEH   DATA     BYTE      SPCTL
*SFR* 000000CFH   DATA     BYTE      SPDAT
*DEL*:00000000H   CODE     ---       spi_change_mode
*DEL*:00000000H   CODE     ---       spi_change_pin
      00FF204CH   CODE     ---       spi_init
      00FF27A5H   CODE     ---       spi_mosi
*DEL*:00000000H   CODE     ---       spi_r_reg_byte
*DEL*:00000000H   CODE     ---       spi_w_reg_byte
*DEL*:00000000H   CODE     ---       spi_wr_byte
*SFR* 000000CDH   DATA     BYTE      SPSTAT
*DEL*:00000000H   CODE     ---       start
*DEL*:00000000H   CODE     ---       stop
      00000395H   EDATA    LONG      sys_clk
*SFR* 000000D6H   DATA     BYTE      T2H
*SFR* 000000D7H   DATA     BYTE      T2L
*SFR* 000000D4H   DATA     BYTE      T3H
*SFR* 000000D5H   DATA     BYTE      T3L
*SFR* 000000D2H   DATA     BYTE      T4H
*SFR* 000000D3H   DATA     BYTE      T4L
*SFR* 000000DDH   DATA     BYTE      T4T3M
*SFR* 00000088H   DATA     BYTE      TCON
      00FF0696H   CODE     ---       tft_ascii
*SFR* 0000008CH   DATA     BYTE      TH0
*SFR* 0000008DH   DATA     BYTE      TH1
*SFR* 0000008AH   DATA     BYTE      TL0
*SFR* 0000008BH   DATA     BYTE      TL1
      00FF000AH   CODE     ---       TM0_Isr
      00FF0011H   CODE     ---       TM1_Isr
      00FF27D5H   CODE     ---       TM2_Isr
      00FF27DDH   CODE     ---       TM3_Isr
      00FF27E5H   CODE     ---       TM4_Isr
*SFR* 00000089H   DATA     BYTE      TMOD
*SFR* 00000088H.4 DATA     BIT       TR0
*SFR* 00000088H.6 DATA     BIT       TR1
      00000008H   EDATA    BYTE      tsl1401_finish_flag
      00FF2643H   CODE     ---       UART1_Isr
      00000109H   EDATA    ---       uart1_rx_buff
      0000016DH   EDATA    ---       uart1_tx_buff
      00FF2739H   CODE     ---       UART2_Isr
      00FF2757H   CODE     ---       UART3_Isr
      00FF2485H   CODE     ---       UART4_Isr
      00FF1B48H   CODE     ---       uart_init
*DEL*:00000000H   CODE     ---       uart_putbuff
*DEL*:00000000H   CODE     ---       uart_putchar
*DEL*:00000000H   CODE     ---       uart_putstr
      00000384H   EDATA    ---       virtual_scope_data
*DEL*:00000000H   CODE     ---       wait
L251 LINKER/LOCATER V4.66.93.0                                                        11/16/2023  12:01:34  PAGE 18


      00FF2775H   CODE     ---       wireless_ch573_callback
*DEL*:00000000H   CODE     ---       wireless_ch573_init
*DEL*:00000000H   CODE     ---       wireless_ch573_read_buff
*DEL*:00000000H   CODE     ---       wireless_ch573_send_buff
      0000039DH   EDATA    INT       wireless_type
      00FF0026H   CODE     ---       wireless_uart_callback
*DEL*:00000000H   CODE     ---       wireless_uart_init
*DEL*:00000000H   CODE     ---       wireless_uart_read_buff
*DEL*:00000000H   CODE     ---       wireless_uart_send_buff
*SFR* 000000E9H   DATA     BYTE      WTST
      00000399H   EDATA    WORD      zf_delay_ms
      0000039BH   EDATA    WORD      zf_delay_us
      00FF0EAEH   CODE     ---       zf_sprintf



SYMBOL TABLE OF MODULE:  .\Out_File\SEEKFREE (board)

      VALUE       REP       CLASS    TYPE      SYMBOL NAME
      ====================================================
      ---         MODULE    ---      ---       board
      00FF0006H   PUBLIC    CODE     ---       EnableGlobalIRQ
      00FF2404H   PUBLIC    CODE     ---       board_init
      00FF000EH   PUBLIC    CODE     ---       DisableGlobalIRQ
      00000395H   PUBLIC    EDATA    LONG      sys_clk
      00000094H   SFRSYM    DATA     BYTE      P0M0
      000000D0H   SFRSYM    DATA     BYTE      PSW
      000000FDH   SFRSYM    DATA     BYTE      S4CON
      000000ACH   SFRSYM    DATA     BYTE      S3CON
      0000009AH   SFRSYM    DATA     BYTE      S2CON
      000000E9H   SFRSYM    DATA     BYTE      WTST
      000000FFH   SFRSYM    DATA     BYTE      RSTCFG
      0000008EH   SFRSYM    DATA     BYTE      AUXR
      000000AFH   SFRSYM    DATA     BYTE      IE2
      00000088H   SFRSYM    DATA     BYTE      TCON
      00000089H   SFRSYM    DATA     BYTE      TMOD
      00000098H   SFRSYM    DATA     BYTE      SCON
      000000DEH   SFRSYM    DATA     BYTE      ADCCFG
      000000B8H   SFRSYM    DATA     BYTE      IP
      000000A8H   SFRSYM    DATA     BYTE      IE
      000000BAH   SFRSYM    DATA     BYTE      P_SW2
      000000A2H   SFRSYM    DATA     BYTE      P_SW1
      000000F8H   SFRSYM    DATA     BYTE      P7
      000000A8H.7 SFRSYM    DATA     BIT       EA
      000000E1H   SFRSYM    DATA     BYTE      P7M1
      000000E8H   SFRSYM    DATA     BYTE      P6
      000000C8H   SFRSYM    DATA     BYTE      P5
      000000CBH   SFRSYM    DATA     BYTE      P6M1
      000000E2H   SFRSYM    DATA     BYTE      P7M0
      000000C0H   SFRSYM    DATA     BYTE      P4
      000000C9H   SFRSYM    DATA     BYTE      P5M1
      000000CCH   SFRSYM    DATA     BYTE      P6M0
      000000B0H   SFRSYM    DATA     BYTE      P3
      000000B3H   SFRSYM    DATA     BYTE      P4M1
      000000CAH   SFRSYM    DATA     BYTE      P5M0
      000000A0H   SFRSYM    DATA     BYTE      P2
      000000B1H   SFRSYM    DATA     BYTE      P3M1
      000000B4H   SFRSYM    DATA     BYTE      P4M0
      00000090H   SFRSYM    DATA     BYTE      P1
      00000095H   SFRSYM    DATA     BYTE      P2M1
      000000B2H   SFRSYM    DATA     BYTE      P3M0
      00000080H   SFRSYM    DATA     BYTE      P0
      00000091H   SFRSYM    DATA     BYTE      P1M1
      00000096H   SFRSYM    DATA     BYTE      P2M0
      00000092H   SFRSYM    DATA     BYTE      P1M0
L251 LINKER/LOCATER V4.66.93.0                                                        11/16/2023  12:01:34  PAGE 19


      00000093H   SFRSYM    DATA     BYTE      P0M1

      00FF2404H   BLOCK     CODE     ---       LVL=0
      00FF2404H   LINE      CODE     ---       #177
      00FF2404H   LINE      CODE     ---       #179
      00FF2407H   LINE      CODE     ---       #197
      00FF240AH   LINE      CODE     ---       #199
      00FF240DH   LINE      CODE     ---       #200
      00FF2410H   LINE      CODE     ---       #201
      00FF241CH   LINE      CODE     ---       #203
      00FF241FH   LINE      CODE     ---       #204
      00FF2422H   LINE      CODE     ---       #205
      00FF2425H   LINE      CODE     ---       #206
      00FF2428H   LINE      CODE     ---       #207
      00FF242BH   LINE      CODE     ---       #208
      00FF242EH   LINE      CODE     ---       #209
      00FF2431H   LINE      CODE     ---       #210
      00FF2434H   LINE      CODE     ---       #211
      00FF2437H   LINE      CODE     ---       #212
      00FF243AH   LINE      CODE     ---       #213
      00FF243DH   LINE      CODE     ---       #214
      00FF2440H   LINE      CODE     ---       #215
      00FF2443H   LINE      CODE     ---       #216
      00FF2446H   LINE      CODE     ---       #217
      00FF2449H   LINE      CODE     ---       #218
      00FF244CH   LINE      CODE     ---       #220
      00FF244FH   LINE      CODE     ---       #221
      00FF2452H   LINE      CODE     ---       #222
      00FF2455H   LINE      CODE     ---       #223
      00FF2458H   LINE      CODE     ---       #224
      00FF245BH   LINE      CODE     ---       #225
      00FF245EH   LINE      CODE     ---       #226
      00FF2461H   LINE      CODE     ---       #227
      00FF2464H   LINE      CODE     ---       #228
      00FF2467H   LINE      CODE     ---       #229
      00FF246AH   LINE      CODE     ---       #231
      ---         BLOCKEND  ---      ---       LVL=0
      R15         REGSYM    ---      CHAR      c

      00FF000EH   BLOCK     CODE     ---       LVL=0
      00FF000EH   LINE      CODE     ---       #245
      00FF000EH   LINE      CODE     ---       #247
      00FF0010H   LINE      CODE     ---       #248
      ---         BLOCKEND  ---      ---       LVL=0

      00FF0006H   BLOCK     CODE     ---       LVL=0
      00FF0006H   LINE      CODE     ---       #251
      00FF0006H   LINE      CODE     ---       #253
      00FF0008H   LINE      CODE     ---       #254
      ---         BLOCKEND  ---      ---       LVL=0

      ---         MODULE    ---      ---       common
      0000039DH   PUBLIC    EDATA    INT       wireless_type
      000000D0H   SFRSYM    DATA     BYTE      PSW
      00000088H   SFRSYM    DATA     BYTE      TCON
      00000098H   SFRSYM    DATA     BYTE      SCON
      000000B8H   SFRSYM    DATA     BYTE      IP
      000000A8H   SFRSYM    DATA     BYTE      IE
      000000F8H   SFRSYM    DATA     BYTE      P7
      000000E8H   SFRSYM    DATA     BYTE      P6
      000000C8H   SFRSYM    DATA     BYTE      P5
      000000C0H   SFRSYM    DATA     BYTE      P4
      000000B0H   SFRSYM    DATA     BYTE      P3
      000000A0H   SFRSYM    DATA     BYTE      P2
      00000090H   SFRSYM    DATA     BYTE      P1
L251 LINKER/LOCATER V4.66.93.0                                                        11/16/2023  12:01:34  PAGE 20


      00000080H   SFRSYM    DATA     BYTE      P0

      ---         MODULE    ---      ---       SEEKFREE_PRINTF
      00FF21D7H   PUBLIC    CODE     ---       number_conversion_ascii
      00FF0EAEH   PUBLIC    CODE     ---       zf_sprintf
      00FF2605H   PUBLIC    CODE     ---       printf_reverse_order
      00000263H   PUBLIC    EDATA    BYTE      ?number_conversion_ascii?BYTE
      00000235H   PUBLIC    EDATA    BYTE      ?zf_sprintf?BYTE
      000000D0H   SFRSYM    DATA     BYTE      PSW
      00000088H   SFRSYM    DATA     BYTE      TCON
      00000098H   SFRSYM    DATA     BYTE      SCON
      000000B8H   SFRSYM    DATA     BYTE      IP
      000000A8H   SFRSYM    DATA     BYTE      IE
      000000F8H   SFRSYM    DATA     BYTE      P7
      000000E8H   SFRSYM    DATA     BYTE      P6
      000000C8H   SFRSYM    DATA     BYTE      P5
      000000C0H   SFRSYM    DATA     BYTE      P4
      000000B0H   SFRSYM    DATA     BYTE      P3
      000000A0H   SFRSYM    DATA     BYTE      P2
      00000090H   SFRSYM    DATA     BYTE      P1
      00000080H   SFRSYM    DATA     BYTE      P0

      00FF21D7H   BLOCK     CODE     ---       LVL=0
      DR24        REGSYM    ---      DWORD     dat
      REG=7       REGSYM    ---      ---       p
      R10         REGSYM    ---      BYTE      neg_type
      0000026CH   SYMBOL    EDATA    BYTE      radix
      00FF21DFH   BLOCK     CODE     NEAR LAB  LVL=1
      DR20        REGSYM    ---      LONG      neg_dat
      DR24        REGSYM    ---      DWORD     pos_dat
      R14         REGSYM    ---      BYTE      temp_data
      R15         REGSYM    ---      BYTE      valid_num
      ---         BLOCKEND  ---      ---       LVL=1
      00FF21D7H   LINE      CODE     ---       #25
      00FF21DFH   LINE      CODE     ---       #26
      00FF21DFH   LINE      CODE     ---       #29
      00FF21DFH   LINE      CODE     ---       #30
      00FF21E1H   LINE      CODE     ---       #32
      00FF21E5H   LINE      CODE     ---       #34
      00FF21E7H   LINE      CODE     ---       #35
      00FF21F7H   LINE      CODE     ---       #36
      00FF21F7H   LINE      CODE     ---       #38
      00FF220DH   LINE      CODE     ---       #39
      00FF221CH   LINE      CODE     ---       #40
      00FF221EH   LINE      CODE     ---       #42
      00FF2224H   LINE      CODE     ---       #43
      00FF2226H   LINE      CODE     ---       #44
      00FF2228H   LINE      CODE     ---       #45
      00FF222AH   LINE      CODE     ---       #48
      00FF222AH   LINE      CODE     ---       #49
      00FF222AH   LINE      CODE     ---       #51
      00FF2239H   LINE      CODE     ---       #52
      00FF2243H   LINE      CODE     ---       #53
      00FF2246H   LINE      CODE     ---       #55
      00FF2249H   LINE      CODE     ---       #57
      00FF2258H   LINE      CODE     ---       #58
      00FF225AH   LINE      CODE     ---       #60
      00FF2260H   LINE      CODE     ---       #61
      00FF2262H   LINE      CODE     ---       #62
      00FF2264H   LINE      CODE     ---       #63
      00FF2264H   LINE      CODE     ---       #64
      00FF2266H   LINE      CODE     ---       #65
      ---         BLOCKEND  ---      ---       LVL=0

      00FF2605H   BLOCK     CODE     ---       LVL=0
L251 LINKER/LOCATER V4.66.93.0                                                        11/16/2023  12:01:34  PAGE 21


      REG=7       REGSYM    ---      ---       d_buff
      DR24        REGSYM    ---      DWORD     len
      00FF2609H   BLOCK     CODE     NEAR LAB  LVL=1
      DR4         REGSYM    ---      DWORD     i
      R3          REGSYM    ---      CHAR      temp_data
      ---         BLOCKEND  ---      ---       LVL=1
      00FF2605H   LINE      CODE     ---       #67
      00FF2609H   LINE      CODE     ---       #68
      00FF2609H   LINE      CODE     ---       #71
      00FF260DH   LINE      CODE     ---       #73
      00FF261CH   LINE      CODE     ---       #74
      00FF262AH   LINE      CODE     ---       #75
      00FF2631H   LINE      CODE     ---       #76
      00FF2642H   LINE      CODE     ---       #77
      ---         BLOCKEND  ---      ---       LVL=0

      00FF0EAEH   BLOCK     CODE     ---       LVL=0
      REG=3       REGSYM    ---      ---       buff
      00000239H   SYMBOL    EDATA    ---       format
      00FF0EB6H   BLOCK     CODE     NEAR LAB  LVL=1
      0000023DH   SYMBOL    EDATA    DWORD     buff_len
      00000241H   SYMBOL    EDATA    ---       arg
      00FF0ECBH   BLOCK     CODE     NEAR LAB  LVL=2
      00000245H   SYMBOL    EDATA    CHAR      ret
      00FF0FF5H   BLOCK     CODE     NEAR LAB  LVL=3
      00000246H   SYMBOL    EDATA    CHAR      ch
      ---         BLOCKEND  ---      ---       LVL=3
      00FF100EH   BLOCK     CODE     NEAR LAB  LVL=3
      00000246H   SYMBOL    EDATA    ---       vstr
      00000267H   SYMBOL    EDATA    LONG      ival
      0000026BH   SYMBOL    EDATA    BYTE      vlen
      ---         BLOCKEND  ---      ---       LVL=3
      00FF1087H   BLOCK     CODE     NEAR LAB  LVL=3
      00000246H   SYMBOL    EDATA    ---       vstr
      00000267H   SYMBOL    EDATA    FLOAT     ival
      0000026BH   SYMBOL    EDATA    BYTE      vlen
      ---         BLOCKEND  ---      ---       LVL=3
      00FF11C2H   BLOCK     CODE     NEAR LAB  LVL=3
      00000246H   SYMBOL    EDATA    ---       vstr
      00000267H   SYMBOL    EDATA    DWORD     ival
      0000026BH   SYMBOL    EDATA    BYTE      vlen
      ---         BLOCKEND  ---      ---       LVL=3
      00FF121AH   BLOCK     CODE     NEAR LAB  LVL=3
      00000246H   SYMBOL    EDATA    ---       vstr
      00000267H   SYMBOL    EDATA    DWORD     ival
      0000026BH   SYMBOL    EDATA    BYTE      vlen
      ---         BLOCKEND  ---      ---       LVL=3
      00FF1271H   BLOCK     CODE     NEAR LAB  LVL=3
      00000246H   SYMBOL    EDATA    ---       vstr
      00000267H   SYMBOL    EDATA    DWORD     ival
      0000026BH   SYMBOL    EDATA    BYTE      vlen
      ---         BLOCKEND  ---      ---       LVL=3
      00FF12D3H   BLOCK     CODE     NEAR LAB  LVL=3
      00000246H   SYMBOL    EDATA    ---       pc
      ---         BLOCKEND  ---      ---       LVL=3
      00FF1315H   BLOCK     CODE     NEAR LAB  LVL=3
      00000246H   SYMBOL    EDATA    ---       vstr
      00000267H   SYMBOL    EDATA    DWORD     ival
      ---         BLOCKEND  ---      ---       LVL=3
      ---         BLOCKEND  ---      ---       LVL=2
      ---         BLOCKEND  ---      ---       LVL=1
      00FF0EAEH   LINE      CODE     ---       #212
      00FF0EB6H   LINE      CODE     ---       #213
      00FF0EB6H   LINE      CODE     ---       #214
      00FF0EBCH   LINE      CODE     ---       #216
L251 LINKER/LOCATER V4.66.93.0                                                        11/16/2023  12:01:34  PAGE 22


      00FF0EC8H   LINE      CODE     ---       #218
      00FF0ECBH   LINE      CODE     ---       #219
      00FF0ECBH   LINE      CODE     ---       #220
      00FF0ED6H   LINE      CODE     ---       #221
      00FF0EDEH   LINE      CODE     ---       #223
      00FF0FF5H   LINE      CODE     ---       #225
      00FF0FF5H   LINE      CODE     ---       #229
      00FF0FF5H   LINE      CODE     ---       #232
      00FF0FF5H   LINE      CODE     ---       #233
      00FF0FF5H   LINE      CODE     ---       #234
      00FF100BH   LINE      CODE     ---       #235
      00FF100BH   LINE      CODE     ---       #236
      00FF100BH   LINE      CODE     ---       #237
      00FF100BH   LINE      CODE     ---       #239
      00FF100EH   LINE      CODE     ---       #242
      00FF100EH   LINE      CODE     ---       #243
      00FF100EH   LINE      CODE     ---       #244
      00FF100EH   LINE      CODE     ---       #246
      00FF1027H   LINE      CODE     ---       #247
      00FF103AH   LINE      CODE     ---       #249
      00FF1044H   LINE      CODE     ---       #251
      00FF1051H   LINE      CODE     ---       #252
      00FF1056H   LINE      CODE     ---       #253
      00FF1056H   LINE      CODE     ---       #254
      00FF1065H   LINE      CODE     ---       #255
      00FF1078H   LINE      CODE     ---       #256
      00FF1080H   LINE      CODE     ---       #257
      00FF1084H   LINE      CODE     ---       #260
      00FF1087H   LINE      CODE     ---       #262
      00FF1087H   LINE      CODE     ---       #263
      00FF1087H   LINE      CODE     ---       #264
      00FF1087H   LINE      CODE     ---       #266
      00FF10A0H   LINE      CODE     ---       #267
      00FF10B6H   LINE      CODE     ---       #269
      00FF10C1H   LINE      CODE     ---       #271
      00FF10CEH   LINE      CODE     ---       #272
      00FF10D3H   LINE      CODE     ---       #273
      00FF10D3H   LINE      CODE     ---       #274
      00FF10E2H   LINE      CODE     ---       #275
      00FF10F5H   LINE      CODE     ---       #276
      00FF10FDH   LINE      CODE     ---       #277
      00FF110FH   LINE      CODE     ---       #279
      00FF1133H   LINE      CODE     ---       #280
      00FF1139H   LINE      CODE     ---       #282
      00FF114BH   LINE      CODE     ---       #283
      00FF114DH   LINE      CODE     ---       #286
      00FF1167H   LINE      CODE     ---       #287
      00FF116DH   LINE      CODE     ---       #288
      00FF116DH   LINE      CODE     ---       #290
      00FF1172H   LINE      CODE     ---       #292
      00FF117CH   LINE      CODE     ---       #293
      00FF1181H   LINE      CODE     ---       #294
      00FF118AH   LINE      CODE     ---       #296
      00FF1192H   LINE      CODE     ---       #297
      00FF1199H   LINE      CODE     ---       #299
      00FF11A8H   LINE      CODE     ---       #300
      00FF11BBH   LINE      CODE     ---       #301
      00FF11BFH   LINE      CODE     ---       #303
      00FF11C2H   LINE      CODE     ---       #306
      00FF11C2H   LINE      CODE     ---       #307
      00FF11C2H   LINE      CODE     ---       #309
      00FF11DBH   LINE      CODE     ---       #310
      00FF11EDH   LINE      CODE     ---       #312
      00FF11F8H   LINE      CODE     ---       #313
      00FF120BH   LINE      CODE     ---       #314
L251 LINKER/LOCATER V4.66.93.0                                                        11/16/2023  12:01:34  PAGE 23


      00FF1213H   LINE      CODE     ---       #315
      00FF1217H   LINE      CODE     ---       #316
      00FF121AH   LINE      CODE     ---       #318
      00FF121AH   LINE      CODE     ---       #319
      00FF121AH   LINE      CODE     ---       #321
      00FF1233H   LINE      CODE     ---       #322
      00FF1245H   LINE      CODE     ---       #324
      00FF1250H   LINE      CODE     ---       #325
      00FF1263H   LINE      CODE     ---       #326
      00FF126BH   LINE      CODE     ---       #327
      00FF126FH   LINE      CODE     ---       #329
      00FF1271H   LINE      CODE     ---       #331
      00FF1271H   LINE      CODE     ---       #332
      00FF1271H   LINE      CODE     ---       #333
      00FF1271H   LINE      CODE     ---       #335
      00FF128AH   LINE      CODE     ---       #336
      00FF129CH   LINE      CODE     ---       #338
      00FF12A7H   LINE      CODE     ---       #339
      00FF12BAH   LINE      CODE     ---       #340
      00FF12C2H   LINE      CODE     ---       #341
      00FF12D0H   LINE      CODE     ---       #342
      00FF12D3H   LINE      CODE     ---       #345
      00FF12D3H   LINE      CODE     ---       #346
      00FF12D3H   LINE      CODE     ---       #347
      00FF12E8H   LINE      CODE     ---       #348
      00FF12EAH   LINE      CODE     ---       #350
      00FF12F4H   LINE      CODE     ---       #351
      00FF12F6H   LINE      CODE     ---       #352
      00FF1300H   LINE      CODE     ---       #353
      00FF130AH   LINE      CODE     ---       #354
      00FF1313H   LINE      CODE     ---       #355
      00FF1315H   LINE      CODE     ---       #357
      00FF1315H   LINE      CODE     ---       #358
      00FF1315H   LINE      CODE     ---       #360
      00FF132EH   LINE      CODE     ---       #362
      00FF133CH   LINE      CODE     ---       #364
      00FF1347H   LINE      CODE     ---       #365
      00FF1358H   LINE      CODE     ---       #366
      00FF135CH   LINE      CODE     ---       #367
      00FF1364H   LINE      CODE     ---       #369
      00FF1366H   LINE      CODE     ---       #372
      00FF1366H   LINE      CODE     ---       #374
      00FF136BH   LINE      CODE     ---       #375
      00FF136DH   LINE      CODE     ---       #376
      00FF1373H   LINE      CODE     ---       #377
      00FF1375H   LINE      CODE     ---       #379
      00FF1375H   LINE      CODE     ---       #380
      00FF1375H   LINE      CODE     ---       #381
      00FF1375H   LINE      CODE     ---       #384
      00FF137FH   LINE      CODE     ---       #385
      00FF1381H   LINE      CODE     ---       #386
      00FF138BH   LINE      CODE     ---       #387
      00FF138BH   LINE      CODE     ---       #388
      00FF1395H   LINE      CODE     ---       #389
      00FF13A1H   LINE      CODE     ---       #392
      00FF13A5H   LINE      CODE     ---       #393
      ---         BLOCKEND  ---      ---       LVL=0

      ---         MODULE    ---      ---       zf_adc
      00000094H   SFRSYM    DATA     BYTE      P0M0
      000000D0H   SFRSYM    DATA     BYTE      PSW
      000000BEH   SFRSYM    DATA     BYTE      ADC_RESL
      00000088H   SFRSYM    DATA     BYTE      TCON
      00000098H   SFRSYM    DATA     BYTE      SCON
      000000BCH   SFRSYM    DATA     BYTE      ADC_CONTR
L251 LINKER/LOCATER V4.66.93.0                                                        11/16/2023  12:01:34  PAGE 24


      000000DEH   SFRSYM    DATA     BYTE      ADCCFG
      000000B8H   SFRSYM    DATA     BYTE      IP
      000000BDH   SFRSYM    DATA     BYTE      ADC_RES
      000000A8H   SFRSYM    DATA     BYTE      IE
      000000F8H   SFRSYM    DATA     BYTE      P7
      000000E8H   SFRSYM    DATA     BYTE      P6
      000000C8H   SFRSYM    DATA     BYTE      P5
      000000C0H   SFRSYM    DATA     BYTE      P4
      000000B0H   SFRSYM    DATA     BYTE      P3
      000000A0H   SFRSYM    DATA     BYTE      P2
      00000090H   SFRSYM    DATA     BYTE      P1
      00000080H   SFRSYM    DATA     BYTE      P0
      00000091H   SFRSYM    DATA     BYTE      P1M1
      00000092H   SFRSYM    DATA     BYTE      P1M0
      00000093H   SFRSYM    DATA     BYTE      P0M1
      WR4         REGSYM    ---      INT       adcn
      WR2         REGSYM    ---      INT       speed
      WR6         REGSYM    ---      INT       adcn
      WR4         REGSYM    ---      INT       resolution
      WR6         REGSYM    ---      WORD      adc_value

      ---         MODULE    ---      ---       zf_delay
      00FF26BCH   PUBLIC    CODE     ---       delay_init
      00FF278EH   PUBLIC    CODE     ---       delay_ms
      00000399H   PUBLIC    EDATA    WORD      zf_delay_ms
      0000039BH   PUBLIC    EDATA    WORD      zf_delay_us
      000000D0H   SFRSYM    DATA     BYTE      PSW
      00000088H   SFRSYM    DATA     BYTE      TCON
      00000098H   SFRSYM    DATA     BYTE      SCON
      000000B8H   SFRSYM    DATA     BYTE      IP
      000000A8H   SFRSYM    DATA     BYTE      IE
      000000F8H   SFRSYM    DATA     BYTE      P7
      000000E8H   SFRSYM    DATA     BYTE      P6
      000000C8H   SFRSYM    DATA     BYTE      P5
      000000C0H   SFRSYM    DATA     BYTE      P4
      000000B0H   SFRSYM    DATA     BYTE      P3
      000000A0H   SFRSYM    DATA     BYTE      P2
      00000090H   SFRSYM    DATA     BYTE      P1
      00000080H   SFRSYM    DATA     BYTE      P0

      00FF26BCH   BLOCK     CODE     ---       LVL=0
      00FF26BCH   LINE      CODE     ---       #34
      00FF26BCH   LINE      CODE     ---       #36
      00FF26CDH   LINE      CODE     ---       #37
      00FF26DEH   LINE      CODE     ---       #38
      00FF26F4H   LINE      CODE     ---       #40
      ---         BLOCKEND  ---      ---       LVL=0

      00FF278EH   BLOCK     CODE     ---       LVL=0
      WR4         REGSYM    ---      WORD      ms
      00FF2790H   BLOCK     CODE     NEAR LAB  LVL=1
      WR6         REGSYM    ---      WORD      i
      ---         BLOCKEND  ---      ---       LVL=1
      00FF278EH   LINE      CODE     ---       #48
      00FF2790H   LINE      CODE     ---       #49
      00FF2790H   LINE      CODE     ---       #51
      00FF2790H   LINE      CODE     ---       #52
      00FF2794H   LINE      CODE     ---       #54
      00FF279CH   LINE      CODE     ---       #55
      00FF27A4H   LINE      CODE     ---       #56
      ---         BLOCKEND  ---      ---       LVL=0
      DR0         REGSYM    ---      DWORD     us
      WR6         REGSYM    ---      WORD      i

      ---         MODULE    ---      ---       zf_eeprom
L251 LINKER/LOCATER V4.66.93.0                                                        11/16/2023  12:01:34  PAGE 25


      000000D0H   SFRSYM    DATA     BYTE      PSW
      000000D0H.5 SFRSYM    DATA     BIT       F0
      000000C6H   SFRSYM    DATA     BYTE      IAP_TRIG
      000000C2H   SFRSYM    DATA     BYTE      IAP_DATA
      000000C7H   SFRSYM    DATA     BYTE      IAP_CONTR
      00000088H   SFRSYM    DATA     BYTE      TCON
      00000098H   SFRSYM    DATA     BYTE      SCON
      000000F5H   SFRSYM    DATA     BYTE      IAP_TPS
      000000C4H   SFRSYM    DATA     BYTE      IAP_ADDRL
      000000C3H   SFRSYM    DATA     BYTE      IAP_ADDRH
      000000F6H   SFRSYM    DATA     BYTE      IAP_ADDRE
      000000B8H   SFRSYM    DATA     BYTE      IP
      000000C5H   SFRSYM    DATA     BYTE      IAP_CMD
      000000A8H   SFRSYM    DATA     BYTE      IE
      000000F8H   SFRSYM    DATA     BYTE      P7
      000000A8H.7 SFRSYM    DATA     BIT       EA
      000000E8H   SFRSYM    DATA     BYTE      P6
      000000C8H   SFRSYM    DATA     BYTE      P5
      000000C0H   SFRSYM    DATA     BYTE      P4
      000000B0H   SFRSYM    DATA     BYTE      P3
      000000A0H   SFRSYM    DATA     BYTE      P2
      00000090H   SFRSYM    DATA     BYTE      P1
      00000080H   SFRSYM    DATA     BYTE      P0
      R11         REGSYM    ---      BYTE      write_time
      REG=3       REGSYM    ---      ---       buf
      REG=3       REGSYM    ---      ---       buf
      WR6         REGSYM    ---      WORD      addr
      REG=3       REGSYM    ---      ---       buf
      WR6         REGSYM    ---      WORD      i

      ---         MODULE    ---      ---       zf_exti
      000000D0H   SFRSYM    DATA     BYTE      PSW
      00000088H.2 SFRSYM    DATA     BIT       IT1
      000000A8H.2 SFRSYM    DATA     BIT       EX1
      00000088H.0 SFRSYM    DATA     BIT       IT0
      000000A8H.0 SFRSYM    DATA     BIT       EX0
      00000088H   SFRSYM    DATA     BYTE      TCON
      00000098H   SFRSYM    DATA     BYTE      SCON
      000000B8H   SFRSYM    DATA     BYTE      IP
      0000008FH   SFRSYM    DATA     BYTE      INTCLKO
      000000A8H   SFRSYM    DATA     BYTE      IE
      000000F8H   SFRSYM    DATA     BYTE      P7
      000000E8H   SFRSYM    DATA     BYTE      P6
      000000C8H   SFRSYM    DATA     BYTE      P5
      000000C0H   SFRSYM    DATA     BYTE      P4
      000000B0H   SFRSYM    DATA     BYTE      P3
      000000A0H   SFRSYM    DATA     BYTE      P2
      00000090H   SFRSYM    DATA     BYTE      P1
      00000080H   SFRSYM    DATA     BYTE      P0
      WR4         REGSYM    ---      INT       int_n
      WR2         REGSYM    ---      INT       mode

      ---         MODULE    ---      ---       zf_gpio
      00FF13A8H   PUBLIC    CODE     ---       gpio_mode
      00000094H   SFRSYM    DATA     BYTE      P0M0
      000000D0H   SFRSYM    DATA     BYTE      PSW
      00000088H   SFRSYM    DATA     BYTE      TCON
      00000098H   SFRSYM    DATA     BYTE      SCON
      000000B8H   SFRSYM    DATA     BYTE      IP
      000000A8H   SFRSYM    DATA     BYTE      IE
      000000F8H   SFRSYM    DATA     BYTE      P7
      000000E1H   SFRSYM    DATA     BYTE      P7M1
      000000E8H   SFRSYM    DATA     BYTE      P6
      000000C8H   SFRSYM    DATA     BYTE      P5
      000000CBH   SFRSYM    DATA     BYTE      P6M1
L251 LINKER/LOCATER V4.66.93.0                                                        11/16/2023  12:01:34  PAGE 26


      000000E2H   SFRSYM    DATA     BYTE      P7M0
      000000C0H   SFRSYM    DATA     BYTE      P4
      000000C9H   SFRSYM    DATA     BYTE      P5M1
      000000CCH   SFRSYM    DATA     BYTE      P6M0
      000000B0H   SFRSYM    DATA     BYTE      P3
      000000B3H   SFRSYM    DATA     BYTE      P4M1
      000000CAH   SFRSYM    DATA     BYTE      P5M0
      000000A0H   SFRSYM    DATA     BYTE      P2
      000000B1H   SFRSYM    DATA     BYTE      P3M1
      000000B4H   SFRSYM    DATA     BYTE      P4M0
      00000090H   SFRSYM    DATA     BYTE      P1
      00000095H   SFRSYM    DATA     BYTE      P2M1
      000000B2H   SFRSYM    DATA     BYTE      P3M0
      00000080H   SFRSYM    DATA     BYTE      P0
      00000091H   SFRSYM    DATA     BYTE      P1M1
      00000096H   SFRSYM    DATA     BYTE      P2M0
      00000092H   SFRSYM    DATA     BYTE      P1M0
      00000093H   SFRSYM    DATA     BYTE      P0M1
      WR4         REGSYM    ---      INT       pin
      WR2         REGSYM    ---      INT       pull

      00FF13A8H   BLOCK     CODE     ---       LVL=0
      WR4         REGSYM    ---      INT       pin
      WR2         REGSYM    ---      INT       mode
      00FF13A8H   LINE      CODE     ---       #54
      00FF13ACH   LINE      CODE     ---       #56
      00FF13B3H   LINE      CODE     ---       #58
      00FF13BBH   LINE      CODE     ---       #60
      00FF13D3H   LINE      CODE     ---       #61
      00FF13D5H   LINE      CODE     ---       #62
      00FF13D5H   LINE      CODE     ---       #63
      00FF13DBH   LINE      CODE     ---       #65
      00FF13F3H   LINE      CODE     ---       #66
      00FF13F5H   LINE      CODE     ---       #67
      00FF13F5H   LINE      CODE     ---       #68
      00FF13FBH   LINE      CODE     ---       #70
      00FF1413H   LINE      CODE     ---       #71
      00FF1415H   LINE      CODE     ---       #72
      00FF1415H   LINE      CODE     ---       #74
      00FF141BH   LINE      CODE     ---       #76
      00FF1433H   LINE      CODE     ---       #77
      00FF1435H   LINE      CODE     ---       #78
      00FF1435H   LINE      CODE     ---       #79
      00FF143BH   LINE      CODE     ---       #81
      00FF1453H   LINE      CODE     ---       #82
      00FF1455H   LINE      CODE     ---       #83
      00FF1455H   LINE      CODE     ---       #84
      00FF145BH   LINE      CODE     ---       #86
      00FF1473H   LINE      CODE     ---       #87
      00FF1475H   LINE      CODE     ---       #88
      00FF1475H   LINE      CODE     ---       #89
      00FF147BH   LINE      CODE     ---       #91
      00FF1493H   LINE      CODE     ---       #92
      00FF1495H   LINE      CODE     ---       #93
      00FF1495H   LINE      CODE     ---       #94
      00FF149EH   LINE      CODE     ---       #96
      00FF14B6H   LINE      CODE     ---       #97
      00FF14B8H   LINE      CODE     ---       #98
      00FF14B9H   LINE      CODE     ---       #100
      00FF14C2H   LINE      CODE     ---       #102
      00FF14CAH   LINE      CODE     ---       #104
      00FF14DFH   LINE      CODE     ---       #105
      00FF14E3H   LINE      CODE     ---       #106
      00FF14E3H   LINE      CODE     ---       #107
      00FF14E9H   LINE      CODE     ---       #109
L251 LINKER/LOCATER V4.66.93.0                                                        11/16/2023  12:01:34  PAGE 27


      00FF14FEH   LINE      CODE     ---       #110
      00FF1502H   LINE      CODE     ---       #111
      00FF1502H   LINE      CODE     ---       #112
      00FF1508H   LINE      CODE     ---       #114
      00FF151DH   LINE      CODE     ---       #115
      00FF1521H   LINE      CODE     ---       #116
      00FF1521H   LINE      CODE     ---       #118
      00FF1527H   LINE      CODE     ---       #120
      00FF153CH   LINE      CODE     ---       #121
      00FF1540H   LINE      CODE     ---       #122
      00FF1540H   LINE      CODE     ---       #123
      00FF1546H   LINE      CODE     ---       #125
      00FF155BH   LINE      CODE     ---       #126
      00FF155FH   LINE      CODE     ---       #127
      00FF155FH   LINE      CODE     ---       #128
      00FF1565H   LINE      CODE     ---       #130
      00FF157AH   LINE      CODE     ---       #131
      00FF157EH   LINE      CODE     ---       #132
      00FF157EH   LINE      CODE     ---       #133
      00FF1584H   LINE      CODE     ---       #135
      00FF1599H   LINE      CODE     ---       #136
      00FF159DH   LINE      CODE     ---       #137
      00FF159DH   LINE      CODE     ---       #138
      00FF15A6H   LINE      CODE     ---       #140
      00FF15BDH   LINE      CODE     ---       #141
      00FF15BDH   LINE      CODE     ---       #142
      00FF15C0H   LINE      CODE     ---       #145
      00FF15C9H   LINE      CODE     ---       #147
      00FF15D1H   LINE      CODE     ---       #149
      00FF15E4H   LINE      CODE     ---       #150
      00FF15E8H   LINE      CODE     ---       #151
      00FF15E8H   LINE      CODE     ---       #152
      00FF15EEH   LINE      CODE     ---       #154
      00FF1601H   LINE      CODE     ---       #155
      00FF1605H   LINE      CODE     ---       #156
      00FF1605H   LINE      CODE     ---       #157
      00FF160BH   LINE      CODE     ---       #159
      00FF161EH   LINE      CODE     ---       #160
      00FF1622H   LINE      CODE     ---       #161
      00FF1622H   LINE      CODE     ---       #163
      00FF1628H   LINE      CODE     ---       #165
      00FF163BH   LINE      CODE     ---       #166
      00FF163FH   LINE      CODE     ---       #167
      00FF163FH   LINE      CODE     ---       #168
      00FF1645H   LINE      CODE     ---       #170
      00FF1658H   LINE      CODE     ---       #171
      00FF165CH   LINE      CODE     ---       #172
      00FF165CH   LINE      CODE     ---       #173
      00FF1662H   LINE      CODE     ---       #175
      00FF1675H   LINE      CODE     ---       #176
      00FF1679H   LINE      CODE     ---       #177
      00FF1679H   LINE      CODE     ---       #178
      00FF167FH   LINE      CODE     ---       #180
      00FF1692H   LINE      CODE     ---       #181
      00FF1696H   LINE      CODE     ---       #182
      00FF1696H   LINE      CODE     ---       #183
      00FF169FH   LINE      CODE     ---       #185
      00FF16B2H   LINE      CODE     ---       #186
      00FF16B6H   LINE      CODE     ---       #187
      00FF16B7H   LINE      CODE     ---       #189
      00FF16C0H   LINE      CODE     ---       #191
      00FF16C8H   LINE      CODE     ---       #193
      00FF16DBH   LINE      CODE     ---       #194
      00FF16DDH   LINE      CODE     ---       #195
      00FF16DDH   LINE      CODE     ---       #196
L251 LINKER/LOCATER V4.66.93.0                                                        11/16/2023  12:01:34  PAGE 28


      00FF16E3H   LINE      CODE     ---       #198
      00FF16F6H   LINE      CODE     ---       #199
      00FF16F8H   LINE      CODE     ---       #200
      00FF16F8H   LINE      CODE     ---       #201
      00FF16FEH   LINE      CODE     ---       #203
      00FF1711H   LINE      CODE     ---       #204
      00FF1713H   LINE      CODE     ---       #205
      00FF1713H   LINE      CODE     ---       #207
      00FF1719H   LINE      CODE     ---       #209
      00FF172CH   LINE      CODE     ---       #210
      00FF172EH   LINE      CODE     ---       #211
      00FF172EH   LINE      CODE     ---       #212
      00FF1734H   LINE      CODE     ---       #214
      00FF1747H   LINE      CODE     ---       #215
      00FF1749H   LINE      CODE     ---       #216
      00FF1749H   LINE      CODE     ---       #217
      00FF174FH   LINE      CODE     ---       #219
      00FF1762H   LINE      CODE     ---       #220
      00FF1764H   LINE      CODE     ---       #221
      00FF1764H   LINE      CODE     ---       #222
      00FF176AH   LINE      CODE     ---       #224
      00FF177DH   LINE      CODE     ---       #225
      00FF177FH   LINE      CODE     ---       #226
      00FF177FH   LINE      CODE     ---       #227
      00FF1785H   LINE      CODE     ---       #229
      00FF179AH   LINE      CODE     ---       #230
      00FF179EH   LINE      CODE     ---       #231
      00FF179EH   LINE      CODE     ---       #233
      ---         BLOCKEND  ---      ---       LVL=0

      ---         MODULE    ---      ---       zf_iic
      000000D0H   SFRSYM    DATA     BYTE      PSW
      00000088H   SFRSYM    DATA     BYTE      TCON
      00000098H   SFRSYM    DATA     BYTE      SCON
      000000B8H   SFRSYM    DATA     BYTE      IP
      000000A8H   SFRSYM    DATA     BYTE      IE
      000000BAH   SFRSYM    DATA     BYTE      P_SW2
      000000F8H   SFRSYM    DATA     BYTE      P7
      000000E8H   SFRSYM    DATA     BYTE      P6
      000000C8H   SFRSYM    DATA     BYTE      P5
      000000C0H   SFRSYM    DATA     BYTE      P4
      000000B0H   SFRSYM    DATA     BYTE      P3
      000000A0H   SFRSYM    DATA     BYTE      P2
      00000090H   SFRSYM    DATA     BYTE      P1
      00000080H   SFRSYM    DATA     BYTE      P0
      WR6         REGSYM    ---      WORD      x
      R10         REGSYM    ---      BYTE      i
      WR12        REGSYM    ---      WORD      count
      R15         REGSYM    ---      BYTE      ret
      R11         REGSYM    ---      BYTE      ret
      R11         REGSYM    ---      CHAR      dat
      R11         REGSYM    ---      BYTE      ret
      R11         REGSYM    ---      BYTE      ret
      R11         REGSYM    ---      BYTE      ret
      R11         REGSYM    ---      BYTE      ret
      WR6         REGSYM    ---      INT       iic_n
      R13         REGSYM    ---      BYTE      dev_add
      R14         REGSYM    ---      BYTE      reg
      R15         REGSYM    ---      BYTE      dat
      R15         REGSYM    ---      BYTE      dev_add
      R14         REGSYM    ---      BYTE      reg
      REG=3       REGSYM    ---      ---       dat
      WR6         REGSYM    ---      INT       iic_n

      ---         MODULE    ---      ---       zf_nvic
L251 LINKER/LOCATER V4.66.93.0                                                        11/16/2023  12:01:34  PAGE 29


      000000D0H   SFRSYM    DATA     BYTE      PSW
      000000B7H   SFRSYM    DATA     BYTE      IPH
      000000B5H   SFRSYM    DATA     BYTE      IP2
      00000088H   SFRSYM    DATA     BYTE      TCON
      00000098H   SFRSYM    DATA     BYTE      SCON
      000000B8H   SFRSYM    DATA     BYTE      IP
      000000B6H   SFRSYM    DATA     BYTE      IP2H
      000000A8H   SFRSYM    DATA     BYTE      IE
      000000F8H   SFRSYM    DATA     BYTE      P7
      000000E8H   SFRSYM    DATA     BYTE      P6
      000000C8H   SFRSYM    DATA     BYTE      P5
      000000C0H   SFRSYM    DATA     BYTE      P4
      000000B0H   SFRSYM    DATA     BYTE      P3
      000000A0H   SFRSYM    DATA     BYTE      P2
      00000090H   SFRSYM    DATA     BYTE      P1
      00000080H   SFRSYM    DATA     BYTE      P0
      WR4         REGSYM    ---      INT       irqn
      R3          REGSYM    ---      BYTE      priority

      ---         MODULE    ---      ---       zf_pwm
      00FF27F4H   PUBLIC    HCONST   ---       PWM_CCR_ADDR
      00FF2814H   PUBLIC    HCONST   ---       PWM_ARR_ADDR
      00FF281CH   PUBLIC    HCONST   ---       PWM_CCER_ADDR
      00FF282CH   PUBLIC    HCONST   ---       PWM_CCMR_ADDR
      000000D0H   SFRSYM    DATA     BYTE      PSW
      00000088H   SFRSYM    DATA     BYTE      TCON
      00000098H   SFRSYM    DATA     BYTE      SCON
      000000B8H   SFRSYM    DATA     BYTE      IP
      000000A8H   SFRSYM    DATA     BYTE      IE
      000000BAH   SFRSYM    DATA     BYTE      P_SW2
      000000F8H   SFRSYM    DATA     BYTE      P7
      000000E8H   SFRSYM    DATA     BYTE      P6
      000000C8H   SFRSYM    DATA     BYTE      P5
      000000C0H   SFRSYM    DATA     BYTE      P4
      000000B0H   SFRSYM    DATA     BYTE      P3
      000000A0H   SFRSYM    DATA     BYTE      P2
      00000090H   SFRSYM    DATA     BYTE      P1
      00000080H   SFRSYM    DATA     BYTE      P0
      WR6         REGSYM    ---      INT       pwmch
      WR14        REGSYM    ---      INT       pwmch
      DR4         REGSYM    ---      DWORD     match_temp
      DR28        REGSYM    ---      DWORD     period_temp
      WR26        REGSYM    ---      WORD      freq_div
      WR30        REGSYM    ---      INT       pwmch
      DR24        REGSYM    ---      DWORD     duty
      DR0         REGSYM    ---      DWORD     match_temp
      DR20        REGSYM    ---      DWORD     arr
      WR30        REGSYM    ---      INT       pwmch
      DR24        REGSYM    ---      DWORD     freq
      DR0         REGSYM    ---      DWORD     match_temp
      DR24        REGSYM    ---      DWORD     period_temp
      WR28        REGSYM    ---      WORD      freq_div

      ---         MODULE    ---      ---       zf_spi
      00FF204CH   PUBLIC    CODE     ---       spi_init
      00FF27A5H   PUBLIC    CODE     ---       spi_mosi
      000001D9H   PUBLIC    EDATA    BYTE      ?spi_init?BYTE
      000000CFH   SFRSYM    DATA     BYTE      SPDAT
      000000D0H   SFRSYM    DATA     BYTE      PSW
      000000CDH   SFRSYM    DATA     BYTE      SPSTAT
      00000088H   SFRSYM    DATA     BYTE      TCON
      00000098H   SFRSYM    DATA     BYTE      SCON
      000000B8H   SFRSYM    DATA     BYTE      IP
      000000A8H   SFRSYM    DATA     BYTE      IE
      000000A2H   SFRSYM    DATA     BYTE      P_SW1
L251 LINKER/LOCATER V4.66.93.0                                                        11/16/2023  12:01:34  PAGE 30


      000000CEH   SFRSYM    DATA     BYTE      SPCTL
      000000F8H   SFRSYM    DATA     BYTE      P7
      000000E8H   SFRSYM    DATA     BYTE      P6
      000000C8H   SFRSYM    DATA     BYTE      P5
      000000C0H   SFRSYM    DATA     BYTE      P4
      000000B0H   SFRSYM    DATA     BYTE      P3
      000000A0H   SFRSYM    DATA     BYTE      P2
      00000090H   SFRSYM    DATA     BYTE      P1
      00000080H   SFRSYM    DATA     BYTE      P0

      00FF204CH   BLOCK     CODE     ---       LVL=0
      WR14        REGSYM    ---      INT       spi_n
      R13         REGSYM    ---      BYTE      mode
      000001E2H   SYMBOL    EDATA    INT       mstr
      000001E4H   SYMBOL    EDATA    INT       baud
      00FF204CH   LINE      CODE     ---       #39
      00FF2054H   LINE      CODE     ---       #47
      00FF2066H   LINE      CODE     ---       #50
      00FF2066H   LINE      CODE     ---       #51
      00FF206FH   LINE      CODE     ---       #52
      00FF2078H   LINE      CODE     ---       #53
      00FF207CH   LINE      CODE     ---       #54
      00FF207EH   LINE      CODE     ---       #55
      00FF207EH   LINE      CODE     ---       #56
      00FF2087H   LINE      CODE     ---       #57
      00FF2090H   LINE      CODE     ---       #58
      00FF2094H   LINE      CODE     ---       #59
      00FF2096H   LINE      CODE     ---       #60
      00FF2096H   LINE      CODE     ---       #61
      00FF209FH   LINE      CODE     ---       #62
      00FF20A8H   LINE      CODE     ---       #63
      00FF20ACH   LINE      CODE     ---       #64
      00FF20AEH   LINE      CODE     ---       #65
      00FF20AEH   LINE      CODE     ---       #66
      00FF20B7H   LINE      CODE     ---       #67
      00FF20C0H   LINE      CODE     ---       #68
      00FF20C9H   LINE      CODE     ---       #69
      00FF20C9H   LINE      CODE     ---       #70
      00FF20C9H   LINE      CODE     ---       #72
      00FF20CCH   LINE      CODE     ---       #73
      00FF20DEH   LINE      CODE     ---       #75
      00FF20DEH   LINE      CODE     ---       #76
      00FF20E2H   LINE      CODE     ---       #77
      00FF20E4H   LINE      CODE     ---       #78
      00FF20E4H   LINE      CODE     ---       #79
      00FF20E7H   LINE      CODE     ---       #80
      00FF20E9H   LINE      CODE     ---       #81
      00FF20E9H   LINE      CODE     ---       #82
      00FF20ECH   LINE      CODE     ---       #83
      00FF20EEH   LINE      CODE     ---       #84
      00FF20EEH   LINE      CODE     ---       #85
      00FF20F1H   LINE      CODE     ---       #86
      00FF20F1H   LINE      CODE     ---       #87
      00FF20F1H   LINE      CODE     ---       #89
      00FF20F4H   LINE      CODE     ---       #90
      00FF2100H   LINE      CODE     ---       #92
      00FF2100H   LINE      CODE     ---       #94
      00FF2100H   LINE      CODE     ---       #95
      00FF2100H   LINE      CODE     ---       #96
      00FF2103H   LINE      CODE     ---       #97
      00FF2105H   LINE      CODE     ---       #98
      00FF2105H   LINE      CODE     ---       #99
      00FF2108H   LINE      CODE     ---       #100
      00FF210AH   LINE      CODE     ---       #101
      00FF210AH   LINE      CODE     ---       #102
L251 LINKER/LOCATER V4.66.93.0                                                        11/16/2023  12:01:34  PAGE 31


      00FF210DH   LINE      CODE     ---       #103
      00FF210DH   LINE      CODE     ---       #104
      00FF210DH   LINE      CODE     ---       #107
      00FF2115H   LINE      CODE     ---       #109
      00FF211DH   LINE      CODE     ---       #111
      00FF2120H   LINE      CODE     ---       #112
      00FF2123H   LINE      CODE     ---       #113
      00FF2123H   LINE      CODE     ---       #117
      00FF2123H   LINE      CODE     ---       #118
      00FF2126H   LINE      CODE     ---       #119
      ---         BLOCKEND  ---      ---       LVL=0

      00FF27A5H   BLOCK     CODE     ---       LVL=0
      R11         REGSYM    ---      BYTE      dat
      00FF27A5H   LINE      CODE     ---       #129
      00FF27A5H   LINE      CODE     ---       #131
      00FF27A8H   LINE      CODE     ---       #132
      00FF27ADH   LINE      CODE     ---       #133
      00FF27B0H   LINE      CODE     ---       #134
      00FF27B2H   LINE      CODE     ---       #135
      ---         BLOCKEND  ---      ---       LVL=0
      WR14        REGSYM    ---      INT       spi_n
      R7          REGSYM    ---      BYTE      mode

      ---         MODULE    ---      ---       zf_tim
      000000D0H   SFRSYM    DATA     BYTE      PSW
      000000DDH   SFRSYM    DATA     BYTE      T4T3M
      00000088H.6 SFRSYM    DATA     BIT       TR1
      00000088H.4 SFRSYM    DATA     BIT       TR0
      000000D3H   SFRSYM    DATA     BYTE      T4L
      000000D5H   SFRSYM    DATA     BYTE      T3L
      000000D7H   SFRSYM    DATA     BYTE      T2L
      0000008BH   SFRSYM    DATA     BYTE      TL1
      0000008AH   SFRSYM    DATA     BYTE      TL0
      000000D2H   SFRSYM    DATA     BYTE      T4H
      000000D4H   SFRSYM    DATA     BYTE      T3H
      000000D6H   SFRSYM    DATA     BYTE      T2H
      0000008DH   SFRSYM    DATA     BYTE      TH1
      0000008CH   SFRSYM    DATA     BYTE      TH0
      000000A8H.3 SFRSYM    DATA     BIT       ET1
      000000A8H.1 SFRSYM    DATA     BIT       ET0
      0000008EH   SFRSYM    DATA     BYTE      AUXR
      000000AFH   SFRSYM    DATA     BYTE      IE2
      00000088H   SFRSYM    DATA     BYTE      TCON
      00000089H   SFRSYM    DATA     BYTE      TMOD
      00000098H   SFRSYM    DATA     BYTE      SCON
      000000B8H   SFRSYM    DATA     BYTE      IP
      000000A8H   SFRSYM    DATA     BYTE      IE
      000000F8H   SFRSYM    DATA     BYTE      P7
      000000E8H   SFRSYM    DATA     BYTE      P6
      000000C8H   SFRSYM    DATA     BYTE      P5
      000000C0H   SFRSYM    DATA     BYTE      P4
      000000B0H   SFRSYM    DATA     BYTE      P3
      000000A0H   SFRSYM    DATA     BYTE      P2
      00000090H   SFRSYM    DATA     BYTE      P1
      00000080H   SFRSYM    DATA     BYTE      P0
      WR6         REGSYM    ---      INT       tim_n
      WR4         REGSYM    ---      INT       tim_n
      WR6         REGSYM    ---      WORD      dat
      WR6         REGSYM    ---      INT       tim_n
      WR30        REGSYM    ---      INT       tim_n
      WR28        REGSYM    ---      WORD      time_ms
      WR28        REGSYM    ---      WORD      temp

      ---         MODULE    ---      ---       zf_uart
L251 LINKER/LOCATER V4.66.93.0                                                        11/16/2023  12:01:34  PAGE 32


      00FF1B48H   PUBLIC    CODE     ---       uart_init
      00000109H   PUBLIC    EDATA    ---       uart1_rx_buff
      0000016DH   PUBLIC    EDATA    ---       uart1_tx_buff
      000001D1H   PUBLIC    EDATA    ---       busy
      000001DCH   PUBLIC    EDATA    BYTE      ?uart_init?BYTE
      000000D0H   SFRSYM    DATA     BYTE      PSW
      000000FDH   SFRSYM    DATA     BYTE      S4CON
      000000ACH   SFRSYM    DATA     BYTE      S3CON
      0000009AH   SFRSYM    DATA     BYTE      S2CON
      000000FEH   SFRSYM    DATA     BYTE      S4BUF
      000000ADH   SFRSYM    DATA     BYTE      S3BUF
      0000009BH   SFRSYM    DATA     BYTE      S2BUF
      000000DDH   SFRSYM    DATA     BYTE      T4T3M
      00000088H.6 SFRSYM    DATA     BIT       TR1
      000000D3H   SFRSYM    DATA     BYTE      T4L
      000000D5H   SFRSYM    DATA     BYTE      T3L
      000000D7H   SFRSYM    DATA     BYTE      T2L
      0000008BH   SFRSYM    DATA     BYTE      TL1
      000000D2H   SFRSYM    DATA     BYTE      T4H
      000000D4H   SFRSYM    DATA     BYTE      T3H
      000000D6H   SFRSYM    DATA     BYTE      T2H
      0000008DH   SFRSYM    DATA     BYTE      TH1
      0000008EH   SFRSYM    DATA     BYTE      AUXR
      000000AFH   SFRSYM    DATA     BYTE      IE2
      00000088H   SFRSYM    DATA     BYTE      TCON
      00000089H   SFRSYM    DATA     BYTE      TMOD
      00000098H   SFRSYM    DATA     BYTE      SCON
      00000099H   SFRSYM    DATA     BYTE      SBUF
      000000B8H   SFRSYM    DATA     BYTE      IP
      000000A8H.4 SFRSYM    DATA     BIT       ES
      000000A8H   SFRSYM    DATA     BYTE      IE
      000000BAH   SFRSYM    DATA     BYTE      P_SW2
      000000A2H   SFRSYM    DATA     BYTE      P_SW1
      000000F8H   SFRSYM    DATA     BYTE      P7
      000000E8H   SFRSYM    DATA     BYTE      P6
      000000C8H   SFRSYM    DATA     BYTE      P5
      000000C0H   SFRSYM    DATA     BYTE      P4
      000000C9H   SFRSYM    DATA     BYTE      P5M1
      000000B0H   SFRSYM    DATA     BYTE      P3
      000000CAH   SFRSYM    DATA     BYTE      P5M0
      000000A0H   SFRSYM    DATA     BYTE      P2
      00000090H   SFRSYM    DATA     BYTE      P1
      00000080H   SFRSYM    DATA     BYTE      P0

      00FF1B48H   BLOCK     CODE     ---       LVL=0
      WR24        REGSYM    ---      INT       uart_n
      WR28        REGSYM    ---      INT       uart_rx_pin
      WR30        REGSYM    ---      INT       uart_tx_pin
      000001E2H   SYMBOL    EDATA    DWORD     baud
      WR26        REGSYM    ---      INT       tim_n
      00FF1B50H   BLOCK     CODE     NEAR LAB  LVL=1
      WR6         REGSYM    ---      WORD      brt
      ---         BLOCKEND  ---      ---       LVL=1
      00FF1B48H   LINE      CODE     ---       #48
      00FF1B50H   LINE      CODE     ---       #49
      00FF1B50H   LINE      CODE     ---       #52
      00FF1B73H   LINE      CODE     ---       #55
      00FF1B91H   LINE      CODE     ---       #57
      00FF1B91H   LINE      CODE     ---       #59
      00FF1B97H   LINE      CODE     ---       #61
      00FF1B9AH   LINE      CODE     ---       #62
      00FF1B9EH   LINE      CODE     ---       #63
      00FF1BA2H   LINE      CODE     ---       #64
      00FF1BA6H   LINE      CODE     ---       #65
      00FF1BA9H   LINE      CODE     ---       #66
L251 LINKER/LOCATER V4.66.93.0                                                        11/16/2023  12:01:34  PAGE 33


      00FF1BABH   LINE      CODE     ---       #67
      00FF1BB0H   LINE      CODE     ---       #68
      00FF1BB2H   LINE      CODE     ---       #69
      00FF1BB8H   LINE      CODE     ---       #71
      00FF1BBBH   LINE      CODE     ---       #72
      00FF1BBFH   LINE      CODE     ---       #73
      00FF1BC3H   LINE      CODE     ---       #74
      00FF1BC6H   LINE      CODE     ---       #75
      00FF1BC6H   LINE      CODE     ---       #76
      00FF1BC9H   LINE      CODE     ---       #77
      00FF1BD3H   LINE      CODE     ---       #79
      00FF1BD7H   LINE      CODE     ---       #80
      00FF1BD9H   LINE      CODE     ---       #81
      00FF1BE5H   LINE      CODE     ---       #83
      00FF1BE8H   LINE      CODE     ---       #84
      00FF1BEAH   LINE      CODE     ---       #85
      00FF1BF6H   LINE      CODE     ---       #87
      00FF1BF9H   LINE      CODE     ---       #88
      00FF1BFBH   LINE      CODE     ---       #89
      00FF1C07H   LINE      CODE     ---       #91
      00FF1C0AH   LINE      CODE     ---       #92
      00FF1C0AH   LINE      CODE     ---       #93
      00FF1C0FH   LINE      CODE     ---       #94
      00FF1C11H   LINE      CODE     ---       #95
      00FF1C12H   LINE      CODE     ---       #98
      00FF1C12H   LINE      CODE     ---       #100
      00FF1C18H   LINE      CODE     ---       #102
      00FF1C1BH   LINE      CODE     ---       #103
      00FF1C1FH   LINE      CODE     ---       #104
      00FF1C23H   LINE      CODE     ---       #105
      00FF1C26H   LINE      CODE     ---       #106
      00FF1C26H   LINE      CODE     ---       #108
      00FF1C29H   LINE      CODE     ---       #109
      00FF1C35H   LINE      CODE     ---       #111
      00FF1C39H   LINE      CODE     ---       #112
      00FF1C3BH   LINE      CODE     ---       #113
      00FF1C47H   LINE      CODE     ---       #115
      00FF1C4AH   LINE      CODE     ---       #116
      00FF1C4AH   LINE      CODE     ---       #118
      00FF1C4DH   LINE      CODE     ---       #119
      00FF1C52H   LINE      CODE     ---       #120
      00FF1C53H   LINE      CODE     ---       #123
      00FF1C53H   LINE      CODE     ---       #125
      00FF1C59H   LINE      CODE     ---       #127
      00FF1C5CH   LINE      CODE     ---       #128
      00FF1C60H   LINE      CODE     ---       #129
      00FF1C64H   LINE      CODE     ---       #130
      00FF1C67H   LINE      CODE     ---       #131
      00FF1C69H   LINE      CODE     ---       #132
      00FF1C6FH   LINE      CODE     ---       #134
      00FF1C72H   LINE      CODE     ---       #135
      00FF1C76H   LINE      CODE     ---       #136
      00FF1C7AH   LINE      CODE     ---       #137
      00FF1C7DH   LINE      CODE     ---       #138
      00FF1C7DH   LINE      CODE     ---       #140
      00FF1C80H   LINE      CODE     ---       #141
      00FF1C8CH   LINE      CODE     ---       #143
      00FF1C90H   LINE      CODE     ---       #144
      00FF1C92H   LINE      CODE     ---       #145
      00FF1C9EH   LINE      CODE     ---       #147
      00FF1CA1H   LINE      CODE     ---       #148
      00FF1CA1H   LINE      CODE     ---       #150
      00FF1CA4H   LINE      CODE     ---       #151
      00FF1CA9H   LINE      CODE     ---       #152
      00FF1CAAH   LINE      CODE     ---       #155
L251 LINKER/LOCATER V4.66.93.0                                                        11/16/2023  12:01:34  PAGE 34


      00FF1CAAH   LINE      CODE     ---       #157
      00FF1CB0H   LINE      CODE     ---       #159
      00FF1CB3H   LINE      CODE     ---       #160
      00FF1CB7H   LINE      CODE     ---       #161
      00FF1CBBH   LINE      CODE     ---       #162
      00FF1CBEH   LINE      CODE     ---       #163
      00FF1CC0H   LINE      CODE     ---       #164
      00FF1CC6H   LINE      CODE     ---       #166
      00FF1CC9H   LINE      CODE     ---       #167
      00FF1CCDH   LINE      CODE     ---       #168
      00FF1CD1H   LINE      CODE     ---       #169
      00FF1CD4H   LINE      CODE     ---       #170
      00FF1CD4H   LINE      CODE     ---       #172
      00FF1CD7H   LINE      CODE     ---       #173
      00FF1CE3H   LINE      CODE     ---       #175
      00FF1CE7H   LINE      CODE     ---       #176
      00FF1CE9H   LINE      CODE     ---       #177
      00FF1CF5H   LINE      CODE     ---       #179
      00FF1CF8H   LINE      CODE     ---       #180
      00FF1CFBH   LINE      CODE     ---       #181
      00FF1CFEH   LINE      CODE     ---       #182
      00FF1CFEH   LINE      CODE     ---       #183
      00FF1D01H   LINE      CODE     ---       #184
      00FF1D06H   LINE      CODE     ---       #185
      00FF1D06H   LINE      CODE     ---       #188
      00FF1D06H   LINE      CODE     ---       #190
      ---         BLOCKEND  ---      ---       LVL=0
      WR6         REGSYM    ---      INT       uart_n
      R10         REGSYM    ---      BYTE      dat
      REG=3       REGSYM    ---      ---       p
      REG=3       REGSYM    ---      ---       str

      ---         MODULE    ---      ---       zf_fifo
      00FF2584H   PUBLIC    CODE     ---       fifo_head_offset
      00FF1F6CH   PUBLIC    CODE     ---       fifo_write_buffer
      000001D2H   PUBLIC    EDATA    BYTE      ?fifo_write_buffer?BYTE
      000000D0H   SFRSYM    DATA     BYTE      PSW
      00000088H   SFRSYM    DATA     BYTE      TCON
      00000098H   SFRSYM    DATA     BYTE      SCON
      000000B8H   SFRSYM    DATA     BYTE      IP
      000000A8H   SFRSYM    DATA     BYTE      IE
      000000F8H   SFRSYM    DATA     BYTE      P7
      000000E8H   SFRSYM    DATA     BYTE      P6
      000000C8H   SFRSYM    DATA     BYTE      P5
      000000C0H   SFRSYM    DATA     BYTE      P4
      000000B0H   SFRSYM    DATA     BYTE      P3
      000000A0H   SFRSYM    DATA     BYTE      P2
      00000090H   SFRSYM    DATA     BYTE      P1
      00000080H   SFRSYM    DATA     BYTE      P0
      REG=2       REGSYM    ---      ---       fifo
      REG=7       REGSYM    ---      ---       buffer_addr

      00FF2584H   BLOCK     CODE     ---       LVL=0
      REG=7       REGSYM    ---      ---       fifo
      DR24        REGSYM    ---      DWORD     offset
      00FF2584H   LINE      CODE     ---       #61
      00FF2588H   LINE      CODE     ---       #63
      00FF2593H   LINE      CODE     ---       #65
      00FF2595H   LINE      CODE     ---       #67
      00FF25B1H   LINE      CODE     ---       #68
      00FF25C5H   LINE      CODE     ---       #69
      ---         BLOCKEND  ---      ---       LVL=0
      REG=7       REGSYM    ---      ---       fifo
      DR24        REGSYM    ---      DWORD     offset
      REG=2       REGSYM    ---      ---       fifo
L251 LINKER/LOCATER V4.66.93.0                                                        11/16/2023  12:01:34  PAGE 35


      REG=7       REGSYM    ---      ---       fifo

      00FF1F6CH   BLOCK     CODE     ---       LVL=0
      REG=3       REGSYM    ---      ---       fifo
      000001D6H   SYMBOL    EDATA    ---       dat
      000001DAH   SYMBOL    EDATA    DWORD     length
      00FF1F74H   BLOCK     CODE     NEAR LAB  LVL=1
      000001DEH   SYMBOL    EDATA    DWORD     temp_length
      ---         BLOCKEND  ---      ---       LVL=1
      00FF1F6CH   LINE      CODE     ---       #120
      00FF1F74H   LINE      CODE     ---       #121
      00FF1F74H   LINE      CODE     ---       #124
      00FF1F87H   LINE      CODE     ---       #126
      00FF1F9DH   LINE      CODE     ---       #128
      00FF1FA1H   LINE      CODE     ---       #130
      00FF1FB9H   LINE      CODE     ---       #131
      00FF1FC2H   LINE      CODE     ---       #132
      00FF1FD2H   LINE      CODE     ---       #133
      00FF1FF2H   LINE      CODE     ---       #134
      00FF1FFEH   LINE      CODE     ---       #135
      00FF2000H   LINE      CODE     ---       #138
      00FF201CH   LINE      CODE     ---       #139
      00FF2025H   LINE      CODE     ---       #140
      00FF2025H   LINE      CODE     ---       #142
      00FF203FH   LINE      CODE     ---       #143
      00FF2041H   LINE      CODE     ---       #146
      00FF2047H   LINE      CODE     ---       #147
      00FF2047H   LINE      CODE     ---       #149
      00FF2049H   LINE      CODE     ---       #150
      ---         BLOCKEND  ---      ---       LVL=0
      REG=3       REGSYM    ---      ---       fifo

      ---         MODULE    ---      ---       SEEKFREE_18TFT
      000000D0H   SFRSYM    DATA     BYTE      PSW
      000000A0H.5 SFRSYM    DATA     BIT       P25
      00000088H   SFRSYM    DATA     BYTE      TCON
      000000A0H.3 SFRSYM    DATA     BIT       P23
      00000098H   SFRSYM    DATA     BYTE      SCON
      000000A0H.2 SFRSYM    DATA     BIT       P22
      000000A0H.1 SFRSYM    DATA     BIT       P21
      000000A0H.0 SFRSYM    DATA     BIT       P20
      000000B8H   SFRSYM    DATA     BYTE      IP
      000000A8H   SFRSYM    DATA     BYTE      IE
      000000F8H   SFRSYM    DATA     BYTE      P7
      000000E8H   SFRSYM    DATA     BYTE      P6
      000000C8H   SFRSYM    DATA     BYTE      P5
      000000C0H   SFRSYM    DATA     BYTE      P4
      000000B0H   SFRSYM    DATA     BYTE      P3
      000000A0H   SFRSYM    DATA     BYTE      P2
      00000090H   SFRSYM    DATA     BYTE      P1
      00000080H   SFRSYM    DATA     BYTE      P0
      R7          REGSYM    ---      BYTE      dat
      R6          REGSYM    ---      BYTE      i
      R7          REGSYM    ---      BYTE      dat
      R6          REGSYM    ---      BYTE      i
      WR4         REGSYM    ---      WORD      dat
      R10         REGSYM    ---      BYTE      i
      WR12        REGSYM    ---      WORD      x_end
      WR14        REGSYM    ---      WORD      y_end
      WR14        REGSYM    ---      INT       color
      R13         REGSYM    ---      BYTE      i
      R12         REGSYM    ---      BYTE      j
      WR2         REGSYM    ---      WORD      x
      WR0         REGSYM    ---      WORD      y
      WR14        REGSYM    ---      WORD      color
L251 LINKER/LOCATER V4.66.93.0                                                        11/16/2023  12:01:34  PAGE 36


      WR12        REGSYM    ---      WORD      x
      WR14        REGSYM    ---      WORD      y
      REG=3       REGSYM    ---      ---       dat
      WR12        REGSYM    ---      WORD      x
      WR14        REGSYM    ---      WORD      y
      WR12        REGSYM    ---      WORD      x
      WR14        REGSYM    ---      WORD      y
      R10         REGSYM    ---      BYTE      dat
      WR12        REGSYM    ---      WORD      x
      WR14        REGSYM    ---      WORD      y
      WR12        REGSYM    ---      WORD      x
      WR14        REGSYM    ---      WORD      y
      WR2         REGSYM    ---      WORD      dat
      WR12        REGSYM    ---      WORD      y
      R15         REGSYM    ---      BYTE      num
      R14         REGSYM    ---      BYTE      length
      DR12        REGSYM    ---      FLOAT     dat
      R7          REGSYM    ---      CHAR      point
      R7          REGSYM    ---      BYTE      dat
      R7          REGSYM    ---      BYTE      dat
      WR4         REGSYM    ---      WORD      dat
      WR12        REGSYM    ---      WORD      x_end
      WR14        REGSYM    ---      WORD      y_end
      WR14        REGSYM    ---      INT       color
      R13         REGSYM    ---      BYTE      i
      R12         REGSYM    ---      BYTE      j
      WR2         REGSYM    ---      WORD      x
      WR0         REGSYM    ---      WORD      y
      WR14        REGSYM    ---      WORD      color
      WR12        REGSYM    ---      WORD      x
      WR14        REGSYM    ---      WORD      y
      REG=3       REGSYM    ---      ---       dat
      WR12        REGSYM    ---      WORD      x
      WR14        REGSYM    ---      WORD      y
      WR12        REGSYM    ---      WORD      x
      WR14        REGSYM    ---      WORD      y
      R10         REGSYM    ---      BYTE      dat
      WR12        REGSYM    ---      WORD      x
      WR14        REGSYM    ---      WORD      y
      WR12        REGSYM    ---      WORD      x
      WR14        REGSYM    ---      WORD      y
      WR2         REGSYM    ---      WORD      dat
      WR12        REGSYM    ---      WORD      y
      R15         REGSYM    ---      BYTE      num
      R14         REGSYM    ---      BYTE      length
      DR12        REGSYM    ---      FLOAT     dat
      R7          REGSYM    ---      CHAR      point
      REG=3       REGSYM    ---      ---       p

      ---         MODULE    ---      ---       SEEKFREE_ABSOLUTE_ENCODER
      000000D0H   SFRSYM    DATA     BYTE      PSW
      000000A0H.7 SFRSYM    DATA     BIT       P27
      000000A0H.6 SFRSYM    DATA     BIT       P26
      000000A0H.5 SFRSYM    DATA     BIT       P25
      000000A0H.4 SFRSYM    DATA     BIT       P24
      00000088H   SFRSYM    DATA     BYTE      TCON
      00000098H   SFRSYM    DATA     BYTE      SCON
      000000A0H.2 SFRSYM    DATA     BIT       P22
      000000B8H   SFRSYM    DATA     BYTE      IP
      000000A8H   SFRSYM    DATA     BYTE      IE
      000000F8H   SFRSYM    DATA     BYTE      P7
      000000E8H   SFRSYM    DATA     BYTE      P6
      000000C8H   SFRSYM    DATA     BYTE      P5
      000000C0H   SFRSYM    DATA     BYTE      P4
      000000B0H   SFRSYM    DATA     BYTE      P3
L251 LINKER/LOCATER V4.66.93.0                                                        11/16/2023  12:01:34  PAGE 37


      000000A0H   SFRSYM    DATA     BYTE      P2
      00000090H   SFRSYM    DATA     BYTE      P1
      00000080H   SFRSYM    DATA     BYTE      P0
      WR6         REGSYM    ---      WORD      x
      R6          REGSYM    ---      BYTE      byte
      R7          REGSYM    ---      BYTE      i
      R7          REGSYM    ---      BYTE      cmd
      R15         REGSYM    ---      BYTE      val
      R7          REGSYM    ---      BYTE      cmd
      REG=3       REGSYM    ---      ---       val
      R7          REGSYM    ---      BYTE      cmd
      R15         REGSYM    ---      BYTE      val
      R14         REGSYM    ---      BYTE      dat
      R7          REGSYM    ---      BYTE      cmd
      REG=3       REGSYM    ---      ---       val
      WR14        REGSYM    ---      WORD      zero_position
      WR14        REGSYM    ---      WORD      angle
      R10         REGSYM    ---      BYTE      byte
      R7          REGSYM    ---      BYTE      cmd
      R15         REGSYM    ---      BYTE      val
      R7          REGSYM    ---      BYTE      cmd
      REG=3       REGSYM    ---      ---       val
      R7          REGSYM    ---      BYTE      cmd
      R15         REGSYM    ---      BYTE      val
      R14         REGSYM    ---      BYTE      dat
      R7          REGSYM    ---      BYTE      cmd
      REG=3       REGSYM    ---      ---       val
      WR14        REGSYM    ---      WORD      zero_position
      WR14        REGSYM    ---      WORD      angle

      ---         MODULE    ---      ---       SEEKFREE_FONT
      00FF00A6H   PUBLIC    CODE     ---       oled_8x16
      00FF0696H   PUBLIC    CODE     ---       tft_ascii
      00FF0C86H   PUBLIC    CODE     ---       oled_6x8
      000000D0H   SFRSYM    DATA     BYTE      PSW
      00000088H   SFRSYM    DATA     BYTE      TCON
      00000098H   SFRSYM    DATA     BYTE      SCON
      000000B8H   SFRSYM    DATA     BYTE      IP
      000000A8H   SFRSYM    DATA     BYTE      IE
      000000F8H   SFRSYM    DATA     BYTE      P7
      000000E8H   SFRSYM    DATA     BYTE      P6
      000000C8H   SFRSYM    DATA     BYTE      P5
      000000C0H   SFRSYM    DATA     BYTE      P4
      000000B0H   SFRSYM    DATA     BYTE      P3
      000000A0H   SFRSYM    DATA     BYTE      P2
      00000090H   SFRSYM    DATA     BYTE      P1
      00000080H   SFRSYM    DATA     BYTE      P0

      ---         MODULE    ---      ---       SEEKFREE_ICM20602
      0000036CH   PUBLIC    EDATA    INT       icm_acc_x
      0000036EH   PUBLIC    EDATA    INT       icm_acc_y
      00000370H   PUBLIC    EDATA    INT       icm_acc_z
      00000372H   PUBLIC    EDATA    INT       icm_gyro_x
      00000374H   PUBLIC    EDATA    INT       icm_gyro_y
      00000376H   PUBLIC    EDATA    INT       icm_gyro_z
      000000D0H   SFRSYM    DATA     BYTE      PSW
      000000C0H.3 SFRSYM    DATA     BIT       P43
      000000C0H.2 SFRSYM    DATA     BIT       P42
      00000088H   SFRSYM    DATA     BYTE      TCON
      000000C0H.1 SFRSYM    DATA     BIT       P41
      00000098H   SFRSYM    DATA     BYTE      SCON
      000000C0H.0 SFRSYM    DATA     BIT       P40
      000000B8H   SFRSYM    DATA     BYTE      IP
      000000A8H   SFRSYM    DATA     BYTE      IE
      000000F8H   SFRSYM    DATA     BYTE      P7
L251 LINKER/LOCATER V4.66.93.0                                                        11/16/2023  12:01:34  PAGE 38


      000000E8H   SFRSYM    DATA     BYTE      P6
      000000C8H   SFRSYM    DATA     BYTE      P5
      000000C0H   SFRSYM    DATA     BYTE      P4
      000000B0H   SFRSYM    DATA     BYTE      P3
      000000A0H   SFRSYM    DATA     BYTE      P2
      00000090H   SFRSYM    DATA     BYTE      P1
      00000080H   SFRSYM    DATA     BYTE      P0
      R15         REGSYM    ---      BYTE      dat
      R6          REGSYM    ---      BYTE      byte
      R7          REGSYM    ---      BYTE      i
      R7          REGSYM    ---      BYTE      cmd
      R15         REGSYM    ---      BYTE      val
      R7          REGSYM    ---      BYTE      cmd
      REG=3       REGSYM    ---      ---       val
      R7          REGSYM    ---      BYTE      cmd
      REG=3       REGSYM    ---      ---       val

      ---         MODULE    ---      ---       SEEKFREE_IIC
      0000038EH   PUBLIC    EDATA    BYTE      IIC_ad_main
      0000038FH   PUBLIC    EDATA    BYTE      IIC_num
      00000390H   PUBLIC    EDATA    BYTE      IIC_ad_sub
      00000391H   PUBLIC    EDATA    ---       IIC_buf
      000000D0H   SFRSYM    DATA     BYTE      PSW
      00000088H   SFRSYM    DATA     BYTE      TCON
      000000C0H.1 SFRSYM    DATA     BIT       P41
      00000098H   SFRSYM    DATA     BYTE      SCON
      000000C0H.0 SFRSYM    DATA     BIT       P40
      000000B8H   SFRSYM    DATA     BYTE      IP
      000000A8H   SFRSYM    DATA     BYTE      IE
      000000F8H   SFRSYM    DATA     BYTE      P7
      000000E8H   SFRSYM    DATA     BYTE      P6
      000000C8H   SFRSYM    DATA     BYTE      P5
      000000C0H   SFRSYM    DATA     BYTE      P4
      000000B0H   SFRSYM    DATA     BYTE      P3
      000000A0H   SFRSYM    DATA     BYTE      P2
      00000090H   SFRSYM    DATA     BYTE      P1
      00000080H   SFRSYM    DATA     BYTE      P0
      WR6         REGSYM    ---      WORD      j
      R15         REGSYM    ---      BYTE      ack_dat
      R15         REGSYM    ---      BYTE      c
      R14         REGSYM    ---      BYTE      i
      R15         REGSYM    ---      BYTE      ack_x
      R13         REGSYM    ---      BYTE      i
      R14         REGSYM    ---      BYTE      c
      R13         REGSYM    ---      BYTE      dev_add
      R14         REGSYM    ---      BYTE      reg
      R15         REGSYM    ---      BYTE      dat
      R15         REGSYM    ---      BYTE      dev_add
      R14         REGSYM    ---      BYTE      reg
      WR12        REGSYM    ---      INT       type
      R15         REGSYM    ---      BYTE      dat
      REG=3       REGSYM    ---      ---       dat_add

      ---         MODULE    ---      ---       SEEKFREE_IPS114_SPI
      00FF271AH   PUBLIC    CODE     ---       ips114_writedata_16bit
      00FF1E74H   PUBLIC    CODE     ---       ips114_showfloat
      00FF2269H   PUBLIC    CODE     ---       ips114_showchar
      00FF22F7H   PUBLIC    CODE     ---       ips114_showuint16
      00FF2382H   PUBLIC    CODE     ---       ips114_showint32
      00FF2680H   PUBLIC    CODE     ---       ips114_clear
      00FF24EEH   PUBLIC    CODE     ---       ips114_showstr
      00FF0046H   PUBLIC    CODE     ---       ips114_writeIndex
      00FF27B3H   PUBLIC    CODE     ---       ips114_writeData
      00FF253CH   PUBLIC    CODE     ---       ips114_set_region
      00FF1D07H   PUBLIC    CODE     ---       ips114_init
L251 LINKER/LOCATER V4.66.93.0                                                        11/16/2023  12:01:34  PAGE 39


      000001DEH   PUBLIC    EDATA    BYTE      ?ips114_showfloat?BYTE
      000000D0H   SFRSYM    DATA     BYTE      PSW
      000000A0H.7 SFRSYM    DATA     BIT       P27
      000000A0H.5 SFRSYM    DATA     BIT       P25
      00000088H   SFRSYM    DATA     BYTE      TCON
      000000A0H.3 SFRSYM    DATA     BIT       P23
      00000098H   SFRSYM    DATA     BYTE      SCON
      000000A0H.2 SFRSYM    DATA     BIT       P22
      000000A0H.1 SFRSYM    DATA     BIT       P21
      000000A0H.0 SFRSYM    DATA     BIT       P20
      000000B8H   SFRSYM    DATA     BYTE      IP
      000000A8H   SFRSYM    DATA     BYTE      IE
      000000F8H   SFRSYM    DATA     BYTE      P7
      000000E8H   SFRSYM    DATA     BYTE      P6
      000000C8H   SFRSYM    DATA     BYTE      P5
      000000C0H   SFRSYM    DATA     BYTE      P4
      000000B0H   SFRSYM    DATA     BYTE      P3
      000000A0H   SFRSYM    DATA     BYTE      P2
      00000090H   SFRSYM    DATA     BYTE      P1
      00000080H   SFRSYM    DATA     BYTE      P0
      R7          REGSYM    ---      BYTE      dat
      R6          REGSYM    ---      BYTE      i
      R7          REGSYM    ---      BYTE      dat
      R6          REGSYM    ---      BYTE      i
      WR4         REGSYM    ---      WORD      dat
      R10         REGSYM    ---      BYTE      i
      WR12        REGSYM    ---      WORD      x2
      WR14        REGSYM    ---      WORD      y2
      WR14        REGSYM    ---      WORD      color
      R13         REGSYM    ---      BYTE      i
      WR2         REGSYM    ---      WORD      x
      WR0         REGSYM    ---      WORD      y
      WR14        REGSYM    ---      WORD      color
      WR12        REGSYM    ---      WORD      x
      WR14        REGSYM    ---      WORD      y
      REG=3       REGSYM    ---      ---       dat
      WR12        REGSYM    ---      WORD      x
      WR14        REGSYM    ---      WORD      y
      WR12        REGSYM    ---      WORD      x
      WR14        REGSYM    ---      WORD      y
      R10         REGSYM    ---      BYTE      dat
      WR12        REGSYM    ---      WORD      x
      WR14        REGSYM    ---      WORD      y
      WR12        REGSYM    ---      WORD      x
      WR14        REGSYM    ---      WORD      y
      WR2         REGSYM    ---      WORD      dat
      WR12        REGSYM    ---      WORD      y
      R15         REGSYM    ---      BYTE      num
      R14         REGSYM    ---      BYTE      length
      DR12        REGSYM    ---      FLOAT     dat
      R7          REGSYM    ---      CHAR      point

      00FF0046H   BLOCK     CODE     ---       LVL=0
      R7          REGSYM    ---      BYTE      dat
      00FF0046H   LINE      CODE     ---       #594
      00FF0046H   LINE      CODE     ---       #596
      00FF0048H   LINE      CODE     ---       #597
      00FF004AH   LINE      CODE     ---       #599
      00FF004DH   LINE      CODE     ---       #600
      00FF004FH   LINE      CODE     ---       #601
      ---         BLOCKEND  ---      ---       LVL=0

      00FF27B3H   BLOCK     CODE     ---       LVL=0
      R7          REGSYM    ---      BYTE      dat
      00FF27B3H   LINE      CODE     ---       #610
L251 LINKER/LOCATER V4.66.93.0                                                        11/16/2023  12:01:34  PAGE 40


      00FF27B3H   LINE      CODE     ---       #612
      00FF27B5H   LINE      CODE     ---       #613
      00FF27B7H   LINE      CODE     ---       #615
      00FF27BAH   LINE      CODE     ---       #616
      00FF27BCH   LINE      CODE     ---       #617
      ---         BLOCKEND  ---      ---       LVL=0

      00FF271AH   BLOCK     CODE     ---       LVL=0
      WR4         REGSYM    ---      WORD      dat
      00FF271CH   BLOCK     CODE     NEAR LAB  LVL=1
      0000021BH   SYMBOL    EDATA    ---       dat1
      ---         BLOCKEND  ---      ---       LVL=1
      00FF271AH   LINE      CODE     ---       #626
      00FF271CH   LINE      CODE     ---       #627
      00FF271CH   LINE      CODE     ---       #629
      00FF2720H   LINE      CODE     ---       #630
      00FF2724H   LINE      CODE     ---       #631
      00FF2726H   LINE      CODE     ---       #632
      00FF2728H   LINE      CODE     ---       #633
      00FF272FH   LINE      CODE     ---       #634
      00FF2736H   LINE      CODE     ---       #635
      00FF2738H   LINE      CODE     ---       #636
      ---         BLOCKEND  ---      ---       LVL=0

      00FF1D07H   BLOCK     CODE     ---       LVL=0
      00FF1D07H   LINE      CODE     ---       #644
      00FF1D07H   LINE      CODE     ---       #646
      00FF1D25H   LINE      CODE     ---       #648
      00FF1D27H   LINE      CODE     ---       #649
      00FF1D29H   LINE      CODE     ---       #650
      00FF1D2BH   LINE      CODE     ---       #652
      00FF1D32H   LINE      CODE     ---       #654
      00FF1D34H   LINE      CODE     ---       #655
      00FF1D3BH   LINE      CODE     ---       #657
      00FF1D40H   LINE      CODE     ---       #666
      00FF1D45H   LINE      CODE     ---       #669
      00FF1D4AH   LINE      CODE     ---       #670
      00FF1D4FH   LINE      CODE     ---       #672
      00FF1D54H   LINE      CODE     ---       #673
      00FF1D59H   LINE      CODE     ---       #674
      00FF1D5EH   LINE      CODE     ---       #675
      00FF1D62H   LINE      CODE     ---       #676
      00FF1D67H   LINE      CODE     ---       #677
      00FF1D6CH   LINE      CODE     ---       #679
      00FF1D71H   LINE      CODE     ---       #680
      00FF1D76H   LINE      CODE     ---       #682
      00FF1D7BH   LINE      CODE     ---       #683
      00FF1D80H   LINE      CODE     ---       #685
      00FF1D85H   LINE      CODE     ---       #686
      00FF1D8AH   LINE      CODE     ---       #688
      00FF1D8FH   LINE      CODE     ---       #689
      00FF1D94H   LINE      CODE     ---       #691
      00FF1D99H   LINE      CODE     ---       #692
      00FF1D9EH   LINE      CODE     ---       #694
      00FF1DA3H   LINE      CODE     ---       #695
      00FF1DA8H   LINE      CODE     ---       #697
      00FF1DADH   LINE      CODE     ---       #698
      00FF1DB2H   LINE      CODE     ---       #700
      00FF1DB7H   LINE      CODE     ---       #701
      00FF1DBCH   LINE      CODE     ---       #702
      00FF1DC1H   LINE      CODE     ---       #704
      00FF1DC6H   LINE      CODE     ---       #705
      00FF1DCBH   LINE      CODE     ---       #706
      00FF1DD0H   LINE      CODE     ---       #707
      00FF1DD5H   LINE      CODE     ---       #708
L251 LINKER/LOCATER V4.66.93.0                                                        11/16/2023  12:01:34  PAGE 41


      00FF1DDAH   LINE      CODE     ---       #709
      00FF1DDFH   LINE      CODE     ---       #710
      00FF1DE4H   LINE      CODE     ---       #711
      00FF1DE9H   LINE      CODE     ---       #712
      00FF1DEEH   LINE      CODE     ---       #713
      00FF1DF3H   LINE      CODE     ---       #714
      00FF1DF8H   LINE      CODE     ---       #715
      00FF1DFDH   LINE      CODE     ---       #716
      00FF1E02H   LINE      CODE     ---       #717
      00FF1E07H   LINE      CODE     ---       #718
      00FF1E0CH   LINE      CODE     ---       #720
      00FF1E11H   LINE      CODE     ---       #721
      00FF1E16H   LINE      CODE     ---       #722
      00FF1E1BH   LINE      CODE     ---       #723
      00FF1E20H   LINE      CODE     ---       #724
      00FF1E25H   LINE      CODE     ---       #725
      00FF1E2AH   LINE      CODE     ---       #726
      00FF1E2FH   LINE      CODE     ---       #727
      00FF1E34H   LINE      CODE     ---       #728
      00FF1E39H   LINE      CODE     ---       #729
      00FF1E3EH   LINE      CODE     ---       #730
      00FF1E43H   LINE      CODE     ---       #731
      00FF1E48H   LINE      CODE     ---       #732
      00FF1E4DH   LINE      CODE     ---       #733
      00FF1E52H   LINE      CODE     ---       #734
      00FF1E57H   LINE      CODE     ---       #736
      00FF1E5CH   LINE      CODE     ---       #738
      00FF1E61H   LINE      CODE     ---       #739
      00FF1E68H   LINE      CODE     ---       #741
      00FF1E6DH   LINE      CODE     ---       #742
      ---         BLOCKEND  ---      ---       LVL=0

      00FF253CH   BLOCK     CODE     ---       LVL=0
      00000217H   SYMBOL    EDATA    WORD      x1
      00000219H   SYMBOL    EDATA    WORD      y1
      WR12        REGSYM    ---      WORD      x2
      WR14        REGSYM    ---      WORD      y2
      00FF253CH   LINE      CODE     ---       #747
      00FF254AH   LINE      CODE     ---       #781
      00FF254FH   LINE      CODE     ---       #782
      00FF255AH   LINE      CODE     ---       #783
      00FF2563H   LINE      CODE     ---       #784
      00FF2568H   LINE      CODE     ---       #785
      00FF2573H   LINE      CODE     ---       #786
      00FF257CH   LINE      CODE     ---       #787
      00FF2581H   LINE      CODE     ---       #790
      ---         BLOCKEND  ---      ---       LVL=0

      00FF2680H   BLOCK     CODE     ---       LVL=0
      WR14        REGSYM    ---      WORD      color
      00FF2686H   BLOCK     CODE     NEAR LAB  LVL=1
      R13         REGSYM    ---      BYTE      i
      000001E2H   SYMBOL    EDATA    WORD      j
      ---         BLOCKEND  ---      ---       LVL=1
      00FF2680H   LINE      CODE     ---       #799
      00FF2686H   LINE      CODE     ---       #800
      00FF2686H   LINE      CODE     ---       #802
      00FF2695H   LINE      CODE     ---       #803
      00FF2698H   LINE      CODE     ---       #805
      00FF269EH   LINE      CODE     ---       #807
      00FF26A3H   LINE      CODE     ---       #808
      00FF26B3H   LINE      CODE     ---       #809
      00FF26B7H   LINE      CODE     ---       #810
      ---         BLOCKEND  ---      ---       LVL=0
      WR2         REGSYM    ---      WORD      x
L251 LINKER/LOCATER V4.66.93.0                                                        11/16/2023  12:01:34  PAGE 42


      WR0         REGSYM    ---      WORD      y
      WR14        REGSYM    ---      WORD      color

      00FF2269H   BLOCK     CODE     ---       LVL=0
      WR12        REGSYM    ---      WORD      x
      WR14        REGSYM    ---      WORD      y
      00000213H   SYMBOL    EDATA    CHAR      dat
      00FF2273H   BLOCK     CODE     NEAR LAB  LVL=1
      00000214H   SYMBOL    EDATA    BYTE      i
      00000215H   SYMBOL    EDATA    BYTE      j
      00000216H   SYMBOL    EDATA    BYTE      temp
      ---         BLOCKEND  ---      ---       LVL=1
      00FF2269H   LINE      CODE     ---       #838
      00FF2273H   LINE      CODE     ---       #839
      00FF2273H   LINE      CODE     ---       #843
      00FF2278H   LINE      CODE     ---       #845
      00FF228DH   LINE      CODE     ---       #846
      00FF22B3H   LINE      CODE     ---       #847
      00FF22B8H   LINE      CODE     ---       #849
      00FF22BFH   LINE      CODE     ---       #851
      00FF22C3H   LINE      CODE     ---       #852
      00FF22C5H   LINE      CODE     ---       #853
      00FF22CCH   LINE      CODE     ---       #854
      00FF22D6H   LINE      CODE     ---       #855
      00FF22E2H   LINE      CODE     ---       #856
      00FF22F4H   LINE      CODE     ---       #857
      ---         BLOCKEND  ---      ---       LVL=0

      00FF24EEH   BLOCK     CODE     ---       LVL=0
      0000020DH   SYMBOL    EDATA    WORD      x
      0000020FH   SYMBOL    EDATA    WORD      y
      REG=3       REGSYM    ---      ---       dat
      00FF24FAH   BLOCK     CODE     NEAR LAB  LVL=1
      00000211H   SYMBOL    EDATA    WORD      j
      ---         BLOCKEND  ---      ---       LVL=1
      00FF24EEH   LINE      CODE     ---       #868
      00FF24FAH   LINE      CODE     ---       #869
      00FF24FAH   LINE      CODE     ---       #872
      00FF24FCH   LINE      CODE     ---       #873
      00FF24FEH   LINE      CODE     ---       #875
      00FF2524H   LINE      CODE     ---       #876
      00FF252EH   LINE      CODE     ---       #877
      00FF2539H   LINE      CODE     ---       #878
      ---         BLOCKEND  ---      ---       LVL=0
      WR12        REGSYM    ---      WORD      x
      WR14        REGSYM    ---      WORD      y
      WR12        REGSYM    ---      WORD      x
      WR14        REGSYM    ---      WORD      y
      R10         REGSYM    ---      BYTE      dat
      WR12        REGSYM    ---      WORD      x
      WR14        REGSYM    ---      WORD      y

      00FF22F7H   BLOCK     CODE     ---       LVL=0
      WR12        REGSYM    ---      WORD      x
      WR14        REGSYM    ---      WORD      y
      WR2         REGSYM    ---      WORD      dat
      00FF22FDH   BLOCK     CODE     NEAR LAB  LVL=1
      000001E2H   SYMBOL    EDATA    ---       a
      000001E7H   SYMBOL    EDATA    BYTE      i
      ---         BLOCKEND  ---      ---       LVL=1
      00FF22F7H   LINE      CODE     ---       #980
      00FF22FDH   LINE      CODE     ---       #981
      00FF22FDH   LINE      CODE     ---       #985
      00FF2309H   LINE      CODE     ---       #986
      00FF231BH   LINE      CODE     ---       #987
L251 LINKER/LOCATER V4.66.93.0                                                        11/16/2023  12:01:34  PAGE 43


      00FF2329H   LINE      CODE     ---       #988
      00FF2333H   LINE      CODE     ---       #989
      00FF233BH   LINE      CODE     ---       #991
      00FF2340H   LINE      CODE     ---       #992
      00FF2340H   LINE      CODE     ---       #994
      00FF236DH   LINE      CODE     ---       #995
      00FF2376H   LINE      CODE     ---       #996
      00FF237FH   LINE      CODE     ---       #997
      ---         BLOCKEND  ---      ---       LVL=0

      00FF2382H   BLOCK     CODE     ---       LVL=0
      000001E2H   SYMBOL    EDATA    WORD      x
      WR12        REGSYM    ---      WORD      y
      000001E4H   SYMBOL    EDATA    LONG      dat
      R15         REGSYM    ---      BYTE      num
      00FF2390H   BLOCK     CODE     NEAR LAB  LVL=1
      000001E8H   SYMBOL    EDATA    ---       buff
      R14         REGSYM    ---      BYTE      length
      ---         BLOCKEND  ---      ---       LVL=1
      00FF2382H   LINE      CODE     ---       #1010
      00FF2390H   LINE      CODE     ---       #1011
      00FF2390H   LINE      CODE     ---       #1015
      00FF2398H   LINE      CODE     ---       #1017
      00FF239AH   LINE      CODE     ---       #1018
      00FF23BBH   LINE      CODE     ---       #1021
      00FF23C1H   LINE      CODE     ---       #1022
      00FF23DAH   LINE      CODE     ---       #1023
      00FF23DCH   LINE      CODE     ---       #1024
      00FF23DCH   LINE      CODE     ---       #1025
      00FF23E1H   LINE      CODE     ---       #1027
      00FF23E7H   LINE      CODE     ---       #1028
      00FF23E9H   LINE      CODE     ---       #1029
      00FF23EDH   LINE      CODE     ---       #1030
      00FF23F4H   LINE      CODE     ---       #1032
      00FF2401H   LINE      CODE     ---       #1033
      ---         BLOCKEND  ---      ---       LVL=0

      00FF1E74H   BLOCK     CODE     ---       LVL=0
      000001E2H   SYMBOL    EDATA    WORD      x
      000001E4H   SYMBOL    EDATA    WORD      y
      DR12        REGSYM    ---      FLOAT     dat
      000001E6H   SYMBOL    EDATA    BYTE      num
      000001E7H   SYMBOL    EDATA    BYTE      pointnum
      00FF1E84H   BLOCK     CODE     NEAR LAB  LVL=1
      000001E8H   SYMBOL    EDATA    BYTE      length
      000001E9H   SYMBOL    EDATA    ---       buff
      0000020BH   SYMBOL    EDATA    CHAR      start
      0000020CH   SYMBOL    EDATA    CHAR      end
      R7          REGSYM    ---      CHAR      point
      ---         BLOCKEND  ---      ---       LVL=1
      00FF1E74H   LINE      CODE     ---       #1051
      00FF1E84H   LINE      CODE     ---       #1052
      00FF1E84H   LINE      CODE     ---       #1057
      00FF1E93H   LINE      CODE     ---       #1058
      00FF1EA2H   LINE      CODE     ---       #1060
      00FF1EC4H   LINE      CODE     ---       #1063
      00FF1EDDH   LINE      CODE     ---       #1064
      00FF1EE2H   LINE      CODE     ---       #1065
      00FF1EE2H   LINE      CODE     ---       #1066
      00FF1EECH   LINE      CODE     ---       #1067
      00FF1EFCH   LINE      CODE     ---       #1068
      00FF1F0CH   LINE      CODE     ---       #1069
      00FF1F11H   LINE      CODE     ---       #1071
      00FF1F1BH   LINE      CODE     ---       #1072
      00FF1F24H   LINE      CODE     ---       #1073
L251 LINKER/LOCATER V4.66.93.0                                                        11/16/2023  12:01:34  PAGE 44


      00FF1F2DH   LINE      CODE     ---       #1074
      00FF1F36H   LINE      CODE     ---       #1076
      00FF1F43H   LINE      CODE     ---       #1077
      00FF1F4FH   LINE      CODE     ---       #1079
      00FF1F5AH   LINE      CODE     ---       #1081
      00FF1F69H   LINE      CODE     ---       #1082
      ---         BLOCKEND  ---      ---       LVL=0

      ---         MODULE    ---      ---       SEEKFREE_MPU6050
      00000378H   PUBLIC    EDATA    INT       mpu_acc_x
      0000037AH   PUBLIC    EDATA    INT       mpu_acc_y
      0000037CH   PUBLIC    EDATA    INT       mpu_acc_z
      0000037EH   PUBLIC    EDATA    INT       mpu_gyro_x
      00000380H   PUBLIC    EDATA    INT       mpu_gyro_y
      00000382H   PUBLIC    EDATA    INT       mpu_gyro_z
      000000D0H   SFRSYM    DATA     BYTE      PSW
      00000088H   SFRSYM    DATA     BYTE      TCON
      00000098H   SFRSYM    DATA     BYTE      SCON
      000000B8H   SFRSYM    DATA     BYTE      IP
      000000A8H   SFRSYM    DATA     BYTE      IE
      000000F8H   SFRSYM    DATA     BYTE      P7
      000000E8H   SFRSYM    DATA     BYTE      P6
      000000C8H   SFRSYM    DATA     BYTE      P5
      000000C0H   SFRSYM    DATA     BYTE      P4
      000000B0H   SFRSYM    DATA     BYTE      P3
      000000A0H   SFRSYM    DATA     BYTE      P2
      00000090H   SFRSYM    DATA     BYTE      P1
      00000080H   SFRSYM    DATA     BYTE      P0

      ---         MODULE    ---      ---       SEEKFREE_OLED
      000000D0H   SFRSYM    DATA     BYTE      PSW
      000000A0H.5 SFRSYM    DATA     BIT       P25
      00000088H   SFRSYM    DATA     BYTE      TCON
      000000A0H.3 SFRSYM    DATA     BIT       P23
      00000098H   SFRSYM    DATA     BYTE      SCON
      000000A0H.2 SFRSYM    DATA     BIT       P22
      000000A0H.1 SFRSYM    DATA     BIT       P21
      000000A0H.0 SFRSYM    DATA     BIT       P20
      000000B8H   SFRSYM    DATA     BYTE      IP
      000000A8H   SFRSYM    DATA     BYTE      IE
      000000F8H   SFRSYM    DATA     BYTE      P7
      000000E8H   SFRSYM    DATA     BYTE      P6
      000000C8H   SFRSYM    DATA     BYTE      P5
      000000C0H   SFRSYM    DATA     BYTE      P4
      000000B0H   SFRSYM    DATA     BYTE      P3
      000000A0H   SFRSYM    DATA     BYTE      P2
      00000090H   SFRSYM    DATA     BYTE      P1
      00000080H   SFRSYM    DATA     BYTE      P0
      R7          REGSYM    ---      BYTE      dat
      R6          REGSYM    ---      BYTE      i
      R7          REGSYM    ---      BYTE      cmd
      R6          REGSYM    ---      BYTE      i
      WR8         REGSYM    ---      WORD      hex
      REG=7       REGSYM    ---      ---       Print
      R5          REGSYM    ---      BYTE      hexcheck
      R10         REGSYM    ---      BYTE      TEMP
      R15         REGSYM    ---      BYTE      x
      R10         REGSYM    ---      BYTE      y
      R15         REGSYM    ---      BYTE      bmp_data
      R14         REGSYM    ---      BYTE      y
      R13         REGSYM    ---      BYTE      x
      R15         REGSYM    ---      BYTE      x
      R14         REGSYM    ---      BYTE      y
      R13         REGSYM    ---      BYTE      data1
      R15         REGSYM    ---      BYTE      x
L251 LINKER/LOCATER V4.66.93.0                                                        11/16/2023  12:01:34  PAGE 45


      R14         REGSYM    ---      BYTE      y
      REG=3       REGSYM    ---      ---       ch
      REG=3       REGSYM    ---      ---       ch
      R14         REGSYM    ---      BYTE      x
      R15         REGSYM    ---      BYTE      y
      WR4         REGSYM    ---      WORD      num
      R15         REGSYM    ---      BYTE      x
      R14         REGSYM    ---      BYTE      y
      WR12        REGSYM    ---      INT       num
      WR12        REGSYM    ---      WORD      y
      R15         REGSYM    ---      BYTE      num
      R14         REGSYM    ---      BYTE      length
      DR12        REGSYM    ---      FLOAT     dat
      R7          REGSYM    ---      CHAR      point
      WR4         REGSYM    ---      WORD      high
      REG=3       REGSYM    ---      ---       p
      REG=3       REGSYM    ---      ---       p
      R7          REGSYM    ---      BYTE      dat
      R7          REGSYM    ---      BYTE      cmd
      WR8         REGSYM    ---      WORD      hex
      REG=7       REGSYM    ---      ---       Print
      R5          REGSYM    ---      BYTE      hexcheck
      R10         REGSYM    ---      BYTE      TEMP
      R15         REGSYM    ---      BYTE      x
      R10         REGSYM    ---      BYTE      y
      R15         REGSYM    ---      BYTE      bmp_data
      R14         REGSYM    ---      BYTE      y
      R13         REGSYM    ---      BYTE      x
      R15         REGSYM    ---      BYTE      x
      R14         REGSYM    ---      BYTE      y
      R13         REGSYM    ---      BYTE      data1
      R15         REGSYM    ---      BYTE      x
      R14         REGSYM    ---      BYTE      y
      REG=3       REGSYM    ---      ---       ch
      REG=3       REGSYM    ---      ---       ch
      R14         REGSYM    ---      BYTE      x
      R15         REGSYM    ---      BYTE      y
      WR4         REGSYM    ---      WORD      num
      R15         REGSYM    ---      BYTE      x
      R14         REGSYM    ---      BYTE      y
      WR12        REGSYM    ---      INT       num
      WR12        REGSYM    ---      WORD      y
      R15         REGSYM    ---      BYTE      num
      R14         REGSYM    ---      BYTE      length
      DR12        REGSYM    ---      FLOAT     dat
      R7          REGSYM    ---      CHAR      point
      WR4         REGSYM    ---      WORD      high
      REG=3       REGSYM    ---      ---       p
      REG=3       REGSYM    ---      ---       p

      ---         MODULE    ---      ---       SEEKFREE_TSL1401
      00000008H   PUBLIC    EDATA    BYTE      tsl1401_finish_flag
      00000009H   PUBLIC    EDATA    ---       ccd_data
      000000D0H   SFRSYM    DATA     BYTE      PSW
      000000B0H.3 SFRSYM    DATA     BIT       P33
      00000088H   SFRSYM    DATA     BYTE      TCON
      000000B0H.2 SFRSYM    DATA     BIT       P32
      00000098H   SFRSYM    DATA     BYTE      SCON
      000000B8H   SFRSYM    DATA     BYTE      IP
      000000A8H   SFRSYM    DATA     BYTE      IE
      000000F8H   SFRSYM    DATA     BYTE      P7
      000000E8H   SFRSYM    DATA     BYTE      P6
      000000C8H   SFRSYM    DATA     BYTE      P5
      000000C0H   SFRSYM    DATA     BYTE      P4
      000000B0H   SFRSYM    DATA     BYTE      P3
L251 LINKER/LOCATER V4.66.93.0                                                        11/16/2023  12:01:34  PAGE 46


      000000A0H   SFRSYM    DATA     BYTE      P2
      00000090H   SFRSYM    DATA     BYTE      P1
      00000080H   SFRSYM    DATA     BYTE      P0
      REG=3       REGSYM    ---      ---       dat
      R15         REGSYM    ---      BYTE      i

      ---         MODULE    ---      ---       SEEKFREE_VIRSCO
      00000384H   PUBLIC    EDATA    ---       virtual_scope_data
      000000D0H   SFRSYM    DATA     BYTE      PSW
      00000088H   SFRSYM    DATA     BYTE      TCON
      00000098H   SFRSYM    DATA     BYTE      SCON
      000000B8H   SFRSYM    DATA     BYTE      IP
      000000A8H   SFRSYM    DATA     BYTE      IE
      000000F8H   SFRSYM    DATA     BYTE      P7
      000000E8H   SFRSYM    DATA     BYTE      P6
      000000C8H   SFRSYM    DATA     BYTE      P5
      000000C0H   SFRSYM    DATA     BYTE      P4
      000000B0H   SFRSYM    DATA     BYTE      P3
      000000A0H   SFRSYM    DATA     BYTE      P2
      00000090H   SFRSYM    DATA     BYTE      P1
      00000080H   SFRSYM    DATA     BYTE      P0
      REG=7       REGSYM    ---      ---       Buf
      R10         REGSYM    ---      BYTE      CRC_CNT
      WR6         REGSYM    ---      WORD      CRC_Temp
      R5          REGSYM    ---      BYTE      i
      R4          REGSYM    ---      BYTE      j
      WR0         REGSYM    ---      INT       data1
      WR30        REGSYM    ---      INT       data2
      WR8         REGSYM    ---      INT       data3
      WR10        REGSYM    ---      INT       data4
      WR6         REGSYM    ---      WORD      CRC16

      ---         MODULE    ---      ---       SEEKFREE_WIRELESS
      00FF0026H   PUBLIC    CODE     ---       wireless_uart_callback
      000000D0H   SFRSYM    DATA     BYTE      PSW
      000000FEH   SFRSYM    DATA     BYTE      S4BUF
      00000080H.7 SFRSYM    DATA     BIT       P07
      00000088H   SFRSYM    DATA     BYTE      TCON
      00000098H   SFRSYM    DATA     BYTE      SCON
      000000B8H   SFRSYM    DATA     BYTE      IP
      000000A8H   SFRSYM    DATA     BYTE      IE
      000000F8H   SFRSYM    DATA     BYTE      P7
      000000E8H   SFRSYM    DATA     BYTE      P6
      000000C8H   SFRSYM    DATA     BYTE      P5
      000000C0H   SFRSYM    DATA     BYTE      P4
      000000B0H   SFRSYM    DATA     BYTE      P3
      000000A0H   SFRSYM    DATA     BYTE      P2
      00000090H   SFRSYM    DATA     BYTE      P1
      00000080H   SFRSYM    DATA     BYTE      P0
      0000026DH   SYMBOL    EDATA    BYTE      wireless_uart_data
      0000026EH   SYMBOL    EDATA    ---       wireless_uart_fifo
      00000282H   SYMBOL    EDATA    ---       wireless_uart_buffer

      00FF0026H   BLOCK     CODE     ---       LVL=0
      00FF0026H   LINE      CODE     ---       #48
      00FF0026H   LINE      CODE     ---       #51
      00FF002CH   LINE      CODE     ---       #52
      ---         BLOCKEND  ---      ---       LVL=0
      REG=3       REGSYM    ---      ---       buff
      REG=7       REGSYM    ---      ---       buff
      DR8         REGSYM    ---      DWORD     len

      ---         MODULE    ---      ---       SEEKFREE_AT24C02
      000000D0H   SFRSYM    DATA     BYTE      PSW
      00000088H   SFRSYM    DATA     BYTE      TCON
L251 LINKER/LOCATER V4.66.93.0                                                        11/16/2023  12:01:34  PAGE 47


      00000098H   SFRSYM    DATA     BYTE      SCON
      000000B8H   SFRSYM    DATA     BYTE      IP
      000000A8H   SFRSYM    DATA     BYTE      IE
      000000F8H   SFRSYM    DATA     BYTE      P7
      000000E8H   SFRSYM    DATA     BYTE      P6
      000000C8H   SFRSYM    DATA     BYTE      P5
      000000C0H   SFRSYM    DATA     BYTE      P4
      000000B0H   SFRSYM    DATA     BYTE      P3
      000000A0H   SFRSYM    DATA     BYTE      P2
      00000090H   SFRSYM    DATA     BYTE      P1
      00000080H   SFRSYM    DATA     BYTE      P0
      R14         REGSYM    ---      BYTE      byte_reg
      R15         REGSYM    ---      BYTE      dat
      R15         REGSYM    ---      BYTE      byte_reg
      REG=3       REGSYM    ---      ---       dat_add
      REG=3       REGSYM    ---      ---       dat_add

      ---         MODULE    ---      ---       SEEKFREE_BLUETOOTH_CH9141
      00FF0066H   PUBLIC    CODE     ---       bluetooth_ch9141_uart_callback
      000000D0H   SFRSYM    DATA     BYTE      PSW
      000000FEH   SFRSYM    DATA     BYTE      S4BUF
      00000080H.7 SFRSYM    DATA     BIT       P07
      00000088H   SFRSYM    DATA     BYTE      TCON
      00000098H   SFRSYM    DATA     BYTE      SCON
      000000B8H   SFRSYM    DATA     BYTE      IP
      000000A8H   SFRSYM    DATA     BYTE      IE
      000000F8H   SFRSYM    DATA     BYTE      P7
      000000E8H   SFRSYM    DATA     BYTE      P6
      000000C8H   SFRSYM    DATA     BYTE      P5
      000000C0H   SFRSYM    DATA     BYTE      P4
      000000B0H   SFRSYM    DATA     BYTE      P3
      000000A0H   SFRSYM    DATA     BYTE      P2
      00000090H   SFRSYM    DATA     BYTE      P1
      00000080H   SFRSYM    DATA     BYTE      P0
      000002C2H   SYMBOL    EDATA    ---       bluetooth_ch9141_buffer
      00000302H   SYMBOL    EDATA    BYTE      bluetooth_ch9141_data
      00000303H   SYMBOL    EDATA    ---       bluetooth_ch9141_fifo

      00FF0066H   BLOCK     CODE     ---       LVL=0
      00FF0066H   LINE      CODE     ---       #67
      00FF0066H   LINE      CODE     ---       #70
      00FF006CH   LINE      CODE     ---       #71
      ---         BLOCKEND  ---      ---       LVL=0
      DR12        REGSYM    ---      DWORD     len
      REG=7       REGSYM    ---      ---       buff
      DR8         REGSYM    ---      DWORD     len

      ---         MODULE    ---      ---       SEEKFREE_WIRELESS_CH573
      00FF2775H   PUBLIC    CODE     ---       wireless_ch573_callback
      000000D0H   SFRSYM    DATA     BYTE      PSW
      000000FEH   SFRSYM    DATA     BYTE      S4BUF
      00000080H.7 SFRSYM    DATA     BIT       P07
      00000088H   SFRSYM    DATA     BYTE      TCON
      00000098H   SFRSYM    DATA     BYTE      SCON
      000000B8H   SFRSYM    DATA     BYTE      IP
      000000A8H   SFRSYM    DATA     BYTE      IE
      000000F8H   SFRSYM    DATA     BYTE      P7
      000000E8H   SFRSYM    DATA     BYTE      P6
      000000C8H   SFRSYM    DATA     BYTE      P5
      000000C0H   SFRSYM    DATA     BYTE      P4
      000000B0H   SFRSYM    DATA     BYTE      P3
      000000A0H   SFRSYM    DATA     BYTE      P2
      00000090H   SFRSYM    DATA     BYTE      P1
      00000080H   SFRSYM    DATA     BYTE      P0
      00000317H   SYMBOL    EDATA    ---       wireless_ch573_buffer
L251 LINKER/LOCATER V4.66.93.0                                                        11/16/2023  12:01:34  PAGE 48


      00000357H   SYMBOL    EDATA    BYTE      wireless_ch573_data
      00000358H   SYMBOL    EDATA    ---       wireless_ch573_fifo

      00FF2775H   BLOCK     CODE     ---       LVL=0
      00FF2775H   LINE      CODE     ---       #39
      00FF2775H   LINE      CODE     ---       #42
      00FF277BH   LINE      CODE     ---       #43
      ---         BLOCKEND  ---      ---       LVL=0
      REG=3       REGSYM    ---      ---       buff
      REG=7       REGSYM    ---      ---       buff
      DR8         REGSYM    ---      DWORD     len

      ---         MODULE    ---      ---       isr
      00FF2643H   PUBLIC    CODE     ---       UART1_Isr
      00FF2739H   PUBLIC    CODE     ---       UART2_Isr
      00FF2757H   PUBLIC    CODE     ---       UART3_Isr
      00FF2485H   PUBLIC    CODE     ---       UART4_Isr
      00FF27EDH   PUBLIC    CODE     ---       INT0_Isr
      00FF0009H   PUBLIC    CODE     ---       INT1_Isr
      00FF27BDH   PUBLIC    CODE     ---       INT2_Isr
      00FF27C5H   PUBLIC    CODE     ---       INT3_Isr
      00FF27CDH   PUBLIC    CODE     ---       INT4_Isr
      00FF000AH   PUBLIC    CODE     ---       TM0_Isr
      00FF0011H   PUBLIC    CODE     ---       TM1_Isr
      00FF27D5H   PUBLIC    CODE     ---       TM2_Isr
      00FF27DDH   PUBLIC    CODE     ---       TM3_Isr
      00FF27E5H   PUBLIC    CODE     ---       TM4_Isr
      000000D0H   SFRSYM    DATA     BYTE      PSW
      000000EFH   SFRSYM    DATA     BYTE      AUXINTIF
      000000FDH   SFRSYM    DATA     BYTE      S4CON
      000000ACH   SFRSYM    DATA     BYTE      S3CON
      0000009AH   SFRSYM    DATA     BYTE      S2CON
      000000C7H   SFRSYM    DATA     BYTE      IAP_CONTR
      000000C8H.2 SFRSYM    DATA     BIT       P52
      00000088H   SFRSYM    DATA     BYTE      TCON
      00000098H   SFRSYM    DATA     BYTE      SCON
      00000099H   SFRSYM    DATA     BYTE      SBUF
      000000B8H   SFRSYM    DATA     BYTE      IP
      000000A8H   SFRSYM    DATA     BYTE      IE
      000000F8H   SFRSYM    DATA     BYTE      P7
      000000E8H   SFRSYM    DATA     BYTE      P6
      000000C8H   SFRSYM    DATA     BYTE      P5
      000000C0H   SFRSYM    DATA     BYTE      P4
      000000B0H   SFRSYM    DATA     BYTE      P3
      000000A0H   SFRSYM    DATA     BYTE      P2
      00000090H   SFRSYM    DATA     BYTE      P1
      00000080H   SFRSYM    DATA     BYTE      P0

      00FF2643H   BLOCK     CODE     ---       LVL=0
      00FF2647H   BLOCK     CODE     NEAR LAB  LVL=1
      R11         REGSYM    ---      BYTE      res
      0000039FH   SYMBOL    EDATA    BYTE      dwon_count
      ---         BLOCKEND  ---      ---       LVL=1
      00FF2643H   LINE      CODE     ---       #22
      00FF2647H   LINE      CODE     ---       #23
      00FF2647H   LINE      CODE     ---       #26
      00FF264CH   LINE      CODE     ---       #28
      00FF264FH   LINE      CODE     ---       #29
      00FF2654H   LINE      CODE     ---       #30
      00FF2654H   LINE      CODE     ---       #31
      00FF2659H   LINE      CODE     ---       #33
      00FF265CH   LINE      CODE     ---       #34
      00FF265EH   LINE      CODE     ---       #36
      00FF2661H   LINE      CODE     ---       #38
      00FF2671H   LINE      CODE     ---       #39
L251 LINKER/LOCATER V4.66.93.0                                                        11/16/2023  12:01:34  PAGE 49


      00FF2674H   LINE      CODE     ---       #40
      00FF2676H   LINE      CODE     ---       #43
      00FF267BH   LINE      CODE     ---       #44
      00FF267BH   LINE      CODE     ---       #45
      ---         BLOCKEND  ---      ---       LVL=0

      00FF2739H   BLOCK     CODE     ---       LVL=0
      00FF2739H   LINE      CODE     ---       #49
      00FF273DH   LINE      CODE     ---       #51
      00FF2742H   LINE      CODE     ---       #53
      00FF2745H   LINE      CODE     ---       #54
      00FF274AH   LINE      CODE     ---       #55
      00FF274AH   LINE      CODE     ---       #56
      00FF274FH   LINE      CODE     ---       #58
      00FF2752H   LINE      CODE     ---       #61
      ---         BLOCKEND  ---      ---       LVL=0

      00FF2757H   BLOCK     CODE     ---       LVL=0
      00FF2757H   LINE      CODE     ---       #66
      00FF275BH   LINE      CODE     ---       #68
      00FF2760H   LINE      CODE     ---       #70
      00FF2763H   LINE      CODE     ---       #71
      00FF2768H   LINE      CODE     ---       #72
      00FF2768H   LINE      CODE     ---       #73
      00FF276DH   LINE      CODE     ---       #75
      00FF2770H   LINE      CODE     ---       #78
      ---         BLOCKEND  ---      ---       LVL=0

      00FF2485H   BLOCK     CODE     ---       LVL=0
      00FF2485H   LINE      CODE     ---       #83
      00FF249DH   LINE      CODE     ---       #85
      00FF24A2H   LINE      CODE     ---       #87
      00FF24A5H   LINE      CODE     ---       #88
      00FF24AAH   LINE      CODE     ---       #89
      00FF24AAH   LINE      CODE     ---       #90
      00FF24AFH   LINE      CODE     ---       #92
      00FF24B2H   LINE      CODE     ---       #95
      00FF24BCH   LINE      CODE     ---       #97
      00FF24BFH   LINE      CODE     ---       #98
      00FF24C1H   LINE      CODE     ---       #99
      00FF24C7H   LINE      CODE     ---       #101
      00FF24CAH   LINE      CODE     ---       #102
      00FF24CCH   LINE      CODE     ---       #103
      00FF24D2H   LINE      CODE     ---       #105
      00FF24D5H   LINE      CODE     ---       #106
      00FF24D5H   LINE      CODE     ---       #108
      ---         BLOCKEND  ---      ---       LVL=0

      00FF27EDH   BLOCK     CODE     ---       LVL=0
      00FF27EDH   LINE      CODE     ---       #111
      00FF27EFH   LINE      CODE     ---       #113
      00FF27F1H   LINE      CODE     ---       #114
      ---         BLOCKEND  ---      ---       LVL=0

      00FF0009H   BLOCK     CODE     ---       LVL=0
      00FF0009H   LINE      CODE     ---       #115
      00FF0009H   LINE      CODE     ---       #118
      ---         BLOCKEND  ---      ---       LVL=0

      00FF27BDH   BLOCK     CODE     ---       LVL=0
      00FF27BDH   LINE      CODE     ---       #119
      00FF27BFH   LINE      CODE     ---       #121
      00FF27C2H   LINE      CODE     ---       #122
      ---         BLOCKEND  ---      ---       LVL=0

L251 LINKER/LOCATER V4.66.93.0                                                        11/16/2023  12:01:34  PAGE 50


      00FF27C5H   BLOCK     CODE     ---       LVL=0
      00FF27C5H   LINE      CODE     ---       #123
      00FF27C7H   LINE      CODE     ---       #125
      00FF27CAH   LINE      CODE     ---       #126
      ---         BLOCKEND  ---      ---       LVL=0

      00FF27CDH   BLOCK     CODE     ---       LVL=0
      00FF27CDH   LINE      CODE     ---       #128
      00FF27CFH   LINE      CODE     ---       #130
      00FF27D2H   LINE      CODE     ---       #131
      ---         BLOCKEND  ---      ---       LVL=0

      00FF000AH   BLOCK     CODE     ---       LVL=0
      00FF000AH   LINE      CODE     ---       #133
      00FF000AH   LINE      CODE     ---       #136
      ---         BLOCKEND  ---      ---       LVL=0

      00FF0011H   BLOCK     CODE     ---       LVL=0
      00FF0011H   LINE      CODE     ---       #137
      00FF0011H   LINE      CODE     ---       #140
      ---         BLOCKEND  ---      ---       LVL=0

      00FF27D5H   BLOCK     CODE     ---       LVL=0
      00FF27D5H   LINE      CODE     ---       #141
      00FF27D7H   LINE      CODE     ---       #143
      00FF27DAH   LINE      CODE     ---       #145
      ---         BLOCKEND  ---      ---       LVL=0

      00FF27DDH   BLOCK     CODE     ---       LVL=0
      00FF27DDH   LINE      CODE     ---       #146
      00FF27DFH   LINE      CODE     ---       #148
      00FF27E2H   LINE      CODE     ---       #150
      ---         BLOCKEND  ---      ---       LVL=0

      00FF27E5H   BLOCK     CODE     ---       LVL=0
      00FF27E5H   LINE      CODE     ---       #152
      00FF27E7H   LINE      CODE     ---       #154
      00FF27EAH   LINE      CODE     ---       #157
      ---         BLOCKEND  ---      ---       LVL=0

      ---         MODULE    ---      ---       main
      00FF212BH   PUBLIC    CODE     ---       main
      000000D0H   SFRSYM    DATA     BYTE      PSW
      000000E9H   SFRSYM    DATA     BYTE      WTST
      00000088H   SFRSYM    DATA     BYTE      TCON
      00000098H   SFRSYM    DATA     BYTE      SCON
      000000B8H   SFRSYM    DATA     BYTE      IP
      000000A8H   SFRSYM    DATA     BYTE      IE
      000000F8H   SFRSYM    DATA     BYTE      P7
      000000E8H   SFRSYM    DATA     BYTE      P6
      000000C8H   SFRSYM    DATA     BYTE      P5
      000000C0H   SFRSYM    DATA     BYTE      P4
      000000B0H   SFRSYM    DATA     BYTE      P3
      000000A0H   SFRSYM    DATA     BYTE      P2
      00000090H   SFRSYM    DATA     BYTE      P1
      00000080H   SFRSYM    DATA     BYTE      P0

      00FF212BH   BLOCK     CODE     ---       LVL=0
      00FF212BH   LINE      CODE     ---       #30
      00FF212BH   LINE      CODE     ---       #32
      00FF212EH   LINE      CODE     ---       #34
      00FF2131H   LINE      CODE     ---       #39
      00FF213DH   LINE      CODE     ---       #41
      00FF2140H   LINE      CODE     ---       #44
      00FF2143H   LINE      CODE     ---       #45
L251 LINKER/LOCATER V4.66.93.0                                                        11/16/2023  12:01:34  PAGE 51


      00FF2146H   LINE      CODE     ---       #49
      00FF2149H   LINE      CODE     ---       #50
      00FF2149H   LINE      CODE     ---       #53
      00FF2150H   LINE      CODE     ---       #54
      00FF215FH   LINE      CODE     ---       #55
      00FF216CH   LINE      CODE     ---       #56
      00FF217BH   LINE      CODE     ---       #57
      00FF218AH   LINE      CODE     ---       #58
      00FF21A3H   LINE      CODE     ---       #64
      00FF21AAH   LINE      CODE     ---       #65
      00FF21B1H   LINE      CODE     ---       #66
      00FF21B8H   LINE      CODE     ---       #67
      00FF21BFH   LINE      CODE     ---       #68
      00FF21C6H   LINE      CODE     ---       #69
      00FF21CDH   LINE      CODE     ---       #70
      00FF21D4H   LINE      CODE     ---       #71
      ---         BLOCKEND  ---      ---       LVL=0

      ---         MODULE    ---      ---       ?C?FPADD
      00FF17A5H   PUBLIC    CODE     ---       ?C?FPADD
      00FF17A2H   PUBLIC    CODE     ---       ?C?FPSUB

      ---         MODULE    ---      ---       ?C?FPMUL
      00FF185DH   PUBLIC    CODE     ---       ?C?FPMUL

      ---         MODULE    ---      ---       ?C?FPDIV
      00FF18FDH   PUBLIC    CODE     ---       ?C?FPDIV

      ---         MODULE    ---      ---       ?C?FPCMP
      00FF1980H   PUBLIC    CODE     ---       ?C?FPCMP
      00FF197EH   PUBLIC    CODE     ---       ?C?FPCMP3

      ---         MODULE    ---      ---       ?C?FCAST
      00FF19CEH   PUBLIC    CODE     NEAR LAB  ?C?FCASTC
      00FF19C9H   PUBLIC    CODE     NEAR LAB  ?C?FCASTI
      00FF19C4H   PUBLIC    CODE     NEAR LAB  ?C?FCASTL

      ---         MODULE    ---      ---       ?C?CASTF
      00FF1A01H   PUBLIC    CODE     NEAR LAB  ?C?CASTF

      ---         MODULE    ---      ---       ?C?FPGETOPN
      00FF1A3EH   PUBLIC    CODE     ---       ?C?FPGETOPN2
      00FF1A7BH   PUBLIC    CODE     ---       ?C?FPNANRESULT
      00FF1A83H   PUBLIC    CODE     ---       ?C?FPOVERFLOW
      00FF1A57H   PUBLIC    CODE     ---       ?C?FPRESULT
      00FF1A6DH   PUBLIC    CODE     ---       ?C?FPRESULT2
      00FF1A80H   PUBLIC    CODE     ---       ?C?FPUNDERFLOW

      ---         MODULE    ---      ---       ?C_START
      00FF0000H   PUBLIC    CODE     ---       ?C?STARTUP
      00FF0000H   PUBLIC    CODE     ---       ?C_STARTUP

      ---         MODULE    ---      ---       ?C?INITEDATA
      00FF25D9H   PUBLIC    CODE     ---       ?C?INITEDATA

      ---         MODULE    ---      ---       ?C?SIDIV
      00FF1A8FH   PUBLIC    CODE     ---       ?C?SIDIV

      ---         MODULE    ---      ---       ?C?ULDIV
      00FF1AC3H   PUBLIC    CODE     NEAR LAB  ?C?ULDIV
      00FF1AC1H   PUBLIC    CODE     NEAR LAB  ?C?ULIDIV

      ---         MODULE    ---      ---       ?C?SLDIV
      00FF1B14H   PUBLIC    CODE     NEAR LAB  ?C?SLDIV

L251 LINKER/LOCATER V4.66.93.0                                                        11/16/2023  12:01:34  PAGE 52


      ---         MODULE    ---      ---       memcpy
      00FF26F5H   PUBLIC    CODE     ---       memcpy?_

      ---         MODULE    ---      ---       ?C?INITEDATA_END
      00FF2866H   PUBLIC    HCONST   WORD      ?C?INITEDATA_END

Program Size: data=8.0 edata+hdata=1176 xdata=0 const=158 code=10176
L251 RUN COMPLETE.  0 WARNING(S),  0 ERROR(S)
